 TlsServer

 Timestamp is 65eb4636 (Fri Mar  8 10:09:10 2024)

 Preferred load address is 0000000140000000

 Start         Length     Name                   Class
 0001:00000000 0003911cH .text                   CODE
 0001:0003911c 00000064H .text$di                CODE
 0001:00039180 000254a0H .text$mn                CODE
 0001:0005e620 00000040H .text$mn$00             CODE
 0001:0005e660 00000b50H .text$mn$21             CODE
 0001:0005f1b0 000007b0H .text$x                 CODE
 0001:0005f960 000000f4H .text$yd                CODE
 0002:00000000 00000378H .idata$5                DATA
 0002:00000378 00000038H .00cfg                  DATA
 0002:000003b0 00000008H .CRT$XCA                DATA
 0002:000003b8 00000008H .CRT$XCAA               DATA
 0002:000003c0 00000018H .CRT$XCC                DATA
 0002:000003d8 00000010H .CRT$XCL                DATA
 0002:000003e8 00000008H .CRT$XCU                DATA
 0002:000003f0 00000008H .CRT$XCZ                DATA
 0002:000003f8 00000008H .CRT$XIA                DATA
 0002:00000400 00000008H .CRT$XIAA               DATA
 0002:00000408 00000008H .CRT$XIAC               DATA
 0002:00000410 00000030H .CRT$XIC                DATA
 0002:00000440 00000008H .CRT$XIZ                DATA
 0002:00000448 00000008H .CRT$XLA                DATA
 0002:00000450 00000008H .CRT$XLZ                DATA
 0002:00000458 00000008H .CRT$XPA                DATA
 0002:00000460 00000010H .CRT$XPX                DATA
 0002:00000470 00000008H .CRT$XPXA               DATA
 0002:00000478 00000008H .CRT$XPZ                DATA
 0002:00000480 00000008H .CRT$XTA                DATA
 0002:00000488 00000018H .CRT$XTZ                DATA
 0002:00000490 00000000H .gehcont$y              DATA
 0002:00000490 00000000H .gfids$y                DATA
 0002:000004a0 000338d0H .rdata                  DATA
 0002:00033d70 00000190H .rdata$00               DATA
 0002:00033f00 00000000H .rdata$CastGuardVftablesA DATA
 0002:00033f00 00000000H .rdata$CastGuardVftablesC DATA
 0002:00033f00 00000028H .rdata$T                DATA
 0002:00033f28 00000314H .rdata$r                DATA
 0002:0003423c 00000428H .rdata$voltmd           DATA
 0002:00034664 0000042cH .rdata$zzzdbg           DATA
 0002:00034a90 00000008H .rtc$IAA                DATA
 0002:00034a98 00000008H .rtc$IZZ                DATA
 0002:00034aa0 00000008H .rtc$TAA                DATA
 0002:00034aa8 00000008H .rtc$TZZ                DATA
 0002:00034ab0 00000004H .tls                    DATA
 0002:00034ab4 00000004H .tls$                   DATA
 0002:00034ab8 00000008H .tls$ZZZ                DATA
 0002:00034ac0 0000d088H .xdata                  DATA
 0002:00041b48 000001c4H .xdata$x                DATA
 0002:00041d0c 00000000H .edata                  DATA
 0002:00041d0c 00000028H .idata$2                DATA
 0002:00041d34 00000014H .idata$3                DATA
 0002:00041d48 00000378H .idata$4                DATA
 0002:000420c0 0000071eH .idata$6                DATA
 0003:00000000 00101320H .data                   DATA
 0003:00101320 000000a0H .data$r                 DATA
 0003:001013c0 00000050H .data$rs                DATA
 0003:00101410 00001724H .bss                    DATA
 0004:00000000 00005868H .pdata                  DATA
 0005:00000000 000001f4H _RDATA                  DATA

  Address         Publics by Value              Rva+Base               Lib:Object

 0000:00000000       __AbsoluteZero             0000000000000000     <absolute>
 0000:00000000       ___safe_se_handler_count   0000000000000000     <absolute>
 0000:00000000       ___safe_se_handler_table   0000000000000000     <absolute>
 0000:00000000       __arm64x_extra_rfe_table   0000000000000000     <absolute>
 0000:00000000       __arm64x_extra_rfe_table_size 0000000000000000     <absolute>
 0000:00000000       __arm64x_native_entrypoint 0000000000000000     <absolute>
 0000:00000000       __arm64x_redirection_metadata 0000000000000000     <absolute>
 0000:00000000       __arm64x_redirection_metadata_count 0000000000000000     <absolute>
 0000:00000000       __dynamic_value_reloc_table 0000000000000000     <absolute>
 0000:00000000       __enclave_config           0000000000000000     <absolute>
 0000:00000000       __guard_check_icall_a64n_fptr 0000000000000000     <absolute>
 0000:00000000       __guard_eh_cont_count      0000000000000000     <absolute>
 0000:00000000       __guard_eh_cont_table      0000000000000000     <absolute>
 0000:00000000       __guard_fids_count         0000000000000000     <absolute>
 0000:00000000       __guard_fids_table         0000000000000000     <absolute>
 0000:00000000       __guard_iat_count          0000000000000000     <absolute>
 0000:00000000       __guard_iat_table          0000000000000000     <absolute>
 0000:00000000       __guard_longjmp_count      0000000000000000     <absolute>
 0000:00000000       __guard_longjmp_table      0000000000000000     <absolute>
 0000:00000000       __hybrid_auxiliary_delayload_iat 0000000000000000     <absolute>
 0000:00000000       __hybrid_auxiliary_delayload_iat_copy 0000000000000000     <absolute>
 0000:00000000       __hybrid_auxiliary_iat     0000000000000000     <absolute>
 0000:00000000       __hybrid_auxiliary_iat_copy 0000000000000000     <absolute>
 0000:00000000       __hybrid_code_map          0000000000000000     <absolute>
 0000:00000000       __hybrid_code_map_count    0000000000000000     <absolute>
 0000:00000000       __hybrid_image_info_bitfield 0000000000000000     <absolute>
 0000:00000000       __x64_code_ranges_to_entry_points 0000000000000000     <absolute>
 0000:00000000       __x64_code_ranges_to_entry_points_count 0000000000000000     <absolute>
 0000:00000100       __guard_flags              0000000000000100     <absolute>
 0000:00000000       __ImageBase                0000000140000000     <linker-defined>
 0001:00000000       main                       0000000140001000 f   main-205501.o
 0001:000000b0       ??0MainApp@@QEAA@XZ        00000001400010b0 f i main-205501.o
 0001:000001f0       ??1MainApp@@QEAA@XZ        00000001400011f0 f i main-205501.o
 0001:00000240       ?mainLoop@MainApp@@QEAAHXZ 0000000140001240 f   MainApp-c3b5ae.o
 0001:00000380       ?runServer@MainApp@@QEAAXXZ 0000000140001380 f   MainApp-c3b5ae.o
 0001:000003c0       ??0CharBuf@@QEAA@PEBD@Z    00000001400013c0 f   CharBuf-9d1648.o
 0001:00000450       ?setFromCharPoint@CharBuf@@QEAAXPEBD@Z 0000000140001450 f   CharBuf-9d1648.o
 0001:000005a0       ?setSize@CharBuf@@QEAAXH@Z 00000001400015a0 f   CharBuf-9d1648.o
 0001:00000610       ?setFromInt64@CharBuf@@QEAAX_J@Z 0000000140001610 f   CharBuf-9d1648.o
 0001:000009b0       ?appendChar@CharBuf@@QEAAXD@Z 00000001400019b0 f   CharBuf-9d1648.o
 0001:00000a30       ?setFromUint64@CharBuf@@QEAAX_K@Z 0000000140001a30 f   CharBuf-9d1648.o
 0001:00000d60       ??0CharBuf@@QEAA@AEBV0@@Z  0000000140001d60 f   CharBuf-9d1648.o
 0001:00000e00       ?increaseSize@CharBuf@@AEAAXH@Z 0000000140001e00 f   CharBuf-9d1648.o
 0001:00000e10       ?appendU8@CharBuf@@QEAAXI@Z 0000000140001e10 f   CharBuf-9d1648.o
 0001:00000e90       ?appendU16@CharBuf@@QEAAXI@Z 0000000140001e90 f   CharBuf-9d1648.o
 0001:00000f40       ?appendU32@CharBuf@@QEAAXI@Z 0000000140001f40 f   CharBuf-9d1648.o
 0001:000010c0       ?appendU64@CharBuf@@QEAAX_K@Z 00000001400020c0 f   CharBuf-9d1648.o
 0001:000013b0       ?getU32@CharBuf@@QEBAIH@Z  00000001400023b0 f   CharBuf-9d1648.o
 0001:00001470       ?getU64@CharBuf@@QEBA_KH@Z 0000000140002470 f   CharBuf-9d1648.o
 0001:00001600       ?get24Bits@CharBuf@@QEBAIH@Z 0000000140002600 f   CharBuf-9d1648.o
 0001:00001690       ?get16Bits@CharBuf@@QEBAIH@Z 0000000140002690 f   CharBuf-9d1648.o
 0001:00001710       ?append24Bits@CharBuf@@QEAAXI@Z 0000000140002710 f   CharBuf-9d1648.o
 0001:00001840       ?appendCharArray@CharBuf@@QEAAXAEBVByteArray@@H@Z 0000000140002840 f   CharBuf-9d1648.o
 0001:00001910       ?appendCharBuf@CharBuf@@QEAAXAEBV1@@Z 0000000140002910 f   CharBuf-9d1648.o
 0001:000019f0       ?copy@CharBuf@@QEAAXAEBV1@@Z 00000001400029f0 f   CharBuf-9d1648.o
 0001:00001a10       ?copyToCharArray@CharBuf@@QEAAXAEAVByteArray@@@Z 0000000140002a10 f   CharBuf-9d1648.o
 0001:00001b00       ?copyToOpenCharArrayNoNull@CharBuf@@QEBAXAEAVOpenCharArray@@@Z 0000000140002b00 f   CharBuf-9d1648.o
 0001:00001bf0       ?copyToOpenCharArrayNull@CharBuf@@QEBAXAEAVOpenCharArray@@@Z 0000000140002bf0 f   CharBuf-9d1648.o
 0001:00001d30       ?copyFromOpenCharArrayNoNull@CharBuf@@QEAAXAEBVOpenCharArray@@@Z 0000000140002d30 f   CharBuf-9d1648.o
 0001:00001e50       ?copyFromOpenCharArrayNull@CharBuf@@QEAAXAEBVOpenCharArray@@@Z 0000000140002e50 f   CharBuf-9d1648.o
 0001:00001fc0       ?testBasics@CharBuf@@QEAAXXZ 0000000140002fc0 f   CharBuf-9d1648.o
 0001:00002050       ?findChar@CharBuf@@QEAAHHD@Z 0000000140003050 f   CharBuf-9d1648.o
 0001:000020d0       ?isEqual@CharBuf@@QEBA_NAEBV1@@Z 00000001400030d0 f   CharBuf-9d1648.o
 0001:000021a0       ?appendCharPt@CharBuf@@QEAAXPEBD@Z 00000001400031a0 f   CharBuf-9d1648.o
 0001:000022e0       ?reverse@CharBuf@@QEAAXXZ  00000001400032e0 f   CharBuf-9d1648.o
 0001:00002510       ?showHex@CharBuf@@QEBAXXZ  0000000140003510 f   CharBuf-9d1648.o
 0001:000025c0       ?setFromHexTo256@CharBuf@@QEAAXAEBV1@@Z 00000001400035c0 f   CharBuf-9d1648.o
 0001:00002ba0       ?increaseSize@ByteArray@@QEAAXH@Z 0000000140003ba0 f i CharBuf-9d1648.o
 0001:00002d60       ?copy@ByteArray@@QEAAXAEBV1@HH@Z 0000000140003d60 f i CharBuf-9d1648.o
 0001:00002ed0       ?writeAll@FileIO@@SA_NPEBDAEBVCharBuf@@@Z 0000000140003ed0 f   FileIO-72ff47.o
 0001:00003150       ?readAll@FileIO@@SA_NPEBDAEAVCharBuf@@@Z 0000000140004150 f   FileIO-72ff47.o
 0001:00003510       ?exists@FileIO@@SA_NPEBD@Z 0000000140004510 f   FileIO-72ff47.o
 0001:00003620       ?copy@FileIO@@SA_NPEBD0@Z  0000000140004620 f   FileIO-72ff47.o
 0001:00003720       ??0?$basic_ofstream@DU?$char_traits@D@std@@@std@@QEAA@PEBDHH@Z 0000000140004720 f i FileIO-72ff47.o
 0001:00003a80       ?write@?$basic_ostream@DU?$char_traits@D@std@@@std@@QEAAAEAV12@PEBD_J@Z 0000000140004a80 f i FileIO-72ff47.o
 0001:00003cf0       ??_D?$basic_ofstream@DU?$char_traits@D@std@@@std@@QEAAXXZ 0000000140004cf0 f i FileIO-72ff47.o
 0001:00003d80       ??0?$basic_ifstream@DU?$char_traits@D@std@@@std@@QEAA@PEBDHH@Z 0000000140004d80 f i FileIO-72ff47.o
 0001:000040f0       ?seekg@?$basic_istream@DU?$char_traits@D@std@@@std@@QEAAAEAV12@_JH@Z 00000001400050f0 f i FileIO-72ff47.o
 0001:000043b0       ?tellg@?$basic_istream@DU?$char_traits@D@std@@@std@@QEAA?AV?$fpos@U_Mbstatet@@@2@XZ 00000001400053b0 f i FileIO-72ff47.o
 0001:00004540       ?seekg@?$basic_istream@DU?$char_traits@D@std@@@std@@QEAAAEAV12@V?$fpos@U_Mbstatet@@@2@@Z 0000000140005540 f i FileIO-72ff47.o
 0001:00004800       ?read@?$basic_istream@DU?$char_traits@D@std@@@std@@QEAAAEAV12@PEAD_J@Z 0000000140005800 f i FileIO-72ff47.o
 0001:00004a30       ??_D?$basic_ifstream@DU?$char_traits@D@std@@@std@@QEAAXXZ 0000000140005a30 f i FileIO-72ff47.o
 0001:00004ac0       ??__E?id@?$codecvt@DDU_Mbstatet@@@std@@2V0locale@2@A@@YAXXZ 0000000140005ac0 f i FileIO-72ff47.o
 0001:00004ad0       ??1?$basic_filebuf@DU?$char_traits@D@std@@@std@@UEAA@XZ 0000000140005ad0 f i FileIO-72ff47.o
 0001:00004bb0       ??_E?$basic_ofstream@DU?$char_traits@D@std@@@std@@$4PPPPPPPM@A@EAAPEAXI@Z 0000000140005bb0 f i FileIO-72ff47.o
 0001:00004c80       ?close@?$basic_filebuf@DU?$char_traits@D@std@@@std@@QEAAPEAV12@XZ 0000000140005c80 f i FileIO-72ff47.o
 0001:00004df0       ??_G?$basic_filebuf@DU?$char_traits@D@std@@@std@@UEAAPEAXI@Z 0000000140005df0 f i FileIO-72ff47.o
 0001:00004e20       ?_Lock@?$basic_filebuf@DU?$char_traits@D@std@@@std@@UEAAXXZ 0000000140005e20 f i FileIO-72ff47.o
 0001:00004e40       ?_Unlock@?$basic_filebuf@DU?$char_traits@D@std@@@std@@UEAAXXZ 0000000140005e40 f i FileIO-72ff47.o
 0001:00004e60       ?overflow@?$basic_filebuf@DU?$char_traits@D@std@@@std@@MEAAHH@Z 0000000140005e60 f i FileIO-72ff47.o
 0001:00004ff0       ?pbackfail@?$basic_filebuf@DU?$char_traits@D@std@@@std@@MEAAHH@Z 0000000140005ff0 f i FileIO-72ff47.o
 0001:000050e0       ?showmanyc@?$basic_streambuf@DU?$char_traits@D@std@@@std@@MEAA_JXZ 00000001400060e0 f i FileIO-72ff47.o
 0001:000050e0       ?sync@?$basic_streambuf@DU?$char_traits@D@std@@@std@@MEAAHXZ 00000001400060e0 f i FileIO-72ff47.o
 0001:000050f0       ?underflow@?$basic_filebuf@DU?$char_traits@D@std@@@std@@MEAAHXZ 00000001400060f0 f i FileIO-72ff47.o
 0001:00005140       ?uflow@?$basic_filebuf@DU?$char_traits@D@std@@@std@@MEAAHXZ 0000000140006140 f i FileIO-72ff47.o
 0001:000054a0       ?xsgetn@?$basic_filebuf@DU?$char_traits@D@std@@@std@@MEAA_JPEAD_J@Z 00000001400064a0 f i FileIO-72ff47.o
 0001:00005660       ?xsputn@?$basic_filebuf@DU?$char_traits@D@std@@@std@@MEAA_JPEBD_J@Z 0000000140006660 f i FileIO-72ff47.o
 0001:000057a0       ?seekoff@?$basic_filebuf@DU?$char_traits@D@std@@@std@@MEAA?AV?$fpos@U_Mbstatet@@@2@_JHH@Z 00000001400067a0 f i FileIO-72ff47.o
 0001:00005920       ?seekpos@?$basic_filebuf@DU?$char_traits@D@std@@@std@@MEAA?AV?$fpos@U_Mbstatet@@@2@V32@H@Z 0000000140006920 f i FileIO-72ff47.o
 0001:00005a70       ?setbuf@?$basic_filebuf@DU?$char_traits@D@std@@@std@@MEAAPEAV?$basic_streambuf@DU?$char_traits@D@std@@@2@PEAD_J@Z 0000000140006a70 f i FileIO-72ff47.o
 0001:00005bb0       ?sync@?$basic_filebuf@DU?$char_traits@D@std@@@std@@MEAAHXZ 0000000140006bb0 f i FileIO-72ff47.o
 0001:00005bf0       ?imbue@?$basic_filebuf@DU?$char_traits@D@std@@@std@@MEAAXAEBVlocale@2@@Z 0000000140006bf0 f i FileIO-72ff47.o
 0001:00005c70       ??_G?$basic_streambuf@DU?$char_traits@D@std@@@std@@UEAAPEAXI@Z 0000000140006c70 f i FileIO-72ff47.o
 0001:00005cd0       ?_Lock@?$basic_streambuf@DU?$char_traits@D@std@@@std@@UEAAXXZ 0000000140006cd0 f i FileIO-72ff47.o
 0001:00005cd0       ?_Unlock@?$basic_streambuf@DU?$char_traits@D@std@@@std@@UEAAXXZ 0000000140006cd0 f i FileIO-72ff47.o
 0001:00005cd0       ?imbue@?$basic_streambuf@DU?$char_traits@D@std@@@std@@MEAAXAEBVlocale@2@@Z 0000000140006cd0 f i FileIO-72ff47.o
 0001:00005ce0       ?overflow@?$basic_streambuf@DU?$char_traits@D@std@@@std@@MEAAHH@Z 0000000140006ce0 f i FileIO-72ff47.o
 0001:00005ce0       ?pbackfail@?$basic_streambuf@DU?$char_traits@D@std@@@std@@MEAAHH@Z 0000000140006ce0 f i FileIO-72ff47.o
 0001:00005ce0       ?underflow@?$basic_streambuf@DU?$char_traits@D@std@@@std@@MEAAHXZ 0000000140006ce0 f i FileIO-72ff47.o
 0001:00005cf0       ?uflow@?$basic_streambuf@DU?$char_traits@D@std@@@std@@MEAAHXZ 0000000140006cf0 f i FileIO-72ff47.o
 0001:00005d40       ?xsgetn@?$basic_streambuf@DU?$char_traits@D@std@@@std@@MEAA_JPEAD_J@Z 0000000140006d40 f i FileIO-72ff47.o
 0001:00005e00       ?xsputn@?$basic_streambuf@DU?$char_traits@D@std@@@std@@MEAA_JPEBD_J@Z 0000000140006e00 f i FileIO-72ff47.o
 0001:00005ec0       ?seekoff@?$basic_streambuf@DU?$char_traits@D@std@@@std@@MEAA?AV?$fpos@U_Mbstatet@@@2@_JHH@Z 0000000140006ec0 f i FileIO-72ff47.o
 0001:00005ec0       ?seekpos@?$basic_streambuf@DU?$char_traits@D@std@@@std@@MEAA?AV?$fpos@U_Mbstatet@@@2@V32@H@Z 0000000140006ec0 f i FileIO-72ff47.o
 0001:00005ee0       ?setbuf@?$basic_streambuf@DU?$char_traits@D@std@@@std@@MEAAPEAV12@PEAD_J@Z 0000000140006ee0 f i FileIO-72ff47.o
 0001:00005ef0       ??1?$basic_string@DU?$char_traits@D@std@@V?$allocator@D@2@@std@@QEAA@XZ 0000000140006ef0 f i FileIO-72ff47.o
 0001:00005f80       ??$_Reallocate_grow_by@V<lambda_1>@?0??push_back@?$basic_string@DU?$char_traits@D@std@@V?$allocator@D@2@@std@@QEAAXD@Z@D@?$basic_string@DU?$char_traits@D@std@@V?$allocator@D@2@@std@@AEAAAEAV01@_KV<lambda_1>@?0??push_back@01@QEAAXD@Z@D@Z 0000000140006f80 f i FileIO-72ff47.o
 0001:00006100       ?_Xlen_string@std@@YAXXZ   0000000140007100 f i FileIO-72ff47.o
 0001:00006120       ?_Throw_bad_array_new_length@std@@YAXXZ 0000000140007120 f i FileIO-72ff47.o
 0001:00006160       ??0bad_array_new_length@std@@QEAA@AEBV01@@Z 0000000140007160 f i FileIO-72ff47.o
 0001:000061d0       ??0bad_alloc@std@@QEAA@AEBV01@@Z 00000001400071d0 f i FileIO-72ff47.o
 0001:00006240       ??0exception@std@@QEAA@AEBV01@@Z 0000000140007240 f i FileIO-72ff47.o
 0001:000062b0       ??_E_System_error@std@@UEAAPEAXI@Z 00000001400072b0 f i FileIO-72ff47.o
 0001:000062b0       ??_Ebad_alloc@std@@UEAAPEAXI@Z 00000001400072b0 f i FileIO-72ff47.o
 0001:000062b0       ??_Ebad_array_new_length@std@@UEAAPEAXI@Z 00000001400072b0 f i FileIO-72ff47.o
 0001:000062b0       ??_Eexception@std@@UEAAPEAXI@Z 00000001400072b0 f i FileIO-72ff47.o
 0001:000062b0       ??_Efailure@ios_base@std@@UEAAPEAXI@Z 00000001400072b0 f i FileIO-72ff47.o
 0001:000062b0       ??_Eruntime_error@std@@UEAAPEAXI@Z 00000001400072b0 f i FileIO-72ff47.o
 0001:000062b0       ??_Esystem_error@std@@UEAAPEAXI@Z 00000001400072b0 f i FileIO-72ff47.o
 0001:000062b0       ??_G_System_error@std@@UEAAPEAXI@Z 00000001400072b0 f i FileIO-72ff47.o
 0001:000062b0       ??_Gbad_alloc@std@@UEAAPEAXI@Z 00000001400072b0 f i FileIO-72ff47.o
 0001:000062b0       ??_Gbad_array_new_length@std@@UEAAPEAXI@Z 00000001400072b0 f i FileIO-72ff47.o
 0001:000062b0       ??_Gexception@std@@UEAAPEAXI@Z 00000001400072b0 f i FileIO-72ff47.o
 0001:000062b0       ??_Gfailure@ios_base@std@@UEAAPEAXI@Z 00000001400072b0 f i FileIO-72ff47.o
 0001:000062b0       ??_Gruntime_error@std@@UEAAPEAXI@Z 00000001400072b0 f i FileIO-72ff47.o
 0001:000062b0       ??_Gsystem_error@std@@UEAAPEAXI@Z 00000001400072b0 f i FileIO-72ff47.o
 0001:00006320       ?what@exception@std@@UEBAPEBDXZ 0000000140007320 f i FileIO-72ff47.o
 0001:00006340       ??$use_facet@V?$codecvt@DDU_Mbstatet@@@std@@@std@@YAAEBV?$codecvt@DDU_Mbstatet@@@0@AEBVlocale@0@@Z 0000000140007340 f i FileIO-72ff47.o
 0001:00006530       ??0_Locinfo@std@@QEAA@PEBD@Z 0000000140007530 f i FileIO-72ff47.o
 0001:00006690       ??1_Locinfo@std@@QEAA@XZ   0000000140007690 f i FileIO-72ff47.o
 0001:00006760       ??_E?$codecvt@DDU_Mbstatet@@@std@@MEAAPEAXI@Z 0000000140007760 f i FileIO-72ff47.o
 0001:00006760       ??_E_Iostream_error_category2@std@@UEAAPEAXI@Z 0000000140007760 f i FileIO-72ff47.o
 0001:00006760       ??_G?$codecvt@DDU_Mbstatet@@@std@@MEAAPEAXI@Z 0000000140007760 f i FileIO-72ff47.o
 0001:00006760       ??_G_Iostream_error_category2@std@@UEAAPEAXI@Z 0000000140007760 f i FileIO-72ff47.o
 0001:00006780       ?_Incref@facet@locale@std@@UEAAXXZ 0000000140007780 f i FileIO-72ff47.o
 0001:00006790       ?_Decref@facet@locale@std@@UEAAPEAV_Facet_base@3@XZ 0000000140007790 f i FileIO-72ff47.o
 0001:000067a0       ?do_always_noconv@?$codecvt@DDU_Mbstatet@@@std@@MEBA_NXZ 00000001400077a0 f i FileIO-72ff47.o
 0001:000067a0       __acrt_uninitialize_command_line 00000001400077a0 f i libucrt:argv_data.obj
 0001:000067a0       _should_initialize_environment 00000001400077a0 f i libcmt:env_mode.obj
 0001:000067b0       ?do_encoding@codecvt_base@std@@MEBAHXZ 00000001400077b0 f i FileIO-72ff47.o
 0001:000067b0       ?do_max_length@codecvt_base@std@@MEBAHXZ 00000001400077b0 f i FileIO-72ff47.o
 0001:000067b0       _get_startup_argv_mode     00000001400077b0 f i libcmt:argv_mode.obj
 0001:000067c0       ?do_in@?$codecvt@DDU_Mbstatet@@@std@@MEBAHAEAU_Mbstatet@@PEBD1AEAPEBDPEAD3AEAPEAD@Z 00000001400077c0 f i FileIO-72ff47.o
 0001:000067c0       ?do_out@?$codecvt@DDU_Mbstatet@@@std@@MEBAHAEAU_Mbstatet@@PEBD1AEAPEBDPEAD3AEAPEAD@Z 00000001400077c0 f i FileIO-72ff47.o
 0001:000067e0       ?do_unshift@?$codecvt@DDU_Mbstatet@@@std@@MEBAHAEAU_Mbstatet@@PEAD1AEAPEAD@Z 00000001400077e0 f i FileIO-72ff47.o
 0001:000067f0       ?do_length@?$codecvt@DDU_Mbstatet@@@std@@MEBAHAEAU_Mbstatet@@PEBD1_K@Z 00000001400077f0 f i FileIO-72ff47.o
 0001:00006810       ??_E_Facet_base@std@@UEAAPEAXI@Z 0000000140007810 f i FileIO-72ff47.o
 0001:00006810       ??_G_Facet_base@std@@UEAAPEAXI@Z 0000000140007810 f i FileIO-72ff47.o
 0001:00006820       ??_G?$basic_ios@DU?$char_traits@D@std@@@std@@UEAAPEAXI@Z 0000000140007820 f i FileIO-72ff47.o
 0001:00006820       ??_Gios_base@std@@UEAAPEAXI@Z 0000000140007820 f i FileIO-72ff47.o
 0001:00006880       ??_E?$basic_ifstream@DU?$char_traits@D@std@@@std@@$4PPPPPPPM@A@EAAPEAXI@Z 0000000140007880 f i FileIO-72ff47.o
 0001:00006950       ?open@?$basic_filebuf@DU?$char_traits@D@std@@@std@@QEAAPEAV12@PEBDHH@Z 0000000140007950 f i FileIO-72ff47.o
 0001:00006b70       ?setstate@?$basic_ios@DU?$char_traits@D@std@@@std@@QEAAXH_N@Z 0000000140007b70 f i FileIO-72ff47.o
 0001:00006c10       ?init@?$basic_ios@DU?$char_traits@D@std@@@std@@IEAAXPEAV?$basic_streambuf@DU?$char_traits@D@std@@@2@_N@Z 0000000140007c10 f i FileIO-72ff47.o
 0001:00006dc0       ??_E?$basic_ostream@DU?$char_traits@D@std@@@std@@$4PPPPPPPM@A@EAAPEAXI@Z 0000000140007dc0 f i FileIO-72ff47.o
 0001:00006e40       ?make_error_code@std@@YA?AVerror_code@1@W4io_errc@1@@Z 0000000140007e40 f i FileIO-72ff47.o
 0001:00006ec0       ??0failure@ios_base@std@@QEAA@PEBDAEBVerror_code@2@@Z 0000000140007ec0 f i FileIO-72ff47.o
 0001:00006f00       ??0failure@ios_base@std@@QEAA@AEBV012@@Z 0000000140007f00 f i FileIO-72ff47.o
 0001:00006f80       ??0system_error@std@@QEAA@AEBV01@@Z 0000000140007f80 f i FileIO-72ff47.o
 0001:00007000       ??0_System_error@std@@QEAA@AEBV01@@Z 0000000140008000 f i FileIO-72ff47.o
 0001:00007080       ??0runtime_error@std@@QEAA@AEBV01@@Z 0000000140008080 f i FileIO-72ff47.o
 0001:000070f0       ??1exception@std@@UEAA@XZ  00000001400080f0 f i FileIO-72ff47.o
 0001:00007140       ?name@_Iostream_error_category2@std@@UEBAPEBDXZ 0000000140008140 f i FileIO-72ff47.o
 0001:00007150       ?message@_Iostream_error_category2@std@@UEBA?AV?$basic_string@DU?$char_traits@D@std@@V?$allocator@D@2@@2@H@Z 0000000140008150 f i FileIO-72ff47.o
 0001:00007280       ?default_error_condition@error_category@std@@UEBA?AVerror_condition@2@H@Z 0000000140008280 f i FileIO-72ff47.o
 0001:00007290       ?equivalent@error_category@std@@UEBA_NAEBVerror_code@2@H@Z 0000000140008290 f i FileIO-72ff47.o
 0001:000072b0       ?equivalent@error_category@std@@UEBA_NHAEBVerror_condition@2@@Z 00000001400082b0 f i FileIO-72ff47.o
 0001:000072f0       ??0system_error@std@@QEAA@Verror_code@1@PEBD@Z 00000001400082f0 f i FileIO-72ff47.o
 0001:00007490       ??0_System_error@std@@IEAA@Verror_code@1@AEBV?$basic_string@DU?$char_traits@D@std@@V?$allocator@D@2@@1@@Z 0000000140008490 f i FileIO-72ff47.o
 0001:00007650       ?_Makestr@_System_error@std@@CA?AV?$basic_string@DU?$char_traits@D@std@@V?$allocator@D@2@@2@Verror_code@2@V32@@Z 0000000140008650 f i FileIO-72ff47.o
 0001:00007840       ??$_Reallocate_grow_by@V<lambda_1>@?0??append@?$basic_string@DU?$char_traits@D@std@@V?$allocator@D@2@@std@@QEAAAEAV34@QEBD_K@Z@PEBD_K@?$basic_string@DU?$char_traits@D@std@@V?$allocator@D@2@@std@@AEAAAEAV01@_KV<lambda_1>@?0??append@01@QEAAAEAV01@QEBD0@Z@PEBD_K@Z 0000000140008840 f i FileIO-72ff47.o
 0001:000079e0       ??$use_facet@V?$ctype@D@std@@@std@@YAAEBV?$ctype@D@0@AEBVlocale@0@@Z 00000001400089e0 f i FileIO-72ff47.o
 0001:00007be0       ??_E?$ctype@D@std@@MEAAPEAXI@Z 0000000140008be0 f i FileIO-72ff47.o
 0001:00007be0       ??_G?$ctype@D@std@@MEAAPEAXI@Z 0000000140008be0 f i FileIO-72ff47.o
 0001:00007c40       ?do_tolower@?$ctype@D@std@@MEBAPEBDPEADPEBD@Z 0000000140008c40 f i FileIO-72ff47.o
 0001:00007c90       ?do_tolower@?$ctype@D@std@@MEBADD@Z 0000000140008c90 f i FileIO-72ff47.o
 0001:00007ca0       ?do_toupper@?$ctype@D@std@@MEBAPEBDPEADPEBD@Z 0000000140008ca0 f i FileIO-72ff47.o
 0001:00007cf0       ?do_toupper@?$ctype@D@std@@MEBADD@Z 0000000140008cf0 f i FileIO-72ff47.o
 0001:00007d00       ?do_widen@?$ctype@D@std@@MEBAPEBDPEBD0PEAD@Z 0000000140008d00 f i FileIO-72ff47.o
 0001:00007d20       ?do_narrow@?$ctype@D@std@@MEBADDD@Z 0000000140008d20 f i FileIO-72ff47.o
 0001:00007d20       ?do_widen@?$ctype@D@std@@MEBADD@Z 0000000140008d20 f i FileIO-72ff47.o
 0001:00007d30       ?do_narrow@?$ctype@D@std@@MEBAPEBDPEBD0DPEAD@Z 0000000140008d30 f i FileIO-72ff47.o
 0001:00007d50       ??1sentry@?$basic_ostream@DU?$char_traits@D@std@@@std@@QEAA@XZ 0000000140008d50 f i FileIO-72ff47.o
 0001:00007dc0       ?flush@?$basic_ostream@DU?$char_traits@D@std@@@std@@QEAAAEAV12@XZ 0000000140008dc0 f i FileIO-72ff47.o
 0001:00008010       ??1_Sentry_base@?$basic_istream@DU?$char_traits@D@std@@@std@@QEAA@XZ 0000000140009010 f i FileIO-72ff47.o
 0001:00008010       ??1_Sentry_base@?$basic_ostream@DU?$char_traits@D@std@@@std@@QEAA@XZ 0000000140009010 f i FileIO-72ff47.o
 0001:00008070       ?_Osfx@?$basic_ostream@DU?$char_traits@D@std@@@std@@QEAAXXZ 0000000140009070 f i FileIO-72ff47.o
 0001:00008180       ??_E?$basic_istream@DU?$char_traits@D@std@@@std@@$4PPPPPPPM@A@EAAPEAXI@Z 0000000140009180 f i FileIO-72ff47.o
 0001:00008200       ?_Ipfx@?$basic_istream@DU?$char_traits@D@std@@@std@@QEAA_N_N@Z 0000000140009200 f i FileIO-72ff47.o
 0001:000084f0       ?printFStack@StIO@@SAXXZ   00000001400094f0 f   StIO-57413d.o
 0001:00008530       ?printF@StIO@@SAXPEBD@Z    0000000140009530 f   StIO-57413d.o
 0001:00008550       ?putS@StIO@@SAXPEBD@Z      0000000140009550 f   StIO-57413d.o
 0001:00008560       ?printFD@StIO@@SAX_J@Z     0000000140009560 f   StIO-57413d.o
 0001:00008580       ?printFUD@StIO@@SAX_K@Z    0000000140009580 f   StIO-57413d.o
 0001:000085a0       ?printFX@StIO@@SAXI@Z      00000001400095a0 f   StIO-57413d.o
 0001:000085c0       ?putChar@StIO@@SAXH@Z      00000001400095c0 f   StIO-57413d.o
 0001:000085d0       ?putLF@StIO@@SAXXZ         00000001400095d0 f   StIO-57413d.o
 0001:000085e0       ?putWChar@StIO@@SAXG@Z     00000001400095e0 f   StIO-57413d.o
 0001:000085f0       ?putCharBuf@StIO@@SAXAEBVCharBuf@@@Z 00000001400095f0 f   StIO-57413d.o
 0001:00008670       printf                     0000000140009670 f i StIO-57413d.o
 0001:000086d0       __local_stdio_printf_options 00000001400096d0 f i StIO-57413d.o
 0001:000086e0       ?sleep@Threads@@SAXH@Z     00000001400096e0 f   Threads-6869b2.o
 0001:00008700       ??$sleep_for@_JU?$ratio@$00$0DOI@@std@@@this_thread@std@@YAXAEBV?$duration@_JU?$ratio@$00$0DOI@@std@@@chrono@1@@Z 0000000140009700 f i Threads-6869b2.o
 0001:00008840       ??$sleep_until@Usteady_clock@chrono@std@@V?$duration@_JU?$ratio@$00$0DLJKMKAA@@std@@@23@@this_thread@std@@YAXAEBV?$time_point@Usteady_clock@chrono@std@@V?$duration@_JU?$ratio@$00$0DLJKMKAA@@std@@@23@@chrono@1@@Z 0000000140009840 f i Threads-6869b2.o
 0001:000089b0       ?setSize@Uint16Buf@@QEAAXH@Z 00000001400099b0 f   Uint16Buf-ce17d0.o
 0001:00008a10       ?increaseSize@Uint16Buf@@AEAAXH@Z 0000000140009a10 f   Uint16Buf-ce17d0.o
 0001:00008a20       ?copy@Uint16Buf@@QEAAXAEBV1@@Z 0000000140009a20 f   Uint16Buf-ce17d0.o
 0001:00008a40       ?appendU16@Uint16Buf@@QEAAXG@Z 0000000140009a40 f   Uint16Buf-ce17d0.o
 0001:00008ac0       ?appendCharBuf@Uint16Buf@@QEAAXAEBVCharBuf@@@Z 0000000140009ac0 f   Uint16Buf-ce17d0.o
 0001:00008c20       ?increaseSize@Uint16Array@@QEAAXH@Z 0000000140009c20 f i Uint16Buf-ce17d0.o
 0001:00008db0       ?copy@Uint16Array@@QEAAXAEBV1@HH@Z 0000000140009db0 f i Uint16Buf-ce17d0.o
 0001:00008f40       ?u16BufToCharBuf@UTF8Str@@SAXAEBVUint16Buf@@AEAVCharBuf@@@Z 0000000140009f40 f   UTF8Str-a1c50b.o
 0001:00009050       ?charBufToU16Buf@UTF8Str@@QEAAXAEBVCharBuf@@AEAVUint16Buf@@@Z 000000014000a050 f   UTF8Str-a1c50b.o
 0001:00009200       ?setToZero@Crt@@QEAAXXZ    000000014000a200 f   Crt-d7e29a.o
 0001:00009280       ?setToOne@Crt@@QEAAXXZ     000000014000a280 f   Crt-d7e29a.o
 0001:00009300       ?isZero@Crt@@QEBA_NXZ      000000014000a300 f   Crt-d7e29a.o
 0001:000093b0       ?isOne@Crt@@QEBA_NXZ       000000014000a3b0 f   Crt-d7e29a.o
 0001:00009460       ?copy@Crt@@QEAAXAEBV1@@Z   000000014000a460 f   Crt-d7e29a.o
 0001:000094e0       ?isEqual@Crt@@QEBA_NAEBV1@@Z 000000014000a4e0 f   Crt-d7e29a.o
 0001:000095b0       ?add@Crt@@QEAAXAEBV1@AEBVSPrimes@@@Z 000000014000a5b0 f   Crt-d7e29a.o
 0001:00009650       ?subtract@Crt@@QEAAXAEBV1@AEBVSPrimes@@@Z 000000014000a650 f   Crt-d7e29a.o
 0001:000096f0       ?decrement@Crt@@QEAAXAEBVSPrimes@@@Z 000000014000a6f0 f   Crt-d7e29a.o
 0001:00009790       ?subtractInt@Crt@@QEAAXHAEBVSPrimes@@@Z 000000014000a790 f   Crt-d7e29a.o
 0001:00009830       ?multiply@Crt@@QEAAXAEBV1@AEBVSPrimes@@@Z 000000014000a830 f   Crt-d7e29a.o
 0001:000098d0       ?setFromInteger@Crt@@QEAAXAEBVInteger@@AEAVIntegerMath@@AEBVSPrimes@@@Z 000000014000a8d0 f   Crt-d7e29a.o
 0001:00009970       ?setFromInt@Crt@@QEAAXHAEBVSPrimes@@@Z 000000014000a970 f   Crt-d7e29a.o
 0001:00009a00       ?copy@Crt3@@QEAAXAEBV1@@Z  000000014000aa00 f   Crt3-90c9a5.o
 0001:00009a90       ?isEqual@Crt3@@QEBA_NAEBV1@@Z 000000014000aa90 f   Crt3-90c9a5.o
 0001:00009b80       ?toInteger@Crt3@@QEBAXAEBVCrtMath@@AEAVInteger@@@Z 000000014000ab80 f   Crt3-90c9a5.o
 0001:00009cd0       ?setFromCrtV6@Crt3@@QEAAXHAEBVCrtMath@@AEBVSPrimes@@AEBVMultInv@@@Z 000000014000acd0 f   Crt3-90c9a5.o
 0001:00009e40       ?setFromInteger@Crt3@@QEAAXAEBVInteger@@AEAVIntegerMath@@AEBVSPrimes@@AEBVMultInv@@AEBVCrtMath@@@Z 000000014000ae40 f   Crt3-90c9a5.o
 0001:00009e80       ?getAccum@Crt3@@QEBAHHHHAEBVCrtMath@@@Z 000000014000ae80 f i Crt3-90c9a5.o
 0001:00009fc0       ?setFromCrtAt@Crt3@@QEAAXHHAEBVCrtMath@@HAEBVMultInv@@@Z 000000014000afc0 f i Crt3-90c9a5.o
 0001:0000a0c0       ?setToZero@CrtBuf@@QEAAXXZ 000000014000b0c0 f   CrtBuf-f9562a.o
 0001:0000a140       ?setToOne@CrtBuf@@QEAAXXZ  000000014000b140 f   CrtBuf-f9562a.o
 0001:0000a1c0       ?setFromInteger@CrtBuf@@QEAAXAEBVInteger@@AEAVIntegerMath@@AEBVSPrimes@@@Z 000000014000b1c0 f   CrtBuf-f9562a.o
 0001:0000a260       ?init@CrtMath@@QEAAXAEAVIntegerMath@@AEBVSPrimes@@@Z 000000014000b260 f   CrtMath-a36de9.o
 0001:0000a2a0       ?setupBaseArray@CrtMath@@AEAAXAEAVIntegerMath@@AEBVSPrimes@@@Z 000000014000b2a0 f   CrtMath-a36de9.o
 0001:0000a3c0       ?copyFromInteger@CrtMath@@QEBAXAEAVInteger@@H@Z 000000014000b3c0 f   CrtMath-a36de9.o
 0001:0000a3e0       ?formula@Garner@@QEAA_NAEBVInteger@@0000AEAV2@AEAVMod@@AEAVIntegerMath@@@Z 000000014000b3e0 f   Garner-7c4afe.o
 0001:0000a950       ?decryptWithQInverse@Garner@@QEAA_NAEBVInteger@@0000AEAV2@AEAVMod@@AEAVIntegerMath@@@Z 000000014000b950 f   Garner-7c4afe.o
 0001:0000ac30       ?testCrt@Garner@@QEAAXAEBVInteger@@AEAVIntegerMath@@AEBVSPrimes@@AEBVMultInv@@AEBVCrtMath@@@Z 000000014000bc30 f   Garner-7c4afe.o
 0001:0000ad90       ??0Crt3@@QEAA@XZ           000000014000bd90 f i Garner-7c4afe.o
 0001:0000aed0       ??1Crt3@@QEAA@XZ           000000014000bed0 f i Garner-7c4afe.o
 0001:0000af00       ??0Crt@@QEAA@XZ            000000014000bf00 f i Garner-7c4afe.o
 0001:0000afc0       ?setUpConstants@GarnerCrt@@QEAAXAEBVSPrimes@@AEAVIntegerMath@@@Z 000000014000bfc0 f   GarnerCrt-2d2605.o
 0001:0000b480       ?toInteger@GarnerCrt@@QEAAXAEBVCrt@@AEAVInteger@@AEAVIntegerMath@@@Z 000000014000c480 f   GarnerCrt-2d2605.o
 0001:0000b690       ??0GoodX@@QEAA@XZ          000000014000c690 f   GoodX-ae9673.o
 0001:0000b780       ??0GoodX@@QEAA@AEBV0@@Z    000000014000c780 f   GoodX-ae9673.o
 0001:0000b880       ??1GoodX@@QEAA@XZ          000000014000c880 f   GoodX-ae9673.o
 0001:0000b8e0       ?init@GoodX@@QEAAXAEBVSPrimes@@@Z 000000014000c8e0 f   GoodX-ae9673.o
 0001:0000ba10       ?setAllFalse@GoodX@@QEAAXXZ 000000014000ca10 f   GoodX-ae9673.o
 0001:0000ba80       ??0MultInv@@QEAA@XZ        000000014000ca80 f   MultInv-2bbd1e.o
 0001:0000bb70       ??0MultInv@@QEAA@AEBV0@@Z  000000014000cb70 f   MultInv-2bbd1e.o
 0001:0000bc70       ??1MultInv@@QEAA@XZ        000000014000cc70 f   MultInv-2bbd1e.o
 0001:0000bcd0       ?calcMultInv@MultInv@@AEAAHHH@Z 000000014000ccd0 f   MultInv-2bbd1e.o
 0001:0000bd20       ?calcMultInvL@MultInv@@AEAA_J_J0@Z 000000014000cd20 f   MultInv-2bbd1e.o
 0001:0000bf30       ?init@MultInv@@QEAAXAEBVSPrimes@@@Z 000000014000cf30 f   MultInv-2bbd1e.o
 0001:0000c290       ??0Base10Number@@QEAA@AEBVCharBuf@@@Z 000000014000d290 f   Base10Number-97dd3b.o
 0001:0000c2d0       ?setFromCharBuf@Base10Number@@QEAAXAEBVCharBuf@@@Z 000000014000d2d0 f   Base10Number-97dd3b.o
 0001:0000c3d0       ??0Base10Number@@QEAA@AEBV0@@Z 000000014000d3d0 f   Base10Number-97dd3b.o
 0001:0000c410       ??1Base10Number@@QEAA@XZ   000000014000d410 f   Base10Number-97dd3b.o
 0001:0000c420       ?shortDivide@Division@@SA_NAEBVInteger@@0AEAV2@1AEAVIntegerMath@@@Z 000000014000d420 f   Division-e4da29.o
 0001:0000c890       ?shortDivideRem@Division@@SA_JAEBVInteger@@_JAEAV2@@Z 000000014000d890 f   Division-e4da29.o
 0001:0000cb00       ?divide@Division@@SAXAEBVInteger@@0AEAV2@1AEAVIntegerMath@@@Z 000000014000db00 f   Division-e4da29.o
 0001:0000ce10       ?longDivide3@Division@@SAXAEBVInteger@@0AEAV2@1AEAVIntegerMath@@@Z 000000014000de10 f   Division-e4da29.o
 0001:0000d680       ?longDivide1@Division@@SA_NAEBVInteger@@0AEAV2@1AEAVIntegerMath@@@Z 000000014000e680 f   Division-e4da29.o
 0001:0000d890       ?testDivideBits@Division@@SAX_J_NHAEBVInteger@@2AEAV2@AEAVIntegerMath@@@Z 000000014000e890 f   Division-e4da29.o
 0001:0000da40       ?longDivide2@Division@@SA_NAEBVInteger@@0AEAV2@1AEAVIntegerMath@@@Z 000000014000ea40 f   Division-e4da29.o
 0001:0000dda0       ?findShiftBy@Division@@SAH_J@Z 000000014000eda0 f   Division-e4da29.o
 0001:0000de00       ??0Exponents@@QEAA@XZ      000000014000ee00 f   Exponents-d95490.o
 0001:0000df90       ??0Exponents@@QEAA@AEBV0@@Z 000000014000ef90 f   Exponents-d95490.o
 0001:0000e160       ??1Exponents@@QEAA@XZ      000000014000f160 f   Exponents-d95490.o
 0001:0000e190       ?setupBases@Exponents@@QEAAXAEBVInteger@@0AEAVIntegerMath@@@Z 000000014000f190 f   Exponents-d95490.o
 0001:0000e340       ?toPower@Exponents@@QEAAXAEAVInteger@@AEBV2@1AEAVIntegerMath@@@Z 000000014000f340 f   Exponents-d95490.o
 0001:0000e6b0       ?multiply@Int56@@QEAAXAEBV1@0@Z 000000014000f6b0 f   Int56-a7f3da.o
 0001:0000e800       ?divide@Int56@@QEAA_NAEBV1@0AEAV1@@Z 000000014000f800 f   Int56-a7f3da.o
 0001:0000ea40       ?isDivisibleBySmallPrime@Int56@@QEBAHAEBVSPrimes@@@Z 000000014000fa40 f   Int56-a7f3da.o
 0001:0000eb60       ?setIndex@Integer@@QEAAXH@Z 000000014000fb60 f   Integer-411c6a.o
 0001:0000eba0       ?copy@Integer@@QEAAXAEBV1@@Z 000000014000fba0 f   Integer-411c6a.o
 0001:0000ec20       ?copyUpTo@Integer@@QEAAXAEBV1@H@Z 000000014000fc20 f   Integer-411c6a.o
 0001:0000ecd0       ?getD@Integer@@QEBA_JH@Z   000000014000fcd0 f   Integer-411c6a.o
 0001:0000ed10       ?setD@Integer@@QEAAXH_J@Z  000000014000fd10 f   Integer-411c6a.o
 0001:0000ed70       ?setD48@Integer@@QEAAXH_J@Z 000000014000fd70 f   Integer-411c6a.o
 0001:0000edd0       ?setFromInt24@Integer@@QEAAXH@Z 000000014000fdd0 f   Integer-411c6a.o
 0001:0000ee20       ?setFromLong48@Integer@@QEAAX_J@Z 000000014000fe20 f   Integer-411c6a.o
 0001:0000ee90       ?isEqual@Integer@@QEBA_NAEBV1@@Z 000000014000fe90 f   Integer-411c6a.o
 0001:0000ef20       ?paramIsGreater@Integer@@QEBA_NAEBV1@@Z 000000014000ff20 f   Integer-411c6a.o
 0001:0000ef70       ?paramIsGreaterOrEq@Integer@@QEBA_NAEBV1@@Z 000000014000ff70 f   Integer-411c6a.o
 0001:0000f030       ?carry@Integer@@QEAAXXZ    0000000140010030 f   Integer-411c6a.o
 0001:0000f120       ?increment@Integer@@QEAAXXZ 0000000140010120 f   Integer-411c6a.o
 0001:0000f250       ?decrement@Integer@@QEAAXXZ 0000000140010250 f   Integer-411c6a.o
 0001:0000f320       ?borrow@Integer@@QEAAXXZ   0000000140010320 f   Integer-411c6a.o
 0001:0000f3d0       ?addLong48@Integer@@QEAAX_J@Z 00000001400103d0 f   Integer-411c6a.o
 0001:0000f590       ?add@Integer@@QEAAXAEBV1@@Z 0000000140010590 f   Integer-411c6a.o
 0001:0000f7e0       ?andBits@Integer@@QEAAXAEBV1@0@Z 00000001400107e0 f   Integer-411c6a.o
 0001:0000f880       ?shiftLeft@Integer@@QEAAXH@Z 0000000140010880 f   Integer-411c6a.o
 0001:0000f970       ?shiftDigitsLeft@Integer@@QEAAXH@Z 0000000140010970 f   Integer-411c6a.o
 0001:0000fa20       ?shiftRight@Integer@@QEAAXH@Z 0000000140010a20 f   Integer-411c6a.o
 0001:0000fae0       ?setDigitAndClear@Integer@@QEAAXH_J@Z 0000000140010ae0 f   Integer-411c6a.o
 0001:0000fb90       ?makeRandomOdd@Integer@@QEAA_NH@Z 0000000140010b90 f   Integer-411c6a.o
 0001:0000fdd0       ?setFromBigEndianCharBuf@Integer@@QEAAXAEBVCharBuf@@@Z 0000000140010dd0 f   Integer-411c6a.o
 0001:00010060       ?subtract@Integer@@QEAAXAEBV1@@Z 0000000140011060 f   Integer-411c6a.o
 0001:000101f0       ?multiply24@Integer@@QEAAX_J@Z 00000001400111f0 f   Integer-411c6a.o
 0001:000103d0       ?getModDestruct@Integer@@QEAAH_J@Z 00000001400113d0 f   Integer-411c6a.o
 0001:00010560       ?find64SqrRoot@IntegerMath@@SA_J_J@Z 0000000140011560 f   IntegerMath-59f10c.o
 0001:00010840       ?isDivisibleBySmallPrime@IntegerMath@@QEAAHAEBVInteger@@AEBVSPrimes@@@Z 0000000140011840 f   IntegerMath-59f10c.o
 0001:000108e0       ?getMod24@IntegerMath@@QEAAHAEBVInteger@@_J@Z 00000001400118e0 f   IntegerMath-59f10c.o
 0001:00010a00       ?add@IntegerMath@@QEAAXAEAVInteger@@AEBV2@@Z 0000000140011a00 f   IntegerMath-59f10c.o
 0001:00010c80       ?subtract@IntegerMath@@QEAAXAEAVInteger@@AEBV2@@Z 0000000140011c80 f   IntegerMath-59f10c.o
 0001:00010ef0       ?multiplyLong48@IntegerMath@@QEAAXAEAVInteger@@_J@Z 0000000140011ef0 f   IntegerMath-59f10c.o
 0001:00011090       ?setMultiplySign@IntegerMath@@AEAAXAEAVInteger@@AEBV2@@Z 0000000140012090 f   IntegerMath-59f10c.o
 0001:000110f0       ?multiply@IntegerMath@@QEAAXAEAVInteger@@AEBV2@@Z 00000001400120f0 f   IntegerMath-59f10c.o
 0001:000113d0       ?setFromStr@IntegerMath@@QEAAXAEAVInteger@@AEBVCharBuf@@@Z 00000001400123d0 f   IntegerMath-59f10c.o
 0001:000115c0       ?toString10@IntegerMath@@QEAAXAEBVInteger@@AEAVCharBuf@@@Z 00000001400125c0 f   IntegerMath-59f10c.o
 0001:00011a00       ?multiplyTop@IntegerMath@@QEAAXAEAVInteger@@AEBV2@@Z 0000000140012a00 f   IntegerMath-59f10c.o
 0001:00011c30       ?multiplyTopOne@IntegerMath@@QEAAXAEAVInteger@@AEBV2@@Z 0000000140012c30 f   IntegerMath-59f10c.o
 0001:00011cf0       ?setsqrRootTop@IntegerMath@@QEAAXAEBVInteger@@AEAV2@@Z 0000000140012cf0 f   IntegerMath-59f10c.o
 0001:00011da0       ?squareRoot@IntegerMath@@QEAA_NAEBVInteger@@AEAV2@@Z 0000000140012da0 f   IntegerMath-59f10c.o
 0001:00012070       ?searchSqrtXPart@IntegerMath@@AEAAXHAEBVInteger@@AEAV2@@Z 0000000140013070 f   IntegerMath-59f10c.o
 0001:000123c0       ?setNegative@Integer@@QEAAX_N@Z 00000001400133c0 f i IntegerMath-59f10c.o
 0001:00012400       ?reduce@Mod@@QEAAXAEAVInteger@@AEBV2@1AEAVIntegerMath@@@Z 0000000140013400 f   Mod-fd083a.o
 0001:00012410       ?makeExact@Mod@@QEAAXAEAVInteger@@AEBV2@AEAVIntegerMath@@@Z 0000000140013410 f   Mod-fd083a.o
 0001:000124e0       ?toPower@Mod@@QEAAXAEAVInteger@@AEBV2@1AEAVIntegerMath@@@Z 00000001400134e0 f   Mod-fd083a.o
 0001:00012910       ?verifyInBaseRange@Mod@@QEAAXAEBVInteger@@0PEBD@Z 0000000140013910 f   Mod-fd083a.o
 0001:00012980       ?verifyMoreThanZero@Mod@@QEAAXAEBVInteger@@@Z 0000000140013980 f   Mod-fd083a.o
 0001:000129e0       ?add@Mod@@QEAAXAEAVInteger@@AEBV2@1AEAVIntegerMath@@@Z 00000001400139e0 f   Mod-fd083a.o
 0001:00012b50       ?addL@Mod@@QEAAXAEAVInteger@@_JAEBV2@AEAVIntegerMath@@@Z 0000000140013b50 f   Mod-fd083a.o
 0001:00012ca0       ?negate@Mod@@QEAAXAEAVInteger@@AEBV2@AEAVIntegerMath@@@Z 0000000140013ca0 f   Mod-fd083a.o
 0001:00012d40       ?subtract@Mod@@QEAAXAEAVInteger@@AEBV2@1AEAVIntegerMath@@@Z 0000000140013d40 f   Mod-fd083a.o
 0001:00012e50       ?multiply@Mod@@QEAAXAEAVInteger@@AEBV2@1AEAVIntegerMath@@@Z 0000000140013e50 f   Mod-fd083a.o
 0001:00013030       ?multiplyL@Mod@@QEAAXAEAVInteger@@_JAEBV2@AEAVIntegerMath@@@Z 0000000140014030 f   Mod-fd083a.o
 0001:000131e0       ?divide@Mod@@QEAA_NAEAVInteger@@AEBV2@110AEAVIntegerMath@@@Z 00000001400141e0 f   Mod-fd083a.o
 0001:00013500       ??0NumbSys@@QEAA@XZ        0000000140014500 f   NumbSys-f4f128.o
 0001:00013600       ??0NumbSys@@QEAA@AEBV0@@Z  0000000140014600 f   NumbSys-f4f128.o
 0001:00013730       ??1NumbSys@@QEAA@XZ        0000000140014730 f   NumbSys-f4f128.o
 0001:00013750       ?setupBaseArray@NumbSys@@AEAAXAEBVInteger@@AEAVIntegerMath@@@Z 0000000140014750 f   NumbSys-f4f128.o
 0001:00013910       ?reduce@NumbSys@@QEAAXAEAVInteger@@AEBV2@1AEAVIntegerMath@@@Z 0000000140014910 f   NumbSys-f4f128.o
 0001:00013a60       ?sqroot@MathC@@SANN@Z      0000000140014a60 f   MathC-2932f1.o
 0001:00013a70       ?roundF64@MathC@@SANN@Z    0000000140014a70 f   MathC-2932f1.o
 0001:00013a80       ?roundI64@MathC@@SA_JN@Z   0000000140014a80 f   MathC-2932f1.o
 0001:00013a90       ?roundI32@MathC@@SAHN@Z    0000000140014a90 f   MathC-2932f1.o
 0001:00013ac0       ?parseOneExten@CertExten@@QEAA_NAEBVCharBuf@@AEAV2@@Z 0000000140014ac0 f   CertExten-6fb235.o
 0001:00014180       ?parseBasicConstraints@CertExten@@QEAA_N_N@Z 0000000140015180 f   CertExten-6fb235.o
 0001:000141a0       ?parseKeyUsage@CertExten@@QEAA_N_N@Z 00000001400151a0 f   CertExten-6fb235.o
 0001:000141c0       ?parseOneCert@Certificate@@QEAAIAEBVCharBuf@@AEAVTlsMain@@@Z 00000001400151c0 f   Certificate-0fe854.o
 0001:00014a70       ?parseTbsCert@Certificate@@QEAAIAEBVCharBuf@@AEAVTlsMain@@@Z 0000000140015a70 f   Certificate-0fe854.o
 0001:00014b60       ?parseAlgID@Certificate@@QEAAIAEBVCharBuf@@@Z 0000000140015b60 f   Certificate-0fe854.o
 0001:00014bb0       ?parseVersion@Certificate@@QEAAHAEBVCharBuf@@@Z 0000000140015bb0 f   Certificate-0fe854.o
 0001:00014eb0       ?parseSerialNum@Certificate@@QEAAHAEBVCharBuf@@HAEAVTlsMain@@@Z 0000000140015eb0 f   Certificate-0fe854.o
 0001:000151c0       ?parseTbsSigAlgID@Certificate@@QEAAHAEBVCharBuf@@H@Z 00000001400161c0 f   Certificate-0fe854.o
 0001:000156a0       ?parseIssuer@Certificate@@QEAAHAEBVCharBuf@@H@Z 00000001400166a0 f   Certificate-0fe854.o
 0001:00015e50       ?parseValidity@Certificate@@QEAAHAEBVCharBuf@@H@Z 0000000140016e50 f   Certificate-0fe854.o
 0001:00016280       ?parseSubject@Certificate@@QEAAHAEBVCharBuf@@H@Z 0000000140017280 f   Certificate-0fe854.o
 0001:000169f0       ?parseSubjectPubKey@Certificate@@QEAAHAEBVCharBuf@@HAEAVTlsMain@@@Z 00000001400179f0 f   Certificate-0fe854.o
 0001:00017360       ?parseUniqueID@Certificate@@QEAAHAEBVCharBuf@@H@Z 0000000140018360 f   Certificate-0fe854.o
 0001:000175f0       ?parseExtensions@Certificate@@QEAAHAEBVCharBuf@@H@Z 00000001400185f0 f   Certificate-0fe854.o
 0001:00017c70       ??0CertExten@@QEAA@XZ      0000000140018c70 f i Certificate-0fe854.o
 0001:00018370       ??1CertExten@@QEAA@XZ      0000000140019370 f i Certificate-0fe854.o
 0001:00018410       ?parseCertMsg@CertMesg@@QEAAIAEBVCharBuf@@AEAVTlsMain@@@Z 0000000140019410 f   CertMesg-6e1947.o
 0001:00018c40       ?parseCertVerMsg@CertVerMesg@@QEAAIAEBVCharBuf@@AEAVTlsMain@@@Z 0000000140019c40 f   CertVerMesg-74fb2f.o
 0001:00018ca0       ??0ClientHello@@QEAA@XZ    0000000140019ca0 f   ClientHello-415e8d.o
 0001:00018d40       ??0ClientHello@@QEAA@AEBV0@@Z 0000000140019d40 f   ClientHello-415e8d.o
 0001:00018e30       ??1ClientHello@@QEAA@XZ    0000000140019e30 f   ClientHello-415e8d.o
 0001:00018e40       ?parseBuffer@ClientHello@@QEAAIAEBVCharBuf@@AEAVTlsMain@@AEAVEncryptTls@@@Z 0000000140019e40 f   ClientHello-415e8d.o
 0001:00019630       ?makeHelloBuf@ClientHello@@QEAAXAEAVCharBuf@@AEAVTlsMain@@AEAVEncryptTls@@@Z 000000014001a630 f   ClientHello-415e8d.o
 0001:00019ed0       ?startTestVecHandshake@ClientTls@@QEAA_NAEBVCharBuf@@0@Z 000000014001aed0 f   ClientTls-3b5e1f.o
 0001:00019ee0       ?startHandshake@ClientTls@@QEAA_NAEBVCharBuf@@0@Z 000000014001aee0 f   ClientTls-3b5e1f.o
 0001:00019ef0       ?processData@ClientTls@@QEAAHXZ 000000014001aef0 f   ClientTls-3b5e1f.o
 0001:00019fc0       ?getValue@DerEncode@@QEBAXAEAVCharBuf@@@Z 000000014001afc0 f   DerEncode-e446e5.o
 0001:00019fd0       ?readOneTag@DerEncode@@QEAAHAEBVCharBuf@@HAEA_NAEAV2@H@Z 000000014001afd0 f   DerEncode-e446e5.o
 0001:0001a770       ?showTag@DerEncode@@QEAAXIIAEAVCharBuf@@@Z 000000014001b770 f   DerEncode-e446e5.o
 0001:0001ab20       ?readAllTags@DerEncodeLoop@@QEAAHAEBVCharBuf@@HAEAV2@H@Z 000000014001bb20 f   DerEncodeLoop-7183df.o
 0001:0001adc0       ?makeFromCharBuf@DerObjID@@SAXAEBVCharBuf@@AEAV2@@Z 000000014001bdc0 f   DerObjID-3ab8de.o
 0001:0001b500       ?getOneNumber@DerObjID@@SA_KAEAVCharBuf@@@Z 000000014001c500 f   DerObjID-3ab8de.o
 0001:0001b6f0       ?extract@EncryptTls@@AEAAXAEAVCharBuf@@AEBV2@1@Z 000000014001c6f0 f   EncryptTls-885411.o
 0001:0001b700       ?expand@EncryptTls@@AEAAXAEAVCharBuf@@AEBV2@1@Z 000000014001c700 f   EncryptTls-885411.o
 0001:0001b850       ?hkdfExpandLabel@EncryptTls@@AEAAXAEAVCharBuf@@AEBV2@11H@Z 000000014001c850 f   EncryptTls-885411.o
 0001:0001bad0       ?deriveSecret@EncryptTls@@AEAAXAEAVCharBuf@@AEBV2@11@Z 000000014001cad0 f   EncryptTls-885411.o
 0001:0001bc20       ?setHandshakeKeys@EncryptTls@@QEAAXAEAVTlsMain@@AEAVInteger@@@Z 000000014001cc20 f   EncryptTls-885411.o
 0001:0001d430       ?makeMsgTranscript2@EncryptTls@@AEAAXAEAVCharBuf@@AEAVTlsMain@@@Z 000000014001e430 f   EncryptTls-885411.o
 0001:0001db60       ?setAppDataKeys@EncryptTls@@QEAAXAEAVTlsMain@@@Z 000000014001eb60 f   EncryptTls-885411.o
 0001:0001e9d0       ?setDiffHelmOnClient@EncryptTls@@QEAAXAEAVTlsMain@@AEAVInteger@@@Z 000000014001f9d0 f   EncryptTls-885411.o
 0001:0001ec10       ?setDiffHelmOnServer@EncryptTls@@QEAAXAEAVTlsMain@@AEAVInteger@@@Z 000000014001fc10 f   EncryptTls-885411.o
 0001:0001ee50       ?srvWriteDecryptCharBuf@EncryptTls@@QEAAXAEBVCharBuf@@AEAV2@@Z 000000014001fe50 f   EncryptTls-885411.o
 0001:0001f1c0       ?clWriteDecryptCharBuf@EncryptTls@@QEAAXAEBVCharBuf@@AEAV2@@Z 00000001400201c0 f   EncryptTls-885411.o
 0001:0001f530       ?makeClFinishedMsg@EncryptTls@@QEAAXAEAVTlsMain@@AEAVCharBuf@@@Z 0000000140020530 f   EncryptTls-885411.o
 0001:0001f540       ?xorFrom@CharBuf@@QEAAXAEBV1@@Z 0000000140020540 f i EncryptTls-885411.o
 0001:0001f600       ?setFromMsg@ExtenList@@QEAAIAEBVCharBuf@@HAEAVTlsMain@@_NAEAVEncryptTls@@@Z 0000000140020600 f   ExtenList-adabb6.o
 0001:0001fd30       ?setOneExt@ExtenList@@AEAAIIAEBVCharBuf@@AEAVTlsMain@@_NAEAVEncryptTls@@@Z 0000000140020d30 f   ExtenList-adabb6.o
 0001:00020020       ?makeClHelloBuf@ExtenList@@QEAA_NAEAVCharBuf@@AEAVTlsMain@@AEAVEncryptTls@@@Z 0000000140021020 f   ExtenList-adabb6.o
 0001:000205a0       ?makeSrvHelloBuf@ExtenList@@QEAA_NAEAVCharBuf@@AEAVTlsMain@@AEAVEncryptTls@@@Z 00000001400215a0 f   ExtenList-adabb6.o
 0001:00020890       ?sessionTicket@Extension@@QEAAIXZ 0000000140021890 f   Extension-450c09.o
 0001:000208b0       ?serverName@Extension@@QEAAIAEBVCharBuf@@AEAVTlsMain@@@Z 00000001400218b0 f   Extension-450c09.o
 0001:00020bd0       ?supportedVersions@Extension@@QEAAIAEBVCharBuf@@AEAVTlsMain@@_N@Z 0000000140021bd0 f   Extension-450c09.o
 0001:00020e20       ?supportedGroups@Extension@@QEAAIAEBVCharBuf@@AEAVTlsMain@@@Z 0000000140021e20 f   Extension-450c09.o
 0001:00020ff0       ?signatureAlgorithms@Extension@@QEAAIAEBVCharBuf@@AEAVTlsMain@@@Z 0000000140021ff0 f   Extension-450c09.o
 0001:00021150       ?signatureAlgorithmsCert@Extension@@QEAAIAEBVCharBuf@@AEAVTlsMain@@@Z 0000000140022150 f   Extension-450c09.o
 0001:000211a0       ?keyShare@Extension@@QEAAIAEBVCharBuf@@AEAVTlsMain@@_NAEAVEncryptTls@@@Z 00000001400221a0 f   Extension-450c09.o
 0001:00021630       ?parseMsg@FinishedMesg@@QEAAIAEBVCharBuf@@AEAVTlsMain@@@Z 0000000140022630 f   FinishedMesg-e48f06.o
 0001:00021680       ??0HandshakeCl@@QEAA@XZ    0000000140022680 f   HandshakeCl-05007d.o
 0001:00021900       ??0HandshakeCl@@QEAA@AEBV0@@Z 0000000140022900 f   HandshakeCl-05007d.o
 0001:00021b40       ??1HandshakeCl@@QEAA@XZ    0000000140022b40 f   HandshakeCl-05007d.o
 0001:00021b90       ?accumByte@HandshakeCl@@AEAAIE@Z 0000000140022b90 f   HandshakeCl-05007d.o
 0001:00021db0       ?parseMessage@HandshakeCl@@AEAAIAEAVTlsMain@@AEAEAEAVEncryptTls@@@Z 0000000140022db0 f   HandshakeCl-05007d.o
 0001:000222d0       ?processInBuf@HandshakeCl@@QEAAIAEBVCharBuf@@AEAVTlsMain@@AEAEAEAVEncryptTls@@@Z 00000001400232d0 f   HandshakeCl-05007d.o
 0001:00022540       ?makeClHelloBuf@HandshakeCl@@QEAAXAEAVCharBuf@@AEAVTlsMain@@AEAVEncryptTls@@@Z 0000000140023540 f   HandshakeCl-05007d.o
 0001:000227a0       ??0HandshakeSrv@@QEAA@XZ   00000001400237a0 f   HandshakeSrv-3da1c0.o
 0001:00022a20       ??0HandshakeSrv@@QEAA@AEBV0@@Z 0000000140023a20 f   HandshakeSrv-3da1c0.o
 0001:00022c60       ??1HandshakeSrv@@QEAA@XZ   0000000140023c60 f   HandshakeSrv-3da1c0.o
 0001:00022cb0       ?accumByte@HandshakeSrv@@AEAAIE@Z 0000000140023cb0 f   HandshakeSrv-3da1c0.o
 0001:00022ed0       ?parseMessage@HandshakeSrv@@AEAAIAEAVTlsMain@@AEAEAEAVEncryptTls@@@Z 0000000140023ed0 f   HandshakeSrv-3da1c0.o
 0001:000231a0       ?processInBuf@HandshakeSrv@@QEAAIAEBVCharBuf@@AEAVTlsMain@@AEAEAEAVEncryptTls@@@Z 00000001400241a0 f   HandshakeSrv-3da1c0.o
 0001:00023410       ?makeSrvHelloBuf@HandshakeSrv@@QEAAXAEAVCharBuf@@AEAVTlsMain@@AEAVEncryptTls@@@Z 0000000140024410 f   HandshakeSrv-3da1c0.o
 0001:00023680       ??0NetClient@@QEAA@XZ      0000000140024680 f   NetClient-b9e198.o
 0001:000236a0       ??0NetClient@@QEAA@AEBV0@@Z 00000001400246a0 f   NetClient-b9e198.o
 0001:000236f0       ??1NetClient@@QEAA@XZ      00000001400246f0 f   NetClient-b9e198.o
 0001:00023750       ?closeSocket@NetClient@@QEAAXXZ 0000000140024750 f   NetClient-b9e198.o
 0001:00023780       ?connect@NetClient@@QEAA_NAEBVCharBuf@@0@Z 0000000140024780 f   NetClient-b9e198.o
 0001:000237c0       ?sendCharBuf@NetClient@@QEAAHAEBVCharBuf@@@Z 00000001400247c0 f   NetClient-b9e198.o
 0001:000237e0       ?receiveCharBuf@NetClient@@QEAA_NAEAVCharBuf@@@Z 00000001400247e0 f   NetClient-b9e198.o
 0001:00023830       ??0SClientArray@@QEAA@XZ   0000000140024830 f   SClientArray-589ba4.o
 0001:000238a0       ??0SClientArray@@QEAA@AEBV0@@Z 00000001400248a0 f   SClientArray-589ba4.o
 0001:00023940       ??1SClientArray@@QEAA@XZ   0000000140024940 f   SClientArray-589ba4.o
 0001:00023950       ?addNewClient@SClientArray@@QEAA_NPEAVSrvClient@@@Z 0000000140024950 f   SClientArray-589ba4.o
 0001:000239c0       ?closeAllSockets@SClientArray@@QEAAXXZ 00000001400249c0 f   SClientArray-589ba4.o
 0001:00023a20       ?processData@SClientArray@@QEAAXXZ 0000000140024a20 f   SClientArray-589ba4.o
 0001:00023ab0       ??0Server@@QEAA@XZ         0000000140024ab0 f   Server-368295.o
 0001:00023ae0       ??0Server@@QEAA@AEBV0@@Z   0000000140024ae0 f   Server-368295.o
 0001:00023b80       ??1Server@@QEAA@XZ         0000000140024b80 f   Server-368295.o
 0001:00023b90       ?addNewClient@Server@@QEAA_NPEAVSrvClient@@@Z 0000000140024b90 f   Server-368295.o
 0001:00023ba0       ?startServer@Server@@QEAA_NPEBD0@Z 0000000140024ba0 f   Server-368295.o
 0001:00023c00       ?oneLoop@Server@@QEAA_NXZ  0000000140024c00 f   Server-368295.o
 0001:00023c70       ??0ServerHello@@QEAA@XZ    0000000140024c70 f   ServerHello-562aa7.o
 0001:00023d10       ??0ServerHello@@QEAA@AEBV0@@Z 0000000140024d10 f   ServerHello-562aa7.o
 0001:00023e00       ??1ServerHello@@QEAA@XZ    0000000140024e00 f   ServerHello-562aa7.o
 0001:00023e10       ?parseBuffer@ServerHello@@QEAAIAEBVCharBuf@@AEAVTlsMain@@AEAVEncryptTls@@@Z 0000000140024e10 f   ServerHello-562aa7.o
 0001:00024440       ?makeHelloBuf@ServerHello@@QEAAXAEAVCharBuf@@AEAVTlsMain@@AEAVEncryptTls@@@Z 0000000140025440 f   ServerHello-562aa7.o
 0001:00024b60       ??0ServerTls@@QEAA@XZ      0000000140025b60 f   ServerTls-d1efc3.o
 0001:00024b80       ??0ServerTls@@QEAA@AEBV0@@Z 0000000140025b80 f   ServerTls-d1efc3.o
 0001:00024c10       ??1ServerTls@@QEAA@XZ      0000000140025c10 f   ServerTls-d1efc3.o
 0001:00024c20       ?startServer@ServerTls@@QEAA_NPEBD0@Z 0000000140025c20 f   ServerTls-d1efc3.o
 0001:00024c30       ?mainLoop@ServerTls@@QEAAXXZ 0000000140025c30 f   ServerTls-d1efc3.o
 0001:00024e20       ??0SocketGetAddress@@QEAA@XZ 0000000140025e20 f   SocketsApiWin-91ffcb.o
 0001:00024e30       ??1SocketGetAddress@@QEAA@XZ 0000000140025e30 f   SocketsApiWin-91ffcb.o
 0001:00024e90       ?getAddressInfo@SocketGetAddress@@QEAA_NAEBVCharBuf@@0_N1@Z 0000000140025e90 f   SocketsApiWin-91ffcb.o
 0001:00025040       ?moveToNextAddr@SocketGetAddress@@QEAA_NXZ 0000000140026040 f   SocketsApiWin-91ffcb.o
 0001:00025060       ?getAddressBuf@SocketGetAddress@@SA_NAEAVCharBuf@@PEAUsockaddr@@@Z 0000000140026060 f   SocketsApiWin-91ffcb.o
 0001:00025250       ??0SocketsApi@@QEAA@XZ     0000000140026250 f   SocketsApiWin-91ffcb.o
 0001:000252a0       ??0SocketsApi@@QEAA@AEBV0@@Z 00000001400262a0 f   SocketsApiWin-91ffcb.o
 0001:000252e0       ??1SocketsApi@@QEAA@XZ     00000001400262e0 f   SocketsApiWin-91ffcb.o
 0001:00025320       ?closeSocket@SocketsApi@@SAX_K@Z 0000000140026320 f   SocketsApiWin-91ffcb.o
 0001:00025340       ?shutdownRead@SocketsApi@@SAX_K@Z 0000000140026340 f   SocketsApiWin-91ffcb.o
 0001:00025350       ?connectClient@SocketsApi@@SA_KAEBVCharBuf@@0@Z 0000000140026350 f   SocketsApiWin-91ffcb.o
 0001:000257e0       ?setNonBlocking@SocketsApi@@SA_N_K@Z 00000001400267e0 f   SocketsApiWin-91ffcb.o
 0001:00025850       ?openServer@SocketsApi@@SA_KPEBD0_N@Z 0000000140026850 f   SocketsApiWin-91ffcb.o
 0001:00025c10       ?acceptConnect@SocketsApi@@SA_K_KAEAVCharBuf@@@Z 0000000140026c10 f   SocketsApiWin-91ffcb.o
 0001:00025d90       ?sendCharBuf@SocketsApi@@SAH_KAEBVCharBuf@@@Z 0000000140026d90 f   SocketsApiWin-91ffcb.o
 0001:00025f30       ?receiveCharBuf@SocketsApi@@SA_N_KAEAVCharBuf@@@Z 0000000140026f30 f   SocketsApiWin-91ffcb.o
 0001:00026060       ??0SrvClient@@IEAA@XZ      0000000140027060 f   SrvClient-4b1a7e.o
 0001:000260b0       ??0SrvClient@@QEAA@_K@Z    00000001400270b0 f   SrvClient-4b1a7e.o
 0001:000260f0       ??0SrvClient@@QEAA@AEBV0@@Z 00000001400270f0 f   SrvClient-4b1a7e.o
 0001:00026150       ??1SrvClient@@UEAA@XZ      0000000140027150 f   SrvClient-4b1a7e.o
 0001:000261c0       ?processData@SrvClient@@UEAAHXZ 00000001400271c0 f   SrvClient-4b1a7e.o
 0001:000261d0       ?readSocket@SrvClient@@QEAAXAEAVCharBuf@@@Z 00000001400271d0 f   SrvClient-4b1a7e.o
 0001:00026220       ?writeSocket@SrvClient@@QEAAHAEBVCharBuf@@@Z 0000000140027220 f   SrvClient-4b1a7e.o
 0001:00026270       ??_GSrvClient@@UEAAPEAXI@Z 0000000140027270 f i SrvClient-4b1a7e.o
 0001:000262f0       ??0SrvClTls@@IEAA@XZ       00000001400272f0 f   SrvClTls-9ff770.o
 0001:000263c0       ??0SrvClTls@@QEAA@_K@Z     00000001400273c0 f   SrvClTls-9ff770.o
 0001:000264d0       ??1SrvClTls@@UEAA@XZ       00000001400274d0 f   SrvClTls-9ff770.o
 0001:00026540       ?processData@SrvClTls@@UEAAHXZ 0000000140027540 f   SrvClTls-9ff770.o
 0001:000267e0       ??0TlsMain@@QEAA@XZ        00000001400277e0 f i SrvClTls-9ff770.o
 0001:00027170       ??0TlsMainSrv@@QEAA@XZ     0000000140028170 f i SrvClTls-9ff770.o
 0001:00027540       ??1TlsMainSrv@@QEAA@XZ     0000000140028540 f i SrvClTls-9ff770.o
 0001:000275f0       ??1TlsMain@@QEAA@XZ        00000001400285f0 f i SrvClTls-9ff770.o
 0001:000276f0       ??_GSrvClTls@@UEAAPEAXI@Z  00000001400286f0 f i SrvClTls-9ff770.o
 0001:00027780       ??0EncryptTls@@QEAA@XZ     0000000140028780 f i SrvClTls-9ff770.o
 0001:00027d20       ??1EncryptTls@@QEAA@XZ     0000000140028d20 f i SrvClTls-9ff770.o
 0001:00027d80       ??1Sha256@@QEAA@XZ         0000000140028d80 f i SrvClTls-9ff770.o
 0001:00027db0       ?processOutgoing@TlsMainCl@@QEAAHXZ 0000000140028db0 f   TlsMainCl-f005f0.o
 0001:00027ed0       ?copyOutBuf@TlsMainCl@@QEAAXAEAVCharBuf@@@Z 0000000140028ed0 f   TlsMainCl-f005f0.o
 0001:00027f00       ?processIncoming@TlsMainCl@@QEAAHXZ 0000000140028f00 f   TlsMainCl-f005f0.o
 0001:000285d0       ?sendPlainAlert@TlsMainCl@@QEAAXE@Z 00000001400295d0 f   TlsMainCl-f005f0.o
 0001:00028610       ?processHandshake@TlsMainCl@@QEAAHAEBVCharBuf@@@Z 0000000140029610 f   TlsMainCl-f005f0.o
 0001:00028a20       ?processAppData@TlsMainCl@@QEAAHAEBVCharBuf@@@Z 0000000140029a20 f   TlsMainCl-f005f0.o
 0001:00028d30       ?sendTestVecFinished@TlsMainCl@@QEAA_NXZ 0000000140029d30 f   TlsMainCl-f005f0.o
 0001:00028fc0       ?startTestVecHandshake@TlsMainCl@@QEAA_NAEBVCharBuf@@0@Z 0000000140029fc0 f   TlsMainCl-f005f0.o
 0001:00029a20       ?startHandshake@TlsMainCl@@QEAA_NAEBVCharBuf@@0@Z 000000014002aa20 f   TlsMainCl-f005f0.o
 0001:00029d60       ?showAlert@Alerts@@SAXE@Z  000000014002ad60 f i TlsMainCl-f005f0.o
 0001:0002a150       ?setTestVecServerCertOnly@TlsMainSrv@@QEAAXAEAVCharBuf@@@Z 000000014002b150 f   TlsMainSrv-e73a4f.o
 0001:0002a2a0       ?setTestVecServerHello@TlsMainSrv@@QEAAXAEAVCharBuf@@AEAVTlsMain@@@Z 000000014002b2a0 f   TlsMainSrv-e73a4f.o
 0001:0002ac30       ?processIncoming@TlsMainSrv@@QEAAHAEBVCharBuf@@AEAVTlsMain@@@Z 000000014002bc30 f   TlsMainSrv-e73a4f.o
 0001:0002b0e0       ?sendPlainAlert@TlsMainSrv@@QEAAXE@Z 000000014002c0e0 f   TlsMainSrv-e73a4f.o
 0001:0002b120       ?processHandshake@TlsMainSrv@@QEAAHAEBVCharBuf@@AEAVTlsMain@@@Z 000000014002c120 f   TlsMainSrv-e73a4f.o
 0001:0002b7d0       ?processAppData@TlsMainSrv@@QEAAHAEBVCharBuf@@AEAVTlsMain@@@Z 000000014002c7d0 f   TlsMainSrv-e73a4f.o
 0001:0002bae0       ?sendChangeCipherSpec@TlsMainSrv@@QEAAXXZ 000000014002cae0 f   TlsMainSrv-e73a4f.o
 0001:0002bb50       ?setTestVecServerCertOuter@TlsMainSrv@@QEAAXAEAVCharBuf@@@Z 000000014002cb50 f   TlsMainSrv-e73a4f.o
 0001:0002bca0       ?setTestVecServerEncExten@TlsMainSrv@@QEAAXAEAVCharBuf@@@Z 000000014002cca0 f   TlsMainSrv-e73a4f.o
 0001:0002bdf0       ?setTestVecServerCertVerify@TlsMainSrv@@QEAAXAEAVCharBuf@@@Z 000000014002cdf0 f   TlsMainSrv-e73a4f.o
 0001:0002bf40       ?setTestVecServerFinished@TlsMainSrv@@QEAAXAEAVCharBuf@@@Z 000000014002cf40 f   TlsMainSrv-e73a4f.o
 0001:0002c090       ?setTestVecNewSessionTicket@TlsMainSrv@@QEAAXAEAVCharBuf@@@Z 000000014002d090 f   TlsMainSrv-e73a4f.o
 0001:0002c1e0       ?copyOutBuf@TlsMainSrv@@QEAAXAEAVCharBuf@@@Z 000000014002d1e0 f   TlsMainSrv-e73a4f.o
 0001:0002c210       ?accumByte@TlsOuterRec@@QEAAIE@Z 000000014002d210 f   TlsOuterRec-932e5d.o
 0001:0002c3f0       ?makeHandshakeRec@TlsOuterRec@@SAHAEBVCharBuf@@AEAV2@AEAVTlsMain@@@Z 000000014002d3f0 f   TlsOuterRec-932e5d.o
 0001:0002c510       ?makeAppDataRec@TlsOuterRec@@SAHAEBVCharBuf@@AEAV2@AEAVTlsMain@@@Z 000000014002d510 f   TlsOuterRec-932e5d.o
 0001:0002c630       ?addRoundKey@Aes@@AEAAXH@Z 000000014002d630 f   Aes-1aca48.o
 0001:0002c730       ?subBytes@Aes@@AEAAXXZ     000000014002d730 f   Aes-1aca48.o
 0001:0002c7f0       ?shiftRows@Aes@@AEAAXXZ    000000014002d7f0 f   Aes-1aca48.o
 0001:0002c830       ?mixColumns@Aes@@AEAAXXZ   000000014002d830 f   Aes-1aca48.o
 0001:0002cdd0       ?encryptLoop@Aes@@QEAAXXZ  000000014002ddd0 f   Aes-1aca48.o
 0001:0002d130       ?encryptCharBuf@Aes@@QEAAXAEBVCharBuf@@AEAV2@H@Z 000000014002e130 f   Aes-1aca48.o
 0001:0002d170       ?encryptPolynom128@Aes@@QEAAXAEAVPolynom128@@@Z 000000014002e170 f   Aes-1aca48.o
 0001:0002d270       ?encryptTest@Aes@@QEAAXXZ  000000014002e270 f   Aes-1aca48.o
 0001:0002d810       ?moveCharBufToState@AesState@@QEAAXAEBVCharBuf@@H@Z 000000014002e810 f i Aes-1aca48.o
 0001:0002db80       ?moveStateToCharBuf@AesState@@QEAAXAEAVCharBuf@@@Z 000000014002eb80 f i Aes-1aca48.o
 0001:0002dc60       ?encryptTest@AesGalois@@QEAAXXZ 000000014002ec60 f   AesGalois-c9e363.o
 0001:0002e150       ?setKey@AesGalois@@QEAAXAEBVCharBuf@@H@Z 000000014002f150 f   AesGalois-c9e363.o
 0001:0002e1b0       ?encryptCharBuf@AesGalois@@QEAAXAEBVCharBuf@@00AEAV2@@Z 000000014002f1b0 f   AesGalois-c9e363.o
 0001:0002e300       ?decryptCharBuf@AesGalois@@QEAAXAEBVCharBuf@@00AEAV2@@Z 000000014002f300 f   AesGalois-c9e363.o
 0001:0002e740       ?makeHashSubKey@AesGalois@@AEAAXXZ 000000014002f740 f   AesGalois-c9e363.o
 0001:0002e790       ?setCharBufToBlock16@AesGalois@@AEAAXAEAVCharBuf@@@Z 000000014002f790 f   AesGalois-c9e363.o
 0001:0002e7f0       ?setJ0fromIV@AesGalois@@AEAAXAEBVCharBuf@@AEAVPolynom128@@@Z 000000014002f7f0 f   AesGalois-c9e363.o
 0001:0002ea50       ?gHash@AesGalois@@AEAAXAEBVCharBuf@@AEAVPolynom128@@@Z 000000014002fa50 f   AesGalois-c9e363.o
 0001:0002f2f0       ?gctr@AesGalois@@AEAAXAEBVCharBuf@@AEBVPolynom128@@AEAV2@@Z 00000001400302f0 f   AesGalois-c9e363.o
 0001:0002f890       ?makeAuthTag@AesGalois@@AEAAXAEBVCharBuf@@0AEBVPolynom128@@AEAV2@@Z 0000000140030890 f   AesGalois-c9e363.o
 0001:0002fbd0       ?multiply@Polynom128@@QEAAXAEBV1@0@Z 0000000140030bd0 f i AesGalois-c9e363.o
 0001:00030030       ?appendToCharBuf@Polynom128@@QEAAXAEAVCharBuf@@@Z 0000000140031030 f i AesGalois-c9e363.o
 0001:00030110       ?keyExpansion@AesKeySched@@AEAAXAEBVAesSBox@@@Z 0000000140031110 f   AesKeySched-9268ef.o
 0001:000303a0       ?setKey@AesKeySched@@QEAAXAEBVCharBuf@@HAEBVAesSBox@@@Z 00000001400313a0 f   AesKeySched-9268ef.o
 0001:000304b0       ?lettersToBits@Base64@@QEAAHAEAVCharBuf@@DDDD@Z 00000001400314b0 f   Base64-b87ec7.o
 0001:00030710       ?codeToBytes@Base64@@QEAA_NAEAVCharBuf@@0@Z 0000000140031710 f   Base64-b87ec7.o
 0001:000307e0       ?bytesToCode@Base64@@QEAA_NAEAVCharBuf@@0@Z 00000001400317e0 f   Base64-b87ec7.o
 0001:00030b50       ?test@Base64@@QEAAXXZ      0000000140031b50 f   Base64-b87ec7.o
 0001:00030e90       ?filterCharSet@Base64@@QEAAXAEAVCharBuf@@0@Z 0000000140031e90 f   Base64-b87ec7.o
 0001:00030f70       ?setupBoolAlpha@Base64@@QEAAXXZ 0000000140031f70 f   Base64-b87ec7.o
 0001:000310d0       ?greatestComDiv@Euclid@@SAXAEBVInteger@@0AEAV2@AEAVIntegerMath@@@Z 00000001400320d0 f   Euclid-679c58.o
 0001:00031350       ?multInverse@Euclid@@SA_NAEBVInteger@@0AEAV2@1AEAVIntegerMath@@@Z 0000000140032350 f   Euclid-679c58.o
 0001:00031b50       ?makeAPrime@Fermat@@SAXAEAVInteger@@HAEBVSPrimes@@AEAVMod@@AEAVIntegerMath@@@Z 0000000140032b50 f   Fermat-18eb95.o
 0001:00031c20       ?isPrime@Fermat@@SA_NAEAVInteger@@AEBVSPrimes@@AEAVMod@@AEAVIntegerMath@@@Z 0000000140032c20 f   Fermat-18eb95.o
 0001:00031dc0       ?isPrimeForOneValue@Fermat@@SA_NAEAVInteger@@_JAEAVMod@@AEAVIntegerMath@@@Z 0000000140032dc0 f   Fermat-18eb95.o
 0001:00031ed0       ?findIt@FindFacSm@@QEAA_JAEAVInteger@@_JAEBVSPrimes@@AEAVIntegerMath@@@Z 0000000140032ed0 f   FindFacSm-652bf9.o
 0001:000320e0       ?findSmall31@FindFacSm@@QEAA_JAEAVInteger@@_JAEAVIntegerMath@@@Z 00000001400330e0 f   FindFacSm-652bf9.o
 0001:000322c0       ?makeSmallAr13@FindFacSm@@QEAAXXZ 00000001400332c0 f   FindFacSm-652bf9.o
 0001:000323f0       ?makeBigAr19@FindFacSm@@QEAAXXZ 00000001400333f0 f   FindFacSm-652bf9.o
 0001:00032570       ?makeIt@MakePrime@@QEAAXAEAVInteger@@HAEBVSPrimes@@AEAVMod@@AEAVIntegerMath@@@Z 0000000140033570 f   MakePrime-ea48ce.o
 0001:00032670       ?removeSmallP@MakePrime@@QEAAXAEAVInteger@@_JAEBVSPrimes@@AEAVIntegerMath@@@Z 0000000140033670 f   MakePrime-ea48ce.o
 0001:000328f0       ?isOnCurve@MCurve@@QEAA_NAEBVMPoint@@AEAVMod@@AEAVIntegerMath@@@Z 00000001400338f0 f   MCurve-8762b8.o
 0001:00032b30       ?scalarMult@MCurve@@QEAA_NAEAVMPoint@@AEBVInteger@@AEAV3@AEAVIntegerMath@@AEAVMod@@@Z 0000000140033b30 f   MCurve-8762b8.o
 0001:00033010       ?cSwap1@MCurve@@QEAAXHAEAVInteger@@0@Z 0000000140034010 f   MCurve-8762b8.o
 0001:000330a0       ?montLadder1@MCurve@@QEAA_NAEAVInteger@@AEBV2@1AEAVIntegerMath@@AEAVMod@@@Z 00000001400340a0 f   MCurve-8762b8.o
 0001:00033da0       ?makeRandExponentK@MCurve@@QEAAXAEAVInteger@@AEAVCharBuf@@@Z 0000000140034da0 f   MCurve-8762b8.o
 0001:00033e80       ?makeRandom32Bytes@MCurve@@QEAAXAEAVByteArray@@@Z 0000000140034e80 f   MCurve-8762b8.o
 0001:00033ff0       ?clampK@MCurve@@QEAAXAEAVByteArray@@@Z 0000000140034ff0 f   MCurve-8762b8.o
 0001:00034050       ?cArrayToInt@MCurve@@QEAAXAEBVByteArray@@AEAVInteger@@@Z 0000000140035050 f   MCurve-8762b8.o
 0001:00034110       ?makeThePrime@MCurve@@QEAAXAEAVIntegerMath@@@Z 0000000140035110 f   MCurve-8762b8.o
 0001:00034430       ?clampU@MCurve@@QEAAXAEAVByteArray@@@Z 0000000140035430 f   MCurve-8762b8.o
 0001:00034470       ?uCoordTo32Bytes@MCurve@@QEBAXAEBVInteger@@AEAVByteArray@@AEAVMod@@AEAVIntegerMath@@@Z 0000000140035470 f   MCurve-8762b8.o
 0001:000346f0       ?isConjugate@MPoint@@QEBA_NAEBV1@AEBVInteger@@AEAVMod@@AEAVIntegerMath@@@Z 00000001400356f0 f   MPoint-2c5fa6.o
 0001:00034810       ?add@MPoint@@QEAA_NAEBV1@0AEBVInteger@@AEAV2@AEAVMod@@AEAVIntegerMath@@@Z 0000000140035810 f   MPoint-2c5fa6.o
 0001:000350f0       ?doubleP@MPoint@@QEAA_NAEBV1@AEBVInteger@@AEAV2@AEAVMod@@AEAVIntegerMath@@@Z 00000001400360f0 f   MPoint-2c5fa6.o
 0001:00035940       ??0QuadRes@@QEAA@XZ        0000000140036940 f   QuadRes-00d8f5.o
 0001:00035a30       ??0QuadRes@@QEAA@AEBV0@@Z  0000000140036a30 f   QuadRes-00d8f5.o
 0001:00035b30       ??1QuadRes@@QEAA@XZ        0000000140036b30 f   QuadRes-00d8f5.o
 0001:00035b90       ?init@QuadRes@@QEAAXAEBVSPrimes@@@Z 0000000140036b90 f   QuadRes-00d8f5.o
 0001:00035d90       ?isSmallQR@QuadRes@@SA_NH@Z 0000000140036d90 f   QuadRes-00d8f5.o
 0001:00035e70       ?isQR17@QuadRes@@SA_NH@Z   0000000140036e70 f   QuadRes-00d8f5.o
 0001:00035ed0       ?isQR19@QuadRes@@SA_NH@Z   0000000140036ed0 f   QuadRes-00d8f5.o
 0001:00035f40       ?isQR23@QuadRes@@SA_NH@Z   0000000140036f40 f   QuadRes-00d8f5.o
 0001:00035fc0       ?isQR29@QuadRes@@SA_NH@Z   0000000140036fc0 f   QuadRes-00d8f5.o
 0001:00036050       ?makeRandomBytes@Randomish@@SAXAEAVCharBuf@@H@Z 0000000140037050 f   Randomish-7b9f42.o
 0001:00036120       ??R?$mersenne_twister@I$0CA@$0CHA@$0BIN@$0BP@$0JJAILANP@$0L@$06$0JNCMFGIA@$0P@$0OPMGAAAA@$0BC@@std@@QEAAIXZ 0000000140037120 f i Randomish-7b9f42.o
 0001:00036450       ?makeKeys@Rsa@@QEAA_NAEBVInteger@@0AEAVIntegerMath@@AEAVMod@@AEAVSPrimes@@AEAVFindFacSm@@AEBVMultInv@@AEBVCrtMath@@AEAVGarnerCrt@@@Z 0000000140037450 f   Rsa-b22f78.o
 0001:000369a0       ?isGoodPair@Rsa@@QEAA_NAEAVIntegerMath@@@Z 00000001400379a0 f   Rsa-b22f78.o
 0001:00036aa0       ?setPrivateKeys@Rsa@@QEAA_NAEAVIntegerMath@@@Z 0000000140037aa0 f   Rsa-b22f78.o
 0001:00036d60       ?testEncryption@Rsa@@QEAA_NAEAVMod@@AEAVIntegerMath@@AEBVSPrimes@@AEBVMultInv@@AEBVCrtMath@@@Z 0000000140037d60 f   Rsa-b22f78.o
 0001:000371b0       ?test@RsaTest@@QEAAXAEAVRsa@@AEAVMod@@AEAVSPrimes@@AEAVIntegerMath@@AEAVFindFacSm@@AEBVMultInv@@AEBVCrtMath@@AEAVGarnerCrt@@@Z 00000001400381b0 f   RsaTest-551fee.o
 0001:000374f0       ??1MakePrime@@QEAA@XZ      00000001400384f0 f i RsaTest-551fee.o
 0001:00037520       ??0FindFacSm@@QEAA@XZ      0000000140038520 f i RsaTest-551fee.o
 0001:00037600       ?appendPadding@Sha256@@AEAAXAEAVCharBuf@@@Z 0000000140038600 f   Sha256-a07749.o
 0001:000376c0       ?init@Sha256@@AEAAXXZ      00000001400386c0 f   Sha256-a07749.o
 0001:00037830       ?processAllBlocks@Sha256@@QEAAXAEBVCharBuf@@@Z 0000000140038830 f   Sha256-a07749.o
 0001:00037970       ?processMessageBlock@Sha256@@QEAAXAEBVCharBuf@@H@Z 0000000140038970 f   Sha256-a07749.o
 0001:00037d20       ?showHash@Sha256@@QEAAXXZ  0000000140038d20 f   Sha256-a07749.o
 0001:00037ea0       ?getHash@Sha256@@QEAAXAEAVCharBuf@@@Z 0000000140038ea0 f   Sha256-a07749.o
 0001:00037fd0       ?hMac@Sha256@@QEAAXAEAVCharBuf@@AEBV2@1@Z 0000000140038fd0 f   Sha256-a07749.o
 0001:00038530       ?getFirstFactor@SPrimes@@QEBAH_J@Z 0000000140039530 f   SPrimes-ef540f.o
 0001:000386f0       ?makeArray@SPrimes@@AEAAXXZ 00000001400396f0 f   SPrimes-ef540f.o
 0001:00038a70       catchFpeSignal             0000000140039a70 f   Signals-d659c2.o
 0001:00038ab0       catchControlCSignal        0000000140039ab0 f   Signals-d659c2.o
 0001:00038b00       catchIllegalOpSignal       0000000140039b00 f   Signals-d659c2.o
 0001:00038b40       catchBadMemSignal          0000000140039b40 f   Signals-d659c2.o
 0001:00038b80       ?setupFpeSignal@Signals@@SAXXZ 0000000140039b80 f   Signals-d659c2.o
 0001:00038bc0       ?getControlCSignal@Signals@@SA_NXZ 0000000140039bc0 f   Signals-d659c2.o
 0001:00038bd0       ?setupControlCSignal@Signals@@SAXXZ 0000000140039bd0 f   Signals-d659c2.o
 0001:00038c20       ?setupIllegalOpSignal@Signals@@SAXXZ 0000000140039c20 f   Signals-d659c2.o
 0001:00038c60       ?setupBadMemSignal@Signals@@SAXXZ 0000000140039c60 f   Signals-d659c2.o
 0001:00038ca0       ??0TimeApi@@QEAA@XZ        0000000140039ca0 f   TimeApiWin-c4ae35.o
 0001:00038d40       ?setNow@TimeApi@@QEAAXXZ   0000000140039d40 f   TimeApiWin-c4ae35.o
 0001:00038dd0       ?getSecondsNow@TimeApi@@SA_JXZ 0000000140039dd0 f   TimeApiWin-c4ae35.o
 0001:00038df0       ?diffSec@TimeApi@@QEAA_JAEAV1@@Z 0000000140039df0 f   TimeApiWin-c4ae35.o
 0001:00038e00       ?timeCBuf@TimeApi@@QEAAXAEAVCharBuf@@@Z 0000000140039e00 f   TimeApiWin-c4ae35.o
 0001:00039180       inet_ntop                  000000014003a180 f   Ws2_32:WS2_32.dll
 0001:000391a0       __chkstk                   000000014003a1a0 f   libcmt:chkstk.obj
 0001:000391a0       _alloca_probe              000000014003a1a0 f   libcmt:chkstk.obj
 0001:000391f0       ??3@YAXPEAX_K@Z            000000014003a1f0 f   libcmt:delete_scalar_size.obj
 0001:000391f0       ??_V@YAXPEAX@Z             000000014003a1f0 f   libcmt:delete_array.obj
 0001:000391f8       ??_U@YAPEAX_K@Z            000000014003a1f8 f   libcmt:new_array.obj
 0001:00039200       ??_Etype_info@@UEAAPEAXI@Z 000000014003a200 f i libcmt:std_type_info_static.obj
 0001:00039200       ??_Gtype_info@@UEAAPEAXI@Z 000000014003a200 f i libcmt:std_type_info_static.obj
 0001:0003922c       ??2@YAPEAX_K@Z             000000014003a22c f   libcmt:new_scalar.obj
 0001:00039268       ??3@YAXPEAX@Z              000000014003a268 f   libcmt:delete_scalar.obj
 0001:00039270       _Init_thread_footer        000000014003a270 f   libcmt:thread_safe_statics.obj
 0001:000392dc       _Init_thread_header        000000014003a2dc f   libcmt:thread_safe_statics.obj
 0001:00039354       __scrt_acquire_startup_lock 000000014003a354 f   libcmt:utility.obj
 0001:00039390       __scrt_initialize_crt      000000014003a390 f   libcmt:utility.obj
 0001:000393cc       __scrt_initialize_onexit_tables 000000014003a3cc f   libcmt:utility.obj
 0001:00039458       __scrt_is_nonwritable_in_current_image 000000014003a458 f   libcmt:utility.obj
 0001:000394f0       __scrt_release_startup_lock 000000014003a4f0 f   libcmt:utility.obj
 0001:00039514       __scrt_uninitialize_crt    000000014003a514 f   libcmt:utility.obj
 0001:00039540       _onexit                    000000014003a540 f   libcmt:utility.obj
 0001:0003957c       atexit                     000000014003a57c f   libcmt:utility.obj
 0001:000397f4       mainCRTStartup             000000014003a7f4 f   libcmt:exe_main.obj
 0001:00039808       ??0bad_alloc@std@@QEAA@XZ  000000014003a808 f i libcmt:throw_bad_alloc.obj
 0001:00039828       ??0bad_array_new_length@std@@QEAA@XZ 000000014003a828 f i libcmt:throw_bad_alloc.obj
 0001:00039848       ??1bad_alloc@std@@UEAA@XZ  000000014003a848 f i libcmt:throw_bad_alloc.obj
 0001:00039848       ??1bad_exception@std@@UEAA@XZ 000000014003a848 f i libvcruntime:frame.obj
 0001:00039848       ??1length_error@std@@UEAA@XZ 000000014003a848 f i libcpmt:xthrow.obj
 0001:00039848       ??1out_of_range@std@@UEAA@XZ 000000014003a848 f i libcpmt:xthrow.obj
 0001:00039848       ??1runtime_error@std@@UEAA@XZ 000000014003a848 f i libcpmt:xthrow.obj
 0001:0003985c       ?__scrt_throw_std_bad_alloc@@YAXXZ 000000014003a85c f   libcmt:throw_bad_alloc.obj
 0001:0003987c       ?__scrt_throw_std_bad_array_new_length@@YAXXZ 000000014003a87c f   libcmt:throw_bad_alloc.obj
 0001:0003989c       __isa_available_init       000000014003a89c f   libcmt:cpu_disp.obj
 0001:00039a48       __scrt_is_ucrt_dll_in_use  000000014003aa48 f   libcmt:ucrt_detection.obj
 0001:00039a54       __crt_debugger_hook        000000014003aa54 f   libcmt:utility_desktop.obj
 0001:00039a5c       __scrt_fastfail            000000014003aa5c f   libcmt:utility_desktop.obj
 0001:00039ba4       __scrt_initialize_mta      000000014003aba4 f   libcmt:utility_desktop.obj
 0001:00039bac       __scrt_exe_initialize_mta  000000014003abac f   libcmt:utility_desktop.obj
 0001:00039bac       __scrt_initialize_winrt    000000014003abac f   libcmt:utility_desktop.obj
 0001:00039bac       __scrt_stub_for_initialize_mta 000000014003abac f   libcmt:utility_desktop.obj
 0001:00039bac       _get_startup_commit_mode   000000014003abac f   libcmt:commit_mode.obj
 0001:00039bac       _get_startup_new_mode      000000014003abac f   libcmt:new_mode.obj
 0001:00039bac       _get_startup_thread_locale_mode 000000014003abac f   libcmt:thread_locale.obj
 0001:00039bac       _matherr                   000000014003abac f   libcmt:matherr.obj
 0001:00039bb0       __scrt_is_managed_app      000000014003abb0 f   libcmt:utility_desktop.obj
 0001:00039c04       __scrt_set_unhandled_exception_filter 000000014003ac04 f   libcmt:utility_desktop.obj
 0001:00039c14       __scrt_unhandled_exception_filter 000000014003ac14 f   libcmt:utility_desktop.obj
 0001:00039c70       _guard_check_icall_nop     000000014003ac70 f i libcmt:guard_support.obj
 0001:00039c70       _initialize_denormal_control 000000014003ac70 f i libcmt:denormal_control.obj
 0001:00039c70       _initialize_invalid_parameter_handler 000000014003ac70 f i libcmt:invalid_parameter_handler.obj
 0001:00039c74       __security_init_cookie     000000014003ac74 f   libcmt:gs_support.obj
 0001:00039d20       _get_startup_file_mode     000000014003ad20 f   libcmt:file_mode.obj
 0001:00039d28       ?__scrt_initialize_type_info@@YAXXZ 000000014003ad28 f   libcmt:tncleanup.obj
 0001:00039d38       __local_stdio_scanf_options 000000014003ad38 f i libcmt:default_local_stdio_options.obj
 0001:00039d40       __scrt_initialize_default_local_stdio_options 000000014003ad40 f   libcmt:default_local_stdio_options.obj
 0001:00039d5c       __scrt_is_user_matherr_present 000000014003ad5c f   libcmt:matherr_detection.obj
 0001:00039d68       __scrt_get_dyn_tls_init_callback 000000014003ad68 f   libcmt:dyn_tls_init.obj
 0001:00039d70       __scrt_get_dyn_tls_dtor_callback 000000014003ad70 f   libcmt:dyn_tls_dtor.obj
 0001:00039d78       _RTC_Initialize            000000014003ad78 f   libcmt:initsect.obj
 0001:00039db4       _RTC_Terminate             000000014003adb4 f   libcmt:initsect.obj
 0001:00039df0       ?_Addstd@ios_base@std@@SAXPEAV12@@Z 000000014003adf0 f   libcpmt:ios.obj
 0001:00039e68       ?_Ios_base_dtor@ios_base@std@@CAXPEAV12@@Z 000000014003ae68 f   libcpmt:ios.obj
 0001:00039ee0       ?_Tidy@ios_base@std@@AEAAXXZ 000000014003aee0 f i libcpmt:ios.obj
 0001:00039f60       ??0_Locimp@locale@std@@AEAA@_N@Z 000000014003af60 f i libcpmt:locale0.obj
 0001:00039fe8       ??4?$_Yarn@D@std@@QEAAAEAV01@PEBD@Z 000000014003afe8 f i libcpmt:locale0.obj
 0001:0003a060       ??_E_Locimp@locale@std@@MEAAPEAXI@Z 000000014003b060 f i libcpmt:locale0.obj
 0001:0003a060       ??_G_Locimp@locale@std@@MEAAPEAXI@Z 000000014003b060 f i libcpmt:locale0.obj
 0001:0003a0bc       ?_Facet_Register@std@@YAXPEAV_Facet_base@1@@Z 000000014003b0bc f   libcpmt:locale0.obj
 0001:0003a0f4       ?_Getgloballocale@locale@std@@CAPEAV_Locimp@12@XZ 000000014003b0f4 f   libcpmt:locale0.obj
 0001:0003a0fc       ?_Init@locale@std@@CAPEAV_Locimp@12@_N@Z 000000014003b0fc f   libcpmt:locale0.obj
 0001:0003a1f0       ?_Locimp_dtor@_Locimp@locale@std@@CAXPEAV123@@Z 000000014003b1f0 f   libcpmt:locale0.obj
 0001:0003a26c       ?_Locinfo_ctor@_Locinfo@std@@SAXPEAV12@PEBD@Z 000000014003b26c f   libcpmt:locale0.obj
 0001:0003a2d8       ?_Locinfo_dtor@_Locinfo@std@@SAXPEAV12@@Z 000000014003b2d8 f   libcpmt:locale0.obj
 0001:0003a2f4       ?_New_Locimp@_Locimp@locale@std@@CAPEAV123@_N@Z 000000014003b2f4 f   libcpmt:locale0.obj
 0001:0003a324       ?_Setgloballocale@locale@std@@CAXPEAX@Z 000000014003b324 f   libcpmt:locale0.obj
 0001:0003a358       _Deletegloballocale        000000014003b358 f   libcpmt:locale0.obj
 0001:0003a3c8       ?uncaught_exception@std@@YA_NXZ 000000014003b3c8 f   libcpmt:uncaught_exception.obj
 0001:0003a3d0       ??0length_error@std@@QEAA@AEBV01@@Z 000000014003b3d0 f i libcpmt:xthrow.obj
 0001:0003a40c       ??0length_error@std@@QEAA@PEBD@Z 000000014003b40c f i libcpmt:xthrow.obj
 0001:0003a454       ??0logic_error@std@@QEAA@AEBV01@@Z 000000014003b454 f i libcpmt:xthrow.obj
 0001:0003a490       ??0out_of_range@std@@QEAA@AEBV01@@Z 000000014003b490 f i libcpmt:xthrow.obj
 0001:0003a4cc       ??0out_of_range@std@@QEAA@PEBD@Z 000000014003b4cc f i libcpmt:xthrow.obj
 0001:0003a514       ??0runtime_error@std@@QEAA@PEBD@Z 000000014003b514 f i libcpmt:xthrow.obj
 0001:0003a55c       ??_Ebad_exception@std@@UEAAPEAXI@Z 000000014003b55c f i libvcruntime:frame.obj
 0001:0003a55c       ??_Elength_error@std@@UEAAPEAXI@Z 000000014003b55c f i libcpmt:xthrow.obj
 0001:0003a55c       ??_Elogic_error@std@@UEAAPEAXI@Z 000000014003b55c f i libcpmt:xthrow.obj
 0001:0003a55c       ??_Eout_of_range@std@@UEAAPEAXI@Z 000000014003b55c f i libcpmt:xthrow.obj
 0001:0003a55c       ??_Gbad_exception@std@@UEAAPEAXI@Z 000000014003b55c f i libvcruntime:frame.obj
 0001:0003a55c       ??_Glength_error@std@@UEAAPEAXI@Z 000000014003b55c f i libcpmt:xthrow.obj
 0001:0003a55c       ??_Glogic_error@std@@UEAAPEAXI@Z 000000014003b55c f i libcpmt:xthrow.obj
 0001:0003a55c       ??_Gout_of_range@std@@UEAAPEAXI@Z 000000014003b55c f i libcpmt:xthrow.obj
 0001:0003a5a0       ?_Xlength_error@std@@YAXPEBD@Z 000000014003b5a0 f   libcpmt:xthrow.obj
 0001:0003a5c4       ?_Xout_of_range@std@@YAXPEBD@Z 000000014003b5c4 f   libcpmt:xthrow.obj
 0001:0003a5e8       ?_Xruntime_error@std@@YAXPEBD@Z 000000014003b5e8 f   libcpmt:xthrow.obj
 0001:0003a60c       ??0_Init_locks@std@@QEAA@XZ 000000014003b60c f   libcpmt:xlock.obj
 0001:0003a650       ??0_Lockit@std@@QEAA@H@Z   000000014003b650 f   libcpmt:xlock.obj
 0001:0003a68c       ??1_Init_locks@std@@QEAA@XZ 000000014003b68c f   libcpmt:xlock.obj
 0001:0003a6c8       ??1_Lockit@std@@QEAA@XZ    000000014003b6c8 f   libcpmt:xlock.obj
 0001:0003a6fc       ?_Fiopen@std@@YAPEAU_iobuf@@PEBDHH@Z 000000014003b6fc f   libcpmt:fiopen.obj
 0001:0003a7b4       ?_Syserror_map@std@@YAPEBDH@Z 000000014003b7b4 f   libcpmt:syserror.obj
 0001:0003a7dc       _Getctype                  000000014003b7dc f   libcpmt:_tolower.obj
 0001:0003a89c       _Tolower                   000000014003b89c f   libcpmt:_tolower.obj
 0001:0003a9d0       _Toupper                   000000014003b9d0 f   libcpmt:_toupper.obj
 0001:0003ab14       _Query_perf_counter        000000014003bb14 f   libcpmt:xtime.obj
 0001:0003ab30       _Query_perf_frequency      000000014003bb30 f   libcpmt:xtime.obj
 0001:0003ab5c       _Thrd_sleep_for            000000014003bb5c f   libcpmt:sharedmutex.obj
 0001:0003ab64       ?_Random_device@std@@YAIXZ 000000014003bb64 f   libcpmt:xrngdev.obj
 0001:0003ab8c       ?_Atexit@@YAXP6AXXZ@Z      000000014003bb8c f   libcpmt:iosptrs.obj
 0001:0003abc8       _Mtxdst                    000000014003bbc8 f   libcpmt:xmtx.obj
 0001:0003abd0       _Mtxinit                   000000014003bbd0 f   libcpmt:xmtx.obj
 0001:0003abe0       _Mtxlock                   000000014003bbe0 f   libcpmt:xmtx.obj
 0001:0003abe8       _Mtxunlock                 000000014003bbe8 f   libcpmt:xmtx.obj
 0001:0003abf0       __crtLCMapStringA          000000014003bbf0 f   libcpmt:StlLCMapStringA.obj
 0001:0003af50       ??$_CallSETranslator@V__FrameHandler3@@@@YAHPEAUEHExceptionRecord@@PEA_KPEAU_CONTEXT@@PEAU_xDISPATCHER_CONTEXT@@PEBU_s_FuncInfo@@K1H@Z 000000014003bf50 f i libvcruntime:risctrnsctrl.obj
 0001:0003afa4       ??$_CallSETranslator@V__FrameHandler4@@@@YAHPEAUEHExceptionRecord@@PEA_KPEAU_CONTEXT@@PEAU_xDISPATCHER_CONTEXT@@PEAUFuncInfo4@FH4@@K1H@Z 000000014003bfa4 f i libvcruntime:risctrnsctrl.obj
 0001:0003aff8       ?CatchTryBlock@__FrameHandler3@@SAPEBU_s_TryBlockMapEntry@@PEBU_s_FuncInfo@@H@Z 000000014003bff8 f   libvcruntime:risctrnsctrl.obj
 0001:0003b05c       ?DecompFuncInfo@FH4@@YA_JPEAEAEAUFuncInfo4@1@_KH_N@Z 000000014003c05c f i libvcruntime:risctrnsctrl.obj
 0001:0003b190       ?ExecutionInCatch@__FrameHandler3@@SA_NPEAU_xDISPATCHER_CONTEXT@@PEBU_s_FuncInfo@@@Z 000000014003c190 f   libvcruntime:risctrnsctrl.obj
 0001:0003b1bc       ?ExecutionInCatch@__FrameHandler4@@SA_NPEAU_xDISPATCHER_CONTEXT@@PEAUFuncInfo4@FH4@@@Z 000000014003c1bc f   libvcruntime:risctrnsctrl.obj
 0001:0003b1c4       ?FrameUnwindToEmptyState@__FrameHandler3@@SAXPEA_KPEAU_xDISPATCHER_CONTEXT@@PEBU_s_FuncInfo@@@Z 000000014003c1c4 f   libvcruntime:risctrnsctrl.obj
 0001:0003b228       ?FrameUnwindToEmptyState@__FrameHandler4@@SAXPEA_KPEAU_xDISPATCHER_CONTEXT@@PEAUFuncInfo4@FH4@@@Z 000000014003c228 f   libvcruntime:risctrnsctrl.obj
 0001:0003b25c       ?GetEstablisherFrame@__FrameHandler3@@SAPEA_KPEA_KPEAU_xDISPATCHER_CONTEXT@@PEBU_s_FuncInfo@@0@Z 000000014003c25c f   libvcruntime:risctrnsctrl.obj
 0001:0003b32c       ?GetEstablisherFrame@__FrameHandler4@@SAPEA_KPEA_KPEAU_xDISPATCHER_CONTEXT@@PEAUFuncInfo4@FH4@@0@Z 000000014003c32c f   libvcruntime:risctrnsctrl.obj
 0001:0003b350       ?GetRangeOfTrysToCheck@__FrameHandler3@@SA?AU?$pair@Viterator@TryBlockMap@__FrameHandler3@@V123@@std@@AEAVTryBlockMap@1@HPEAU_xDISPATCHER_CONTEXT@@PEBU_s_FuncInfo@@H@Z 000000014003c350 f   libvcruntime:risctrnsctrl.obj
 0001:0003b484       ?GetRangeOfTrysToCheck@__FrameHandler4@@SA?AU?$pair@Viterator@TryBlockMap4@FH4@@V123@@std@@AEAVTryBlockMap4@FH4@@HPEAU_xDISPATCHER_CONTEXT@@PEAUFuncInfo4@5@H@Z 000000014003c484 f   libvcruntime:risctrnsctrl.obj
 0001:0003b5f0       ?UnwindNestedFrames@__FrameHandler3@@SAXPEA_KPEAUEHExceptionRecord@@PEAU_CONTEXT@@0PEAXPEBU_s_FuncInfo@@HHPEBU_s_HandlerType@@PEAU_xDISPATCHER_CONTEXT@@E@Z 000000014003c5f0 f   libvcruntime:risctrnsctrl.obj
 0001:0003b6f4       ?UnwindNestedFrames@__FrameHandler4@@SAXPEA_KPEAUEHExceptionRecord@@PEAU_CONTEXT@@0PEAXPEAUFuncInfo4@FH4@@HHPEAUHandlerType4@5@PEAU_xDISPATCHER_CONTEXT@@E@Z 000000014003c6f4 f   libvcruntime:risctrnsctrl.obj
 0001:0003b814       ?setBuffer@TryBlockMap4@FH4@@QEAAXViterator@12@@Z 000000014003c814 f i libvcruntime:risctrnsctrl.obj
 0001:0003b9d8       _CreateFrameInfo           000000014003c9d8 f   libvcruntime:risctrnsctrl.obj
 0001:0003ba14       _FindAndUnlinkFrame        000000014003ca14 f   libvcruntime:risctrnsctrl.obj
 0001:0003ba68       _GetImageBase              000000014003ca68 f   libvcruntime:risctrnsctrl.obj
 0001:0003ba7c       _GetThrowImageBase         000000014003ca7c f   libvcruntime:risctrnsctrl.obj
 0001:0003ba90       _SetImageBase              000000014003ca90 f   libvcruntime:risctrnsctrl.obj
 0001:0003baa8       _SetThrowImageBase         000000014003caa8 f   libvcruntime:risctrnsctrl.obj
 0001:0003bac0       __CxxFrameHandler3         000000014003cac0 f   libvcruntime:risctrnsctrl.obj
 0001:0003bb48       __CxxFrameHandler4         000000014003cb48 f   libvcruntime:risctrnsctrl.obj
 0001:0003bc08       _CxxThrowException         000000014003cc08 f   libvcruntime:throw.obj
 0001:0003bcb0       __DestructExceptionObject  000000014003ccb0 f   libvcruntime:ehhelpers.obj
 0001:0003bd20       ?_CallMemberFunction0@@YAXQEAX0@Z 000000014003cd20 f i libvcruntime:ehhelpers.obj
 0001:0003bd24       _IsExceptionObjectToBeDestroyed 000000014003cd24 f   libvcruntime:ehhelpers.obj
 0001:0003bd54       __AdjustPointer            000000014003cd54 f   libvcruntime:ehhelpers.obj
 0001:0003bd78       __FrameUnwindFilter        000000014003cd78 f   libvcruntime:ehhelpers.obj
 0001:0003bde0       __current_exception        000000014003cde0 f   libvcruntime:ehhelpers.obj
 0001:0003bdf4       __current_exception_context 000000014003cdf4 f   libvcruntime:ehhelpers.obj
 0001:0003be08       __std_terminate            000000014003ce08 f   libvcruntime:ehhelpers.obj
 0001:0003be20       __std_exception_copy       000000014003ce20 f   libvcruntime:std_exception.obj
 0001:0003beb0       __std_exception_destroy    000000014003ceb0 f   libvcruntime:std_exception.obj
 0001:0003bed8       _get_purecall_handler      000000014003ced8 f   libvcruntime:purevirt.obj
 0001:0003bee4       _purecall                  000000014003cee4 f   libvcruntime:purevirt.obj
 0001:0003bf00       __vcrt_initialize          000000014003cf00 f   libvcruntime:initialization.obj
 0001:0003bf28       __vcrt_uninitialize        000000014003cf28 f   libvcruntime:initialization.obj
 0001:0003bf44       __C_specific_handler       000000014003cf44 f   libvcruntime:riscchandler.obj
 0001:0003c15c       __std_type_info_compare    000000014003d15c f   libvcruntime:std_type_info.obj
 0001:0003c184       __uncaught_exception       000000014003d184 f   libvcruntime:uncaught_exception.obj
 0001:0003c1b0       __vcrt_freefls             000000014003d1b0 f   libvcruntime:per_thread_data.obj
 0001:0003c1d0       __vcrt_getptd              000000014003d1d0 f   libvcruntime:per_thread_data.obj
 0001:0003c1ec       __vcrt_getptd_noexit       000000014003d1ec f   libvcruntime:per_thread_data.obj
 0001:0003c2ac       __vcrt_getptd_noinit       000000014003d2ac f   libvcruntime:per_thread_data.obj
 0001:0003c2fc       __vcrt_initialize_ptd      000000014003d2fc f   libvcruntime:per_thread_data.obj
 0001:0003c344       __vcrt_uninitialize_ptd    000000014003d344 f   libvcruntime:per_thread_data.obj
 0001:0003c368       ?GetCurrentState@__FrameHandler3@@SAHPEA_KPEAU_xDISPATCHER_CONTEXT@@PEBU_s_FuncInfo@@@Z 000000014003d368 f   libvcruntime:ehstate.obj
 0001:0003c390       ?GetUnwindTryBlock@__FrameHandler3@@SAHPEA_KPEAU_xDISPATCHER_CONTEXT@@PEBU_s_FuncInfo@@@Z 000000014003d390 f   libvcruntime:ehstate.obj
 0001:0003c3bc       ?SetState@__FrameHandler3@@SAXPEA_KPEBU_s_FuncInfo@@H@Z 000000014003d3bc f   libvcruntime:ehstate.obj
 0001:0003c3c8       ?SetUnwindTryBlock@__FrameHandler3@@SAXPEA_KPEAU_xDISPATCHER_CONTEXT@@PEBU_s_FuncInfo@@H@Z 000000014003d3c8 f   libvcruntime:ehstate.obj
 0001:0003c404       ?StateFromControlPc@__FrameHandler3@@SAHPEBU_s_FuncInfo@@PEAU_xDISPATCHER_CONTEXT@@@Z 000000014003d404 f   libvcruntime:ehstate.obj
 0001:0003c40c       ?StateFromControlPc@__FrameHandler4@@SAHPEAUFuncInfo4@FH4@@PEAU_xDISPATCHER_CONTEXT@@@Z 000000014003d40c f   libvcruntime:ehstate.obj
 0001:0003c414       ?StateFromIp@__FrameHandler3@@SAHPEBU_s_FuncInfo@@PEAU_xDISPATCHER_CONTEXT@@_K@Z 000000014003d414 f   libvcruntime:ehstate.obj
 0001:0003c47c       ?StateFromIp@__FrameHandler4@@SAHPEAUFuncInfo4@FH4@@PEAU_xDISPATCHER_CONTEXT@@_K@Z 000000014003d47c f   libvcruntime:ehstate.obj
 0001:0003dbd4       ??$TypeMatchHelper@V__FrameHandler3@@@@YAHPEBU_s_HandlerType@@PEBU_s_CatchableType@@PEBU_s_ThrowInfo@@@Z 000000014003ebd4 f i libvcruntime:frame.obj
 0001:0003dd14       ??$TypeMatchHelper@V__FrameHandler4@@@@YAHPEAUHandlerType4@FH4@@PEBU_s_CatchableType@@PEBU_s_ThrowInfo@@@Z 000000014003ed14 f i libvcruntime:frame.obj
 0001:0003de60       ??$__InternalCxxFrameHandler@V__FrameHandler3@@@@YA?AW4_EXCEPTION_DISPOSITION@@PEAUEHExceptionRecord@@PEA_KPEAU_CONTEXT@@PEAU_xDISPATCHER_CONTEXT@@PEBU_s_FuncInfo@@H1E@Z 000000014003ee60 f i libvcruntime:frame.obj
 0001:0003e098       ??$__InternalCxxFrameHandler@V__FrameHandler4@@@@YA?AW4_EXCEPTION_DISPOSITION@@PEAUEHExceptionRecord@@PEA_KPEAU_CONTEXT@@PEAU_xDISPATCHER_CONTEXT@@PEAUFuncInfo4@FH4@@H1E@Z 000000014003f098 f i libvcruntime:frame.obj
 0001:0003e32c       ??$__InternalCxxFrameHandlerWrapper@V__FrameHandler3@@@@YA?AW4_EXCEPTION_DISPOSITION@@PEAUEHExceptionRecord@@PEA_KPEAU_CONTEXT@@PEAU_xDISPATCHER_CONTEXT@@PEBU_s_FuncInfo@@H1E@Z 000000014003f32c f i libvcruntime:frame.obj
 0001:0003e334       ??$__InternalCxxFrameHandlerWrapper@V__FrameHandler4@@@@YA?AW4_EXCEPTION_DISPOSITION@@PEAUEHExceptionRecord@@PEA_KPEAU_CONTEXT@@PEAU_xDISPATCHER_CONTEXT@@PEAUFuncInfo4@FH4@@H1E@Z 000000014003f334 f i libvcruntime:frame.obj
 0001:0003e380       ??0HandlerMap4@FH4@@QEAA@PEBUTryBlockMapEntry4@1@_KH@Z 000000014003f380 f i libvcruntime:frame.obj
 0001:0003e404       ??0TryBlockMap4@FH4@@QEAA@PEBUFuncInfo4@1@_K@Z 000000014003f404 f i libvcruntime:frame.obj
 0001:0003e4e8       ??0bad_exception@std@@QEAA@AEBV01@@Z 000000014003f4e8 f i libvcruntime:frame.obj
 0001:0003e524       ??0bad_exception@std@@QEAA@XZ 000000014003f524 f i libvcruntime:frame.obj
 0001:0003e544       ?CxxCallCatchBlock@__FrameHandler3@@SAPEAXPEAU_EXCEPTION_RECORD@@@Z 000000014003f544 f   libvcruntime:frame.obj
 0001:0003e730       ?CxxCallCatchBlock@__FrameHandler4@@SAPEAXPEAU_EXCEPTION_RECORD@@@Z 000000014003f730 f   libvcruntime:frame.obj
 0001:0003e980       ?DecompHandler@HandlerMap4@FH4@@AEAAXXZ 000000014003f980 f i libvcruntime:frame.obj
 0001:0003ebc8       ?FrameUnwindToState@__FrameHandler3@@SAXPEA_KPEAU_xDISPATCHER_CONTEXT@@PEBU_s_FuncInfo@@H@Z 000000014003fbc8 f   libvcruntime:frame.obj
 0001:0003ed54       ?FrameUnwindToState@__FrameHandler4@@SAXPEA_KPEAU_xDISPATCHER_CONTEXT@@PEAUFuncInfo4@FH4@@H@Z 000000014003fd54 f   libvcruntime:frame.obj
 0001:0003f05c       ?GetHandlerSearchState@__FrameHandler3@@SAHPEA_KPEAU_xDISPATCHER_CONTEXT@@PEBU_s_FuncInfo@@@Z 000000014004005c f i libvcruntime:frame.obj
 0001:0003f26c       ?ReadEntry@UWMap4@FH4@@AEAAXPEAPEAE@Z 000000014004026c f i libvcruntime:frame.obj
 0001:0003f308       ?_CallMemberFunction1@@YAXQEAX00@Z 0000000140040308 f i libvcruntime:frame.obj
 0001:0003f314       ?_CallMemberFunction2@@YAXQEAX00H@Z 0000000140040314 f i libvcruntime:frame.obj
 0001:0003f324       ?getStartStop@UWMap4@FH4@@QEAAXHHAEAViterator@12@0@Z 0000000140040324 f i libvcruntime:frame.obj
 0001:0003f3f4       ?getStateFromIterators@UWMap4@FH4@@SAHAEBViterator@12@H0H0@Z 00000001400403f4 f i libvcruntime:frame.obj
 0001:0003f4a4       __vcrt_initialize_locks    00000001400404a4 f   libvcruntime:locks.obj
 0001:0003f4ec       __vcrt_uninitialize_locks  00000001400404ec f   libvcruntime:locks.obj
 0001:0003f560       _NLG_Notify                0000000140040560 f   libvcruntime:notify.obj
 0001:0003f580       __NLG_Dispatch2            0000000140040580 f   libvcruntime:notify.obj
 0001:0003f590       __NLG_Return2              0000000140040590 f   libvcruntime:notify.obj
 0001:0003f594       __except_validate_context_record 0000000140040594 f   libvcruntime:jbcxrval.obj
 0001:0003f71c       __vcrt_FlsAlloc            000000014004071c f   libvcruntime:winapi_downlevel.obj
 0001:0003f764       __vcrt_FlsFree             0000000140040764 f   libvcruntime:winapi_downlevel.obj
 0001:0003f7ac       __vcrt_FlsGetValue         00000001400407ac f   libvcruntime:winapi_downlevel.obj
 0001:0003f7f4       __vcrt_FlsSetValue         00000001400407f4 f   libvcruntime:winapi_downlevel.obj
 0001:0003f848       __vcrt_InitializeCriticalSectionEx 0000000140040848 f   libvcruntime:winapi_downlevel.obj
 0001:0003f8f0       _CallSettingFrame          00000001400408f0 f   libvcruntime:handlers.obj
 0001:0003f930       _CallSettingFrame_LookupContinuationIndex 0000000140040930 f   libvcruntime:handlers.obj
 0001:0003f960       _CallSettingFrame_NotifyContinuationAddr 0000000140040960 f   libvcruntime:handlers.obj
 0001:0003f990       _CallSettingFrameEncoded   0000000140040990 f   libvcruntime:handlers.obj
 0001:0003f9f0       memcpy_avx_ermsb_Intel     00000001400409f0 f   libvcruntime:memcpy_avx_ermsb_aligned.obj
 0001:0003fe20       memcpy_avx_ermsb_amd       0000000140040e20 f   libvcruntime:memcpy_avx_ermsb_aligned_amd.obj
 0001:00040250       memcpy_sse2_ermsb_Intel    0000000140041250 f   libvcruntime:memcpy_sse2_ermsb_aligned.obj
 0001:00040500       memcpy_sse2_ermsb_amd      0000000140041500 f   libvcruntime:memcpy_sse2_ermsb_aligned_amd.obj
 0001:000407b0       memcpy_repmovs_Intel       00000001400417b0 f   libvcruntime:memcpy_repmovs.obj
 0001:000407d0       memcpy_CopyDown_Intel      00000001400417d0 f   libvcruntime:memcpy_CopyDown.obj
 0001:000408c0       memcpy_repmovs_amd         00000001400418c0 f   libvcruntime:memcpy_repmovs_amd.obj
 0001:000408e0       memcpy_CopyDown_amd        00000001400418e0 f   libvcruntime:memcpy_CopyDown_amd.obj
 0001:00040a80       ?get_raw_ptd@__crt_cached_ptd_host@@QEAAPEAU__acrt_ptd@@XZ 0000000140041a80 f i libucrt:fwrite.obj
 0001:00040ae8       _fwrite_internal           0000000140041ae8 f   libucrt:fwrite.obj
 0001:00040b84       _fwrite_nolock_internal    0000000140041b84 f   libucrt:fwrite.obj
 0001:00040d98       fwrite                     0000000140041d98 f   libucrt:fwrite.obj
 0001:00040f60       fclose                     0000000140041f60 f   libucrt:fclose.obj
 0001:00040ff8       __acrt_initialize_stdio    0000000140041ff8 f   libucrt:_file.obj
 0001:00041118       __acrt_iob_func            0000000140042118 f   libucrt:_file.obj
 0001:0004112c       __acrt_uninitialize_stdio  000000014004212c f   libucrt:_file.obj
 0001:00041188       _get_stream_buffer_pointers 0000000140042188 f   libucrt:_file.obj
 0001:000411d0       _lock_file                 00000001400421d0 f   libucrt:_file.obj
 0001:000411dc       _unlock_file               00000001400421dc f   libucrt:_file.obj
 0001:00041350       _fputc_nolock_internal     0000000140042350 f   libucrt:fputc.obj
 0001:00041368       _fputchar                  0000000140042368 f   libucrt:fputc.obj
 0001:0004138c       fputc                      000000014004238c f   libucrt:fputc.obj
 0001:00041424       putchar                    0000000140042424 f   libucrt:fputc.obj
 0001:0004142c       _ungetc_nolock             000000014004242c f   libucrt:ungetc.obj
 0001:0004154c       ungetc                     000000014004254c f   libucrt:ungetc.obj
 0001:000415a4       _fgetc_nolock              00000001400425a4 f   libucrt:fgetc.obj
 0001:000415e8       fgetc                      00000001400425e8 f   libucrt:fgetc.obj
 0001:000416fc       ?get_raw_ptd_noexit@__crt_cached_ptd_host@@QEAAPEAU__acrt_ptd@@XZ 00000001400426fc f i libucrt:invalid_parameter.obj
 0001:00041768       ?value@?$dual_state_global@P6AXPEB_W00I_K@Z@__crt_state_management@@QEAAAEAP6AXPEB_W00I_K@ZAEAV__crt_cached_ptd_host@@@Z 0000000140042768 f i libucrt:invalid_parameter.obj
 0001:000417b4       __acrt_call_reportfault    00000001400427b4 f   libucrt:invalid_parameter.obj
 0001:00041910       __acrt_initialize_invalid_parameter_handler 0000000140042910 f   libucrt:invalid_parameter.obj
 0001:00041918       _invalid_parameter         0000000140042918 f   libucrt:invalid_parameter.obj
 0001:000419b4       _invalid_parameter_internal 00000001400429b4 f   libucrt:invalid_parameter.obj
 0001:00041a80       _invalid_parameter_noinfo  0000000140042a80 f   libucrt:invalid_parameter.obj
 0001:00041aa0       _invalid_parameter_noinfo_noreturn 0000000140042aa0 f   libucrt:invalid_parameter.obj
 0001:00041ad0       _invoke_watson             0000000140042ad0 f   libucrt:invalid_parameter.obj
 0001:00041b18       _fread_nolock_s            0000000140042b18 f   libucrt:fread.obj
 0001:00041d78       fread                      0000000140042d78 f   libucrt:fread.obj
 0001:00041d98       fread_s                    0000000140042d98 f   libucrt:fread.obj
 0001:000420b0       _fseeki64                  00000001400430b0 f   libucrt:fseek.obj
 0001:00042148       fseek                      0000000140043148 f   libucrt:fseek.obj
 0001:000421e4       fgetpos                    00000001400431e4 f   libucrt:fgetpos.obj
 0001:00042230       fsetpos                    0000000140043230 f   libucrt:fsetpos.obj
 0001:00042390       setvbuf                    0000000140043390 f   libucrt:setvbuf.obj
 0001:000426e8       __acrt_stdio_flush_nolock  00000001400436e8 f   libucrt:fflush.obj
 0001:00042774       _fflush_nolock             0000000140043774 f   libucrt:fflush.obj
 0001:00042848       _flushall                  0000000140043848 f   libucrt:fflush.obj
 0001:00042850       fflush                     0000000140043850 f   libucrt:fflush.obj
 0001:000428b8       free                       00000001400438b8 f   libucrt:free.obj
 0001:000428e0       strlen                     00000001400438e0 f   libucrt:strlen.obj
 0001:000429c8       ??$ensure_buffer_is_big_enough@D@formatting_buffer@__crt_stdio_output@@QEAA_N_KAEAV__crt_cached_ptd_host@@@Z 00000001400439c8 f i libucrt:output.obj
 0001:00042a70       ??$parse_integer@KV?$c_string_character_source@D@__crt_strtox@@$0A@@__crt_strtox@@YAKAEAV__crt_cached_ptd_host@@V?$c_string_character_source@D@0@H_N@Z 0000000140043a70 f i libucrt:output.obj
 0001:00042d24       ??$type_case_integer@$07@?$output_processor@DV?$stream_output_adapter@D@__crt_stdio_output@@V?$standard_base@DV?$stream_output_adapter@D@__crt_stdio_output@@@2@@__crt_stdio_output@@AEAA_N_N@Z 0000000140043d24 f i libucrt:output.obj
 0001:00042f28       ??$type_case_integer@$09@?$output_processor@DV?$stream_output_adapter@D@__crt_stdio_output@@V?$standard_base@DV?$stream_output_adapter@D@__crt_stdio_output@@@2@@__crt_stdio_output@@AEAA_N_N@Z 0000000140043f28 f i libucrt:output.obj
 0001:0004312c       ??$type_case_integer@$0BA@@?$output_processor@DV?$stream_output_adapter@D@__crt_stdio_output@@V?$standard_base@DV?$stream_output_adapter@D@__crt_stdio_output@@@2@@__crt_stdio_output@@AEAA_N_N@Z 000000014004412c f i libucrt:output.obj
 0001:00043330       ??$type_case_integer_parse_into_buffer@I$07@?$output_processor@DV?$stream_output_adapter@D@__crt_stdio_output@@V?$standard_base@DV?$stream_output_adapter@D@__crt_stdio_output@@@2@@__crt_stdio_output@@AEAAXI_N@Z 0000000140044330 f i libucrt:output.obj
 0001:000433a0       ??$type_case_integer_parse_into_buffer@I$09@?$output_processor@DV?$stream_output_adapter@D@__crt_stdio_output@@V?$standard_base@DV?$stream_output_adapter@D@__crt_stdio_output@@@2@@__crt_stdio_output@@AEAAXI_N@Z 00000001400443a0 f i libucrt:output.obj
 0001:0004344c       ??$type_case_integer_parse_into_buffer@I$0BA@@?$output_processor@DV?$stream_output_adapter@D@__crt_stdio_output@@V?$standard_base@DV?$stream_output_adapter@D@__crt_stdio_output@@@2@@__crt_stdio_output@@AEAAXI_N@Z 000000014004444c f i libucrt:output.obj
 0001:000434d0       ??$type_case_integer_parse_into_buffer@_K$07@?$output_processor@DV?$stream_output_adapter@D@__crt_stdio_output@@V?$standard_base@DV?$stream_output_adapter@D@__crt_stdio_output@@@2@@__crt_stdio_output@@AEAAX_K_N@Z 00000001400444d0 f i libucrt:output.obj
 0001:00043540       ??$type_case_integer_parse_into_buffer@_K$09@?$output_processor@DV?$stream_output_adapter@D@__crt_stdio_output@@V?$standard_base@DV?$stream_output_adapter@D@__crt_stdio_output@@@2@@__crt_stdio_output@@AEAAX_K_N@Z 0000000140044540 f i libucrt:output.obj
 0001:000435f0       ??$type_case_integer_parse_into_buffer@_K$0BA@@?$output_processor@DV?$stream_output_adapter@D@__crt_stdio_output@@V?$standard_base@DV?$stream_output_adapter@D@__crt_stdio_output@@@2@@__crt_stdio_output@@AEAAX_K_N@Z 00000001400445f0 f i libucrt:output.obj
 0001:00043790       ?crop_zeroes@__crt_stdio_output@@YAXPEADQEAU__crt_locale_pointers@@@Z 0000000140044790 f i libucrt:output.obj
 0001:000437fc       ?parse_int_from_format_string@?$output_processor@DV?$stream_output_adapter@D@__crt_stdio_output@@V?$standard_base@DV?$stream_output_adapter@D@__crt_stdio_output@@@2@@__crt_stdio_output@@AEAA_NQEAH@Z 00000001400447fc f i libucrt:output.obj
 0001:0004388c       ?process@?$output_processor@DV?$stream_output_adapter@D@__crt_stdio_output@@V?$standard_base@DV?$stream_output_adapter@D@__crt_stdio_output@@@2@@__crt_stdio_output@@QEAAHXZ 000000014004488c f i libucrt:output.obj
 0001:00043c24       ?state_case_size@?$output_processor@DV?$stream_output_adapter@D@__crt_stdio_output@@V?$standard_base@DV?$stream_output_adapter@D@__crt_stdio_output@@@2@@__crt_stdio_output@@AEAA_NXZ 0000000140044c24 f i libucrt:output.obj
 0001:00043dac       ?state_case_type@?$output_processor@DV?$stream_output_adapter@D@__crt_stdio_output@@V?$standard_base@DV?$stream_output_adapter@D@__crt_stdio_output@@@2@@__crt_stdio_output@@AEAA_NXZ 0000000140044dac f i libucrt:output.obj
 0001:000441e4       ?type_case_Z@?$output_processor@DV?$stream_output_adapter@D@__crt_stdio_output@@V?$standard_base@DV?$stream_output_adapter@D@__crt_stdio_output@@@2@@__crt_stdio_output@@AEAA_NXZ 00000001400451e4 f i libucrt:output.obj
 0001:00044260       ?type_case_a@?$output_processor@DV?$stream_output_adapter@D@__crt_stdio_output@@V?$standard_base@DV?$stream_output_adapter@D@__crt_stdio_output@@@2@@__crt_stdio_output@@AEAA_NXZ 0000000140045260 f i libucrt:output.obj
 0001:000444b4       ?type_case_c_tchar@?$output_processor@DV?$stream_output_adapter@D@__crt_stdio_output@@V?$standard_base@DV?$stream_output_adapter@D@__crt_stdio_output@@@2@@__crt_stdio_output@@AEAA_ND@Z 00000001400454b4 f i libucrt:output.obj
 0001:00044588       ?type_case_n@?$output_processor@DV?$stream_output_adapter@D@__crt_stdio_output@@V?$standard_base@DV?$stream_output_adapter@D@__crt_stdio_output@@@2@@__crt_stdio_output@@AEAA_NXZ 0000000140045588 f i libucrt:output.obj
 0001:00044640       ?type_case_s@?$output_processor@DV?$stream_output_adapter@D@__crt_stdio_output@@V?$standard_base@DV?$stream_output_adapter@D@__crt_stdio_output@@@2@@__crt_stdio_output@@AEAA_NXZ 0000000140045640 f i libucrt:output.obj
 0001:000446e0       ?update_locale_slow@__crt_cached_ptd_host@@AEAAXXZ 00000001400456e0 f i libucrt:output.obj
 0001:00044758       ?validate_stream_is_ansi_if_required@?$__acrt_stdio_char_traits@D@@SA_NQEAU_iobuf@@@Z 0000000140045758 f i libucrt:output.obj
 0001:000447f4       ?write_string_impl@?$output_adapter_common@DV?$stream_output_adapter@D@__crt_stdio_output@@@__crt_stdio_output@@IEBAXQEBDHQEAHAEAV__crt_cached_ptd_host@@@Z 00000001400457f4 f i libucrt:output.obj
 0001:000448c0       __stdio_common_vfprintf    00000001400458c0 f   libucrt:output.obj
 0001:00044acc       puts                       0000000140045acc f   libucrt:puts.obj
 0001:00044cf4       _fputwc_nolock_internal    0000000140045cf4 f   libucrt:fputwc.obj
 0001:00044e80       _fputwchar                 0000000140045e80 f   libucrt:fputwc.obj
 0001:00044ea4       fputwc                     0000000140045ea4 f   libucrt:fputwc.obj
 0001:00044f40       putwchar                   0000000140045f40 f   libucrt:fputwc.obj
 0001:00044f48       round                      0000000140045f48 f   libucrt:round.obj
 0001:00044fb0       lround                     0000000140045fb0 f   libucrt:lround.obj
 0001:00045164       __acrt_get_sigabrt_handler 0000000140046164 f   libucrt:signal.obj
 0001:00045194       __acrt_initialize_signal_handlers 0000000140046194 f   libucrt:signal.obj
 0001:000451b4       raise                      00000001400461b4 f   libucrt:signal.obj
 0001:00045430       signal                     0000000140046430 f   libucrt:signal.obj
 0001:000455f4       _time64                    00000001400465f4 f   libucrt:time.obj
 0001:00045968       _localtime64_s             0000000140046968 f   libucrt:localtime.obj
 0001:00045970       __acrt_initialize_new_handler 0000000140046970 f   libucrt:new_handler.obj
 0001:00045978       _callnewh                  0000000140046978 f   libucrt:new_handler.obj
 0001:000459b8       _query_new_handler         00000001400469b8 f   libucrt:new_handler.obj
 0001:000459f0       malloc                     00000001400469f0 f   libucrt:malloc.obj
 0001:000459f8       _seh_filter_exe            00000001400469f8 f   libucrt:exception_filter.obj
 0001:00045e10       __acrt_initialize_thread_local_exit_callback 0000000140046e10 f   libucrt:exit.obj
 0001:00045e18       _c_exit                    0000000140046e18 f   libucrt:exit.obj
 0001:00045e28       _cexit                     0000000140046e28 f   libucrt:exit.obj
 0001:00045e38       _exit                      0000000140046e38 f   libucrt:exit.obj
 0001:00045e44       _register_thread_local_exe_atexit_callback 0000000140046e44 f   libucrt:exit.obj
 0001:00045e84       exit                       0000000140046e84 f   libucrt:exit.obj
 0001:00046058       __acrt_allocate_buffer_for_argv 0000000140047058 f   libucrt:argv_parsing.obj
 0001:000460b8       _configure_narrow_argv     00000001400470b8 f   libucrt:argv_parsing.obj
 0001:00046768       __dcrt_get_or_create_narrow_environment_nolock 0000000140047768 f   libucrt:environment_initialization.obj
 0001:000467a4       __dcrt_get_or_create_wide_environment_nolock 00000001400477a4 f   libucrt:environment_initialization.obj
 0001:000467e0       __dcrt_uninitialize_environments_nolock 00000001400477e0 f   libucrt:environment_initialization.obj
 0001:00046824       _get_initial_narrow_environment 0000000140047824 f   libucrt:environment_initialization.obj
 0001:00046874       _initialize_narrow_environment 0000000140047874 f   libucrt:environment_initialization.obj
 0001:00046bc4       _crt_atexit                0000000140047bc4 f   libucrt:onexit.obj
 0001:00046bd4       _execute_onexit_table      0000000140047bd4 f   libucrt:onexit.obj
 0001:00046c18       _initialize_onexit_table   0000000140047c18 f   libucrt:onexit.obj
 0001:00046c40       _register_onexit_function  0000000140047c40 f   libucrt:onexit.obj
 0001:00046db4       __acrt_initialize          0000000140047db4 f   libucrt:initialization.obj
 0001:00046dc8       __acrt_uninitialize        0000000140047dc8 f   libucrt:initialization.obj
 0001:00046e00       _query_app_type            0000000140047e00 f   libucrt:report_runtime_error.obj
 0001:00046e08       _set_app_type              0000000140047e08 f   libucrt:report_runtime_error.obj
 0001:00046e10       __acrt_has_user_matherr    0000000140047e10 f   libucrt:matherr.obj
 0001:00046e30       __acrt_initialize_user_matherr 0000000140047e30 f   libucrt:matherr.obj
 0001:00046e38       __acrt_invoke_user_matherr 0000000140047e38 f   libucrt:matherr.obj
 0001:00046e74       __setusermatherr           0000000140047e74 f   libucrt:matherr.obj
 0001:00046e9c       _initterm                  0000000140047e9c f   libucrt:initterm.obj
 0001:00046ee0       _initterm_e                0000000140047ee0 f   libucrt:initterm.obj
 0001:00046f28       _get_fmode                 0000000140047f28 f   libucrt:setmode.obj
 0001:00046f58       _set_fmode                 0000000140047f58 f   libucrt:setmode.obj
 0001:00046f98       _setmode_nolock            0000000140047f98 f   libucrt:setmode.obj
 0001:0004707c       __acrt_initialize_command_line 000000014004807c f   libucrt:argv_data.obj
 0001:000470a4       __p___argc                 00000001400480a4 f   libucrt:argv_data.obj
 0001:000470ac       __p___argv                 00000001400480ac f   libucrt:argv_data.obj
 0001:0004731c       ?commit_locale_name@_expandlocale_locale_name_cache@@QEAAXQEB_W_K@Z 000000014004831c f i libucrt:wsetlocale.obj
 0001:00047394       __acrt_copy_locale_name    0000000140048394 f   libucrt:wsetlocale.obj
 0001:00047418       __acrt_set_locale_changed  0000000140048418 f   libucrt:wsetlocale.obj
 0001:00047424       __acrt_uninitialize_locale 0000000140048424 f   libucrt:wsetlocale.obj
 0001:00047454       __lc_lctowcs               0000000140048454 f   libucrt:wsetlocale.obj
 0001:000474f8       __lc_wcstolc               00000001400484f8 f   libucrt:wsetlocale.obj
 0001:00047660       _configthreadlocale        0000000140048660 f   libucrt:wsetlocale.obj
 0001:00047c0c       _wcscats                   0000000140048c0c f   libucrt:wsetlocale.obj
 0001:00047c74       _wsetlocale                0000000140048c74 f   libucrt:wsetlocale.obj
 0001:000489a0       _query_new_mode            00000001400499a0 f   libucrt:new_mode.obj
 0001:000489a8       _set_new_mode              00000001400499a8 f   libucrt:new_mode.obj
 0001:000489d4       __p__commode               00000001400499d4 f   libucrt:ncommode.obj
 0001:000489dc       terminate                  00000001400499dc f   libucrt:terminate.obj
 0001:00048ce4       setlocale                  0000000140049ce4 f   libucrt:setlocale.obj
 0001:00048d30       __acrt_initialize_locks    0000000140049d30 f   libucrt:locks.obj
 0001:00048d78       __acrt_lock                0000000140049d78 f   libucrt:locks.obj
 0001:00048d94       __acrt_uninitialize_locks  0000000140049d94 f   libucrt:locks.obj
 0001:00048dcc       __acrt_unlock              0000000140049dcc f   libucrt:locks.obj
 0001:00048de8       _lock_locales              0000000140049de8 f   libucrt:locks.obj
 0001:00048e04       _unlock_locales            0000000140049e04 f   libucrt:locks.obj
 0001:00048ed0       _fsopen                    0000000140049ed0 f   libucrt:fopen.obj
 0001:00048ed8       __pctype_func              0000000140049ed8 f   libucrt:ctype.obj
 0001:00048f10       islower                    0000000140049f10 f   libucrt:_ctype.obj
 0001:00048fc0       isupper                    0000000140049fc0 f   libucrt:_ctype.obj
 0001:00049068       ___lc_codepage_func        000000014004a068 f   libucrt:initctype.obj
 0001:00049098       ___lc_locale_name_func     000000014004a098 f   libucrt:initctype.obj
 0001:000490cc       __acrt_locale_initialize_ctype 000000014004a0cc f   libucrt:initctype.obj
 0001:00049730       calloc                     000000014004a730 f   libucrt:calloc.obj
 0001:00049738       _wcsdup                    000000014004a738 f   libucrt:wcsdup.obj
 0001:000497bc       rand_s                     000000014004a7bc f   libucrt:rand_s.obj
 0001:00049808       __acrt_errno_from_os_error 000000014004a808 f   libucrt:errno.obj
 0001:00049850       __acrt_errno_map_os_error  000000014004a850 f   libucrt:errno.obj
 0001:00049898       __acrt_errno_map_os_error_ptd 000000014004a898 f   libucrt:errno.obj
 0001:000498bc       __doserrno                 000000014004a8bc f   libucrt:errno.obj
 0001:000498dc       _errno                     000000014004a8dc f   libucrt:errno.obj
 0001:000498fc       ??0_LocaleUpdate@@QEAA@QEAU__crt_locale_pointers@@@Z 000000014004a8fc f i libucrt:strtod.obj
 0001:000499a0       ?divide@__crt_strtox@@YA_KAEAUbig_integer@1@AEBU21@@Z 000000014004a9a0 f i libucrt:strtod.obj
 0001:00049ec4       _dclass                    000000014004aec4 f   libucrt:nan.obj
 0001:00049ee0       abort                      000000014004aee0 f   libucrt:abort.obj
 0001:00049f38       __strncnt                  000000014004af38 f   libucrt:strncnt.obj
 0001:00049f50       ??$__acrt_convert_wcs_mbs_cp@D_WV<lambda_7c9dea7b4ca7285d2cdb541a38da6275>@@U__crt_win32_buffer_internal_dynamic_resizing@@@@YAHQEBDAEAV?$__crt_win32_buffer@_WU__crt_win32_buffer_internal_dynamic_resizing@@@@AEBV<lambda_7c9dea7b4ca7285d2cdb541a38da6275>@@I@Z 000000014004af50 f i libucrt:strftime.obj
 0001:0004a0cc       ??$__acrt_convert_wcs_mbs_cp@_WDV<lambda_f788ae46380686e8b737efdd8c720d07>@@U__crt_win32_buffer_no_resizing@@@@YAHQEB_WAEAV?$__crt_win32_buffer@DU__crt_win32_buffer_no_resizing@@@@AEBV<lambda_f788ae46380686e8b737efdd8c720d07>@@I@Z 000000014004b0cc f i libucrt:strftime.obj
 0001:0004a1e8       ??$__crt_time_is_leap_year@H@@YA_NH@Z 000000014004b1e8 f i libucrt:wcsftime.obj
 0001:0004a244       strnlen                    000000014004b244 f   libucrt:strnlen.obj
 0001:0004a394       wcsnlen                    000000014004b394 f   libucrt:strnlen.obj
 0001:0004a56c       strcpy_s                   000000014004b56c f   libucrt:strcpy_s.obj
 0001:0004a5cc       ??$parse_integer@KV?$c_string_character_source@_W@__crt_strtox@@$00@__crt_strtox@@YAKAEAV__crt_cached_ptd_host@@V?$c_string_character_source@_W@0@H_N@Z 000000014004b5cc f i libucrt:atox.obj
 0001:0004ad68       _wtol                      000000014004bd68 f   libucrt:atox.obj
 0001:0004ae30       strncmp                    000000014004be30 f   libucrt:strncmp.obj
 0001:0004aeb0       wcsncmp                    000000014004beb0 f   libucrt:wcsncmp.obj
 0001:0004aedc       _fileno                    000000014004bedc f   libucrt:fileno.obj
 0001:0004b70c       _write                     000000014004c70c f   libucrt:write.obj
 0001:0004b7a4       _write_internal            000000014004c7a4 f   libucrt:write.obj
 0001:0004b8c4       _write_nolock              000000014004c8c4 f   libucrt:write.obj
 0001:0004be3c       __acrt_stdio_flush_and_write_narrow_nolock 000000014004ce3c f   libucrt:_flsbuf.obj
 0001:0004bf08       __acrt_stdio_flush_and_write_wide_nolock 000000014004cf08 f   libucrt:_flsbuf.obj
 0001:0004bfd4       __acrt_should_use_temporary_buffer 000000014004cfd4 f   libucrt:_sftbuf.obj
 0001:0004c020       __acrt_stdio_begin_temporary_buffering_nolock 000000014004d020 f   libucrt:_sftbuf.obj
 0001:0004c0e8       __acrt_stdio_end_temporary_buffering_nolock 000000014004d0e8 f   libucrt:_sftbuf.obj
 0001:0004c4a0       __acrt_getptd              000000014004d4a0 f   libucrt:per_thread_data.obj
 0001:0004c574       __acrt_getptd_head         000000014004d574 f   libucrt:per_thread_data.obj
 0001:0004c618       __acrt_getptd_noexit       000000014004d618 f   libucrt:per_thread_data.obj
 0001:0004c6e0       __acrt_getptd_noexit_explicit 000000014004d6e0 f   libucrt:per_thread_data.obj
 0001:0004c7a0       __acrt_initialize_ptd      000000014004d7a0 f   libucrt:per_thread_data.obj
 0001:0004c7dc       __acrt_uninitialize_ptd    000000014004d7dc f   libucrt:per_thread_data.obj
 0001:0004c800       _free_base                 000000014004d800 f   libucrt:free_base.obj
 0001:0004c8b4       _close_internal            000000014004d8b4 f   libucrt:close.obj
 0001:0004c978       _close_nolock              000000014004d978 f   libucrt:close.obj
 0001:0004ca10       _close_nolock_internal     000000014004da10 f   libucrt:close.obj
 0001:0004cae0       ?__acrt_stdio_allocate_stream@@YA?AV__crt_stdio_stream@@XZ 000000014004dae0 f   libucrt:stream.obj
 0001:0004cb38       ?__acrt_stdio_free_stream@@YAXV__crt_stdio_stream@@@Z 000000014004db38 f   libucrt:stream.obj
 0001:0004cc40       __acrt_stdio_free_buffer_nolock 000000014004dc40 f   libucrt:_freebuf.obj
 0001:0004cc84       _calloc_base               000000014004dc84 f   libucrt:calloc_base.obj
 0001:0004cf6c       __acrt_AppPolicyGetProcessTerminationMethodInternal 000000014004df6c f   libucrt:winapi_thunks.obj
 0001:0004cfc4       __acrt_AreFileApisANSI     000000014004dfc4 f   libucrt:winapi_thunks.obj
 0001:0004d008       __acrt_CompareStringEx     000000014004e008 f   libucrt:winapi_thunks.obj
 0001:0004d0f4       __acrt_EnumSystemLocalesEx 000000014004e0f4 f   libucrt:winapi_thunks.obj
 0001:0004d194       __acrt_FlsAlloc            000000014004e194 f   libucrt:winapi_thunks.obj
 0001:0004d19c       __acrt_FlsFree             000000014004e19c f   libucrt:winapi_thunks.obj
 0001:0004d1a4       __acrt_FlsGetValue         000000014004e1a4 f   libucrt:winapi_thunks.obj
 0001:0004d1ac       __acrt_FlsSetValue         000000014004e1ac f   libucrt:winapi_thunks.obj
 0001:0004d1b4       __acrt_GetLocaleInfoEx     000000014004e1b4 f   libucrt:winapi_thunks.obj
 0001:0004d244       __acrt_GetUserDefaultLocaleName 000000014004e244 f   libucrt:winapi_thunks.obj
 0001:0004d2b0       __acrt_InitializeCriticalSectionEx 000000014004e2b0 f   libucrt:winapi_thunks.obj
 0001:0004d320       __acrt_IsValidLocaleName   000000014004e320 f   libucrt:winapi_thunks.obj
 0001:0004d384       __acrt_LCIDToLocaleName    000000014004e384 f   libucrt:winapi_thunks.obj
 0001:0004d408       __acrt_LCMapStringEx       000000014004e408 f   libucrt:winapi_thunks.obj
 0001:0004d4f4       __acrt_LocaleNameToLCID    000000014004e4f4 f   libucrt:winapi_thunks.obj
 0001:0004d554       __acrt_RtlGenRandom        000000014004e554 f   libucrt:winapi_thunks.obj
 0001:0004d5b0       __acrt_can_use_vista_locale_apis 000000014004e5b0 f   libucrt:winapi_thunks.obj
 0001:0004d5e0       __acrt_eagerly_load_locale_apis 000000014004e5e0 f   libucrt:winapi_thunks.obj
 0001:0004d73c       __acrt_initialize_winapi_thunks 000000014004e73c f   libucrt:winapi_thunks.obj
 0001:0004d760       __acrt_uninitialize_winapi_thunks 000000014004e760 f   libucrt:winapi_thunks.obj
 0001:0004d7a4       _fcloseall                 000000014004e7a4 f   libucrt:closeall.obj
 0001:0004da50       __acrt_initialize_lowio    000000014004ea50 f   libucrt:ioinit.obj
 0001:0004da8c       __acrt_uninitialize_lowio  000000014004ea8c f   libucrt:ioinit.obj
 0001:0004dacc       __acrt_stdio_allocate_buffer_nolock 000000014004eacc f   libucrt:_getbuf.obj
 0001:0004db38       __acrt_stdio_refill_and_read_narrow_nolock 000000014004eb38 f   libucrt:_filbuf.obj
 0001:0004e128       _read                      000000014004f128 f   libucrt:read.obj
 0001:0004e248       _read_nolock               000000014004f248 f   libucrt:read.obj
 0001:0004e864       _lseeki64                  000000014004f864 f   libucrt:lseek.obj
 0001:0004e900       _lseeki64_internal         000000014004f900 f   libucrt:lseek.obj
 0001:0004e908       _lseeki64_nolock           000000014004f908 f   libucrt:lseek.obj
 0001:0004e9a4       _lseeki64_nolock_internal  000000014004f9a4 f   libucrt:lseek.obj
 0001:0004eea0       _ftelli64                  000000014004fea0 f   libucrt:ftell.obj
 0001:0004ef3c       _ftelli64_nolock_internal  000000014004ff3c f   libucrt:ftell.obj
 0001:0004efd0       _commit                    000000014004ffd0 f   libucrt:commit.obj
 0001:0004f064       _malloc_base               0000000140050064 f   libucrt:malloc_base.obj
 0001:0004f0c4       __acrt_update_locale_info  00000001400500c4 f   libucrt:locale_update.obj
 0001:0004f0f8       __acrt_update_locale_info_explicit 00000001400500f8 f   libucrt:locale_update.obj
 0001:0004f130       __acrt_update_multibyte_info 0000000140050130 f   libucrt:locale_update.obj
 0001:0004f164       __acrt_update_multibyte_info_explicit 0000000140050164 f   libucrt:locale_update.obj
 0001:0004fcb0       __acrt_fp_format           0000000140050cb0 f   libucrt:cvt.obj
 0001:0004ff98       _wctomb_internal           0000000140050f98 f   libucrt:wctomb.obj
 0001:00050148       _mbtowc_internal           0000000140051148 f   libucrt:mbtowc.obj
 0001:000502c0       _get_printf_count_output   00000001400512c0 f   libucrt:printf_count_output.obj
 0001:000502d8       _d_int                     00000001400512d8 f   libucrt:_test.obj
 0001:000503f0       _dtest                     00000001400513f0 f   libucrt:_test.obj
 0001:00050454       _fperrraise                0000000140051454 f   libucrt:_test.obj
 0001:00050508       __acrt_initialize_timeset  0000000140051508 f   libucrt:timeset.obj
 0001:00050558       __daylight                 0000000140051558 f   libucrt:timeset.obj
 0001:00050560       __dstbias                  0000000140051560 f   libucrt:timeset.obj
 0001:00050568       __timezone                 0000000140051568 f   libucrt:timeset.obj
 0001:00050570       __tzname                   0000000140051570 f   libucrt:timeset.obj
 0001:00050578       __wide_tzname              0000000140051578 f   libucrt:timeset.obj
 0001:00050580       _get_daylight              0000000140051580 f   libucrt:timeset.obj
 0001:000505b0       _get_dstbias               00000001400515b0 f   libucrt:timeset.obj
 0001:000505e0       _get_timezone              00000001400515e0 f   libucrt:timeset.obj
 0001:00050898       _gmtime64_s                0000000140051898 f   libucrt:gmtime.obj
 0001:0005140c       __tzset                    000000014005240c f   libucrt:tzset.obj
 0001:00051450       _isindst                   0000000140052450 f   libucrt:tzset.obj
 0001:00051480       __acrt_app_verifier_enabled 0000000140052480 f   libucrt:peb_access.obj
 0001:0005149c       __acrt_is_secure_process   000000014005249c f   libucrt:peb_access.obj
 0001:000514b4       __acrt_get_process_end_policy 00000001400524b4 f   libucrt:win_policies.obj
 0001:000514f8       ??$__acrt_convert_wcs_mbs_cp@_WDV<lambda_d8593a27d1aa8c02be35c86a17d324c4>@@U__crt_win32_buffer_internal_dynamic_resizing@@@@YAHQEB_WAEAV?$__crt_win32_buffer@DU__crt_win32_buffer_internal_dynamic_resizing@@@@AEBV<lambda_d8593a27d1aa8c02be35c86a17d324c4>@@I@Z 00000001400524f8 f i libucrt:argv_wildcards.obj
 0001:00051d9c       __acrt_expand_narrow_argv_wildcards 0000000140052d9c f   libucrt:argv_wildcards.obj
 0001:00051da4       __acrt_GetModuleFileNameA  0000000140052da4 f   libucrt:getmodulefilenamea.obj
 0001:000526c0       __acrt_initialize_multibyte 00000001400536c0 f   libucrt:mbctype.obj
 0001:00052720       __acrt_update_thread_multibyte_data 0000000140053720 f   libucrt:mbctype.obj
 0001:0005273c       _setmbcp_nolock            000000014005373c f   libucrt:mbctype.obj
 0001:00052a70       _ismbblead                 0000000140053a70 f   libucrt:ismbbyte.obj
 0001:00052a84       wcscpy_s                   0000000140053a84 f   libucrt:wcscpy_s.obj
 0001:00052aec       __acrt_MultiByteToWideChar 0000000140053aec f   libucrt:multibytetowidechar.obj
 0001:00052b7c       __acrt_WideCharToMultiByte 0000000140053b7c f   libucrt:widechartomultibyte.obj
 0001:00052c5c       __dcrt_get_narrow_environment_from_os 0000000140053c5c f   libucrt:get_environment_from_os.obj
 0001:00052d6c       __dcrt_get_wide_environment_from_os 0000000140053d6c f   libucrt:get_environment_from_os.obj
 0001:0005369c       __dcrt_set_variable_in_narrow_environment_nolock 000000014005469c f   libucrt:setenv.obj
 0001:000536a4       __dcrt_set_variable_in_wide_environment_nolock 00000001400546a4 f   libucrt:setenv.obj
 0001:000536ac       _recalloc_base             00000001400546ac f   libucrt:recalloc.obj
 0001:00053744       __acrt_initialize_heap     0000000140054744 f   libucrt:heap_handle.obj
 0001:00053760       __acrt_uninitialize_heap   0000000140054760 f   libucrt:heap_handle.obj
 0001:0005376c       __acrt_execute_initializers 000000014005476c f   libucrt:shared_initialization.obj
 0001:00053800       __acrt_execute_uninitializers 0000000140054800 f   libucrt:shared_initialization.obj
 0001:00053848       wcscat_s                   0000000140054848 f   libucrt:wcscat_s.obj
 0001:000538c0       wcsncpy_s                  00000001400548c0 f   libucrt:wcsncpy_s.obj
 0001:000539bc       __acrt_lowio_create_handle_array 00000001400549bc f   libucrt:osfinfo.obj
 0001:00053a64       __acrt_lowio_destroy_handle_array 0000000140054a64 f   libucrt:osfinfo.obj
 0001:00053ab4       __acrt_lowio_ensure_fh_exists 0000000140054ab4 f   libucrt:osfinfo.obj
 0001:00053b5c       __acrt_lowio_lock_fh       0000000140054b5c f   libucrt:osfinfo.obj
 0001:00053b84       __acrt_lowio_set_os_handle 0000000140054b84 f   libucrt:osfinfo.obj
 0001:00053c44       __acrt_lowio_unlock_fh     0000000140054c44 f   libucrt:osfinfo.obj
 0001:00053c6c       _alloc_osfhnd              0000000140054c6c f   libucrt:osfinfo.obj
 0001:00053dac       _free_osfhnd               0000000140054dac f   libucrt:osfinfo.obj
 0001:00053e68       _get_osfhandle             0000000140054e68 f   libucrt:osfinfo.obj
 0001:00053ee0       __acrt_initialize_fmode    0000000140054ee0 f   libucrt:txtmode.obj
 0001:00053efc       __acrt_locale_free_monetary 0000000140054efc f   libucrt:initmon.obj
 0001:00054008       __acrt_locale_initialize_monetary 0000000140055008 f   libucrt:initmon.obj
 0001:00054524       __acrt_locale_free_numeric 0000000140055524 f   libucrt:initnum.obj
 0001:00054590       __acrt_locale_initialize_numeric 0000000140055590 f   libucrt:initnum.obj
 0001:00054bec       __acrt_locale_free_time    0000000140055bec f   libucrt:inittime.obj
 0001:00054cf4       __acrt_locale_initialize_time 0000000140055cf4 f   libucrt:inittime.obj
 0001:00054d90       wcsncat_s                  0000000140055d90 f   libucrt:wcsncat_s.obj
 0001:00054e88       wcscspn                    0000000140055e88 f   libucrt:wcscspn.obj
 0001:00054ec8       wcspbrk                    0000000140055ec8 f   libucrt:wcspbrk.obj
 0001:00054efc       __acrt_GetStringTypeA      0000000140055efc f   libucrt:getstringtypea.obj
 0001:0005508c       __acrt_add_locale_ref      000000014005608c f   libucrt:locale_refcounting.obj
 0001:00055118       __acrt_free_locale         0000000140056118 f   libucrt:locale_refcounting.obj
 0001:00055290       __acrt_locale_add_lc_time_reference 0000000140056290 f   libucrt:locale_refcounting.obj
 0001:000552b8       __acrt_locale_free_lc_time_if_unreferenced 00000001400562b8 f   libucrt:locale_refcounting.obj
 0001:000552f0       __acrt_locale_release_lc_time_reference 00000001400562f0 f   libucrt:locale_refcounting.obj
 0001:00055318       __acrt_release_locale_ref  0000000140056318 f   libucrt:locale_refcounting.obj
 0001:000553c0       __acrt_update_thread_locale_data 00000001400563c0 f   libucrt:locale_refcounting.obj
 0001:00055430       _updatetlocinfoEx_nolock   0000000140056430 f   libucrt:locale_refcounting.obj
 0001:00055c38       __acrt_get_qualified_locale 0000000140056c38 f   libucrt:get_qualified_locale.obj
 0001:00056680       __acrt_get_qualified_locale_downlevel 0000000140057680 f   libucrt:getqloc_downlevel.obj
 0001:00056c1c       mbstowcs_s                 0000000140057c1c f   libucrt:mbstowcs.obj
 0001:00057118       _wcstombs_s_l              0000000140058118 f   libucrt:wcstombs.obj
 0001:000571d0       ??$__acrt_stdio_parse_mode@D@@YA?AU__acrt_stdio_stream_mode@@QEBD@Z 00000001400581d0 f i libucrt:openfile.obj
 0001:00057494       _openfile                  0000000140058494 f   libucrt:openfile.obj
 0001:00057530       _isctype_l                 0000000140058530 f   libucrt:isctype.obj
 0001:000577b4       __acrt_GetLocaleInfoA      00000001400587b4 f   libucrt:getlocaleinfoa.obj
 0001:00057cb0       __acrt_LCMapStringA        0000000140058cb0 f   libucrt:lcmapstringa.obj
 0001:00057d48       _raise_exc                 0000000140058d48 f   libucrt:fpexcept.obj
 0001:00057d70       _raise_exc_ex              0000000140058d70 f   libucrt:fpexcept.obj
 0001:00058078       _set_errno_from_matherr    0000000140059078 f   libucrt:fpexcept.obj
 0001:000580a8       _clrfp                     00000001400590a8 f   libucrt:fpctrl.obj
 0001:000580c8       _ctrlfp                    00000001400590c8 f   libucrt:fpctrl.obj
 0001:00058144       _set_statfp                0000000140059144 f   libucrt:fpctrl.obj
 0001:00058164       _statfp                    0000000140059164 f   libucrt:fpctrl.obj
 0001:00058178       _realloc_base              0000000140059178 f   libucrt:realloc_base.obj
 0001:000581f4       iswctype                   00000001400591f4 f   libucrt:iswctype.obj
 0001:00058260       fegetround                 0000000140059260 f   libucrt:fegetround.obj
 0001:00058274       __ascii_wcsicmp            0000000140059274 f   libucrt:wcsicmp.obj
 0001:000582b4       _wcsicmp                   00000001400592b4 f   libucrt:wcsicmp.obj
 0001:000582fc       _wcsicmp_l                 00000001400592fc f   libucrt:wcsicmp.obj
 0001:00058430       _isatty                    0000000140059430 f   libucrt:isatty.obj
 0001:00058490       ?__mbrtowc_utf8@__crt_mbstring@@YA_KPEA_WPEBD_KPEAU_Mbstatet@@AEAV__crt_cached_ptd_host@@@Z 0000000140059490 f   libucrt:mbrtowc.obj
 0001:000584d4       ?__mbsrtowcs_utf8@__crt_mbstring@@YA_KPEA_WPEAPEBD_KPEAU_Mbstatet@@AEAV__crt_cached_ptd_host@@@Z 00000001400594d4 f   libucrt:mbrtowc.obj
 0001:00058678       _putwch_nolock             0000000140059678 f   libucrt:putwch.obj
 0001:000586b4       __acrt_DownlevelLCIDToLocaleName 00000001400596b4 f   libucrt:lcidtoname_downlevel.obj
 0001:0005879c       __acrt_DownlevelLocaleNameToLCID 000000014005979c f   libucrt:lcidtoname_downlevel.obj
 0001:00058910       __acrt_fp_strflt_to_string 0000000140059910 f   libucrt:_fptostr.obj
 0001:00058a20       __acrt_fltout              0000000140059a20 f   libucrt:cfout.obj
 0001:00059cb0       ?__c32rtomb_utf8@__crt_mbstring@@YA_KPEAD_UPEAU_Mbstatet@@AEAV__crt_cached_ptd_host@@@Z 000000014005acb0 f   libucrt:c32rtomb.obj
 0001:00059d54       fegetexceptflag            000000014005ad54 f   libucrt:fegetexceptflag.obj
 0001:00059d98       fesetexceptflag            000000014005ad98 f   libucrt:fesetexceptflag.obj
 0001:00059e14       __acrt_fenv_get_common_round_control 000000014005ae14 f   libucrt:_fenvutils.obj
 0001:00059e20       __acrt_fenv_get_control    000000014005ae20 f   libucrt:_fenvutils.obj
 0001:00059f04       __acrt_fenv_get_fp_status_word_from_exception_mask 000000014005af04 f   libucrt:_fenvutils.obj
 0001:00059f10       __acrt_fenv_get_status     000000014005af10 f   libucrt:_fenvutils.obj
 0001:00059f68       __acrt_fenv_set_control    000000014005af68 f   libucrt:_fenvutils.obj
 0001:0005a0a0       __acrt_fenv_set_status     000000014005b0a0 f   libucrt:_fenvutils.obj
 0001:0005a114       wcstol                     000000014005b114 f   libucrt:strtox.obj
 0001:0005a358       _wgetenv_s                 000000014005b358 f   libucrt:getenv.obj
 0001:0005a360       qsort                      000000014005b360 f   libucrt:qsort.obj
 0001:0005a770       strncpy_s                  000000014005b770 f   libucrt:strncpy_s.obj
 0001:0005a900       strpbrk                    000000014005b900 f   libucrt:strpbrk.obj
 0001:0005acc8       _mbsdec                    000000014005bcc8 f   libucrt:mbsdec.obj
 0001:0005acd0       _mbsdec_l                  000000014005bcd0 f   libucrt:mbsdec.obj
 0001:0005ad7c       _wcsnicoll                 000000014005bd7c f   libucrt:wcsnicol.obj
 0001:0005adcc       _wcsnicoll_l               000000014005bdcc f   libucrt:wcsnicol.obj
 0001:0005aebc       _strnicoll                 000000014005bebc f   libucrt:strnicol.obj
 0001:0005aed4       _strnicoll_l               000000014005bed4 f   libucrt:strnicol.obj
 0001:0005afd4       __acrt_SetEnvironmentVariableA 000000014005bfd4 f   libucrt:setenvironmentvariablea.obj
 0001:0005b174       _msize_base                000000014005c174 f   libucrt:msize.obj
 0001:0005b300       _itow_s                    000000014005c300 f   libucrt:xtoa.obj
 0001:0005b320       __ascii_wcsnicmp           000000014005c320 f   libucrt:wcsnicmp.obj
 0001:0005b36c       _wcsnicmp                  000000014005c36c f   libucrt:wcsnicmp.obj
 0001:0005b3b4       _wcsnicmp_l                000000014005c3b4 f   libucrt:wcsnicmp.obj
 0001:0005b508       wcscmp                     000000014005c508 f   libucrt:wcscmp.obj
 0001:0005b540       ?__wcsrtombs_utf8@__crt_mbstring@@YA_KPEADPEAPEB_W_KPEAU_Mbstatet@@AEAV__crt_cached_ptd_host@@@Z 000000014005c540 f   libucrt:wcrtomb.obj
 0001:0005b694       __ascii_strnicmp           000000014005c694 f   libucrt:strnicmp.obj
 0001:0005b6e0       _strnicmp                  000000014005c6e0 f   libucrt:strnicmp.obj
 0001:0005b730       _strnicmp_l                000000014005c730 f   libucrt:strnicmp.obj
 0001:0005bdf0       _sopen_nolock              000000014005cdf0 f   libucrt:open.obj
 0001:0005bf0c       _sopen_s                   000000014005cf0c f   libucrt:open.obj
 0001:0005bf40       _wsopen_nolock             000000014005cf40 f   libucrt:open.obj
 0001:0005c340       _get_fpsr                  000000014005d340 f   libucrt:fpsr.obj
 0001:0005c350       _set_fpsr                  000000014005d350 f   libucrt:fpsr.obj
 0001:0005c35a       _fclrf                     000000014005d35a f   libucrt:fpsr.obj
 0001:0005c36e       _frnd                      000000014005d36e f   libucrt:fpsr.obj
 0001:0005c390       __acrt_GetStringTypeW      000000014005d390 f   libucrt:getstringtypew.obj
 0001:0005c398       _towlower_l                000000014005d398 f   libucrt:towlower.obj
 0001:0005c48c       ?__mbrtoc32_utf8@__crt_mbstring@@YA_KPEA_UPEBD_KPEAU_Mbstatet@@AEAV__crt_cached_ptd_host@@@Z 000000014005d48c f   libucrt:mbrtoc32.obj
 0001:0005c668       __dcrt_lowio_ensure_console_output_initialized 000000014005d668 f   libucrt:initcon.obj
 0001:0005c6bc       __dcrt_terminate_console_output 000000014005d6bc f   libucrt:initcon.obj
 0001:0005c6d8       __dcrt_write_console       000000014005d6d8 f   libucrt:initcon.obj
 0001:0005c798       _controlfp_s               000000014005d798 f   libucrt:contrlfp.obj
 0001:0005c7fc       fegetenv                   000000014005d7fc f   libucrt:fegetenv.obj
 0001:0005c81c       fesetenv                   000000014005d81c f   libucrt:fesetenv.obj
 0001:0005c874       feholdexcept               000000014005d874 f   libucrt:feholdexcept.obj
 0001:0005c8c4       ceil                       000000014005d8c4 f   libucrt:ceil.obj
 0001:0005c990       log10                      000000014005d990 f   libucrt:log10.obj
 0001:0005cf3c       ?reset_and_return@__crt_mbstring@@YA_K_KPEAU_Mbstatet@@@Z 000000014005df3c f   libucrt:common_utf8.obj
 0001:0005cf44       ?return_illegal_sequence@__crt_mbstring@@YA_KPEAU_Mbstatet@@AEAV__crt_cached_ptd_host@@@Z 000000014005df44 f   libucrt:common_utf8.obj
 0001:0005cf58       fetestexcept               000000014005df58 f   libucrt:fetestexcept.obj
 0001:0005cf7c       __acrt_CompareStringW      000000014005df7c f   libucrt:comparestringw.obj
 0001:0005d3c0       __acrt_CompareStringA      000000014005e3c0 f   libucrt:comparestringa.obj
 0001:0005d44c       ?__c16rtomb_utf8@__crt_mbstring@@YA_KPEAD_SPEAU_Mbstatet@@AEAV__crt_cached_ptd_host@@@Z 000000014005e44c f   libucrt:c16rtomb.obj
 0001:0005d4f0       _chsize_nolock             000000014005e4f0 f   libucrt:chsize.obj
 0001:0005d588       _chsize_nolock_internal    000000014005e588 f   libucrt:chsize.obj
 0001:0005d71c       __acrt_LCMapStringW        000000014005e71c f   libucrt:lcmapstringw.obj
 0001:0005d7a4       _clearfp                   000000014005e7a4 f   libucrt:ieee.obj
 0001:0005d810       _control87                 000000014005e810 f   libucrt:ieee.obj
 0001:0005dbd8       _handle_error              000000014005ebd8 f   libucrt:libm_error.obj
 0001:0005dd00       _handle_nan                000000014005ed00 f   libucrt:libm_error.obj
 0001:0005dd20       __acrt_initialize_fma3     000000014005ed20 f   libucrt:fma3_available.obj
 0001:0005dd90       _log10_special             000000014005ed90 f   libucrt:log_special.obj
 0001:0005de48       __GSHandlerCheck           000000014005ee48 f   libcmt:gshandler.obj
 0001:0005de68       __GSHandlerCheckCommon     000000014005ee68 f   libcmt:gshandler.obj
 0001:0005dee0       __security_check_cookie    000000014005eee0 f   libcmt:amdsecgs.obj
 0001:0005df00       _FindPESection             000000014005ef00 f   libcmt:pesect.obj
 0001:0005df50       _IsNonwritableInCurrentImage 000000014005ef50 f   libcmt:pesect.obj
 0001:0005dfa0       _ValidateImageBase         000000014005efa0 f   libcmt:pesect.obj
 0001:0005dfcc       __GSHandlerCheck_SEH       000000014005efcc f   libcmt:gshandlerseh.obj
 0001:0005e054       __raise_securityfailure    000000014005f054 f   libcmt:gs_report.obj
 0001:0005e088       __report_gsfailure         000000014005f088 f   libcmt:gs_report.obj
 0001:0005e15c       __report_rangecheckfailure 000000014005f15c f   libcmt:gs_report.obj
 0001:0005e170       __report_securityfailure   000000014005f170 f   libcmt:gs_report.obj
 0001:0005e2f0       __GSHandlerCheck_EH        000000014005f2f0 f   libcmt:gshandlereh.obj
 0001:0005e370       _local_unwind              000000014005f370 f   libvcruntime:jmpuwind.obj
 0001:0005e39c       __C_specific_handler_noexcept 000000014005f39c f   libvcruntime:chandler_noexcept.obj
 0001:0005e3e8       strrchr                    000000014005f3e8 f   libvcruntime:strrchr.obj
 0001:0005e524       strchr                     000000014005f524 f   libvcruntime:strchr.obj
 0001:0005e5a0       wcschr                     000000014005f5a0 f   libvcruntime:wcschr.obj
 0001:0005e630       _guard_dispatch_icall_nop  000000014005f630 f   libcmt:guard_dispatch.obj
 0001:0005e650       _guard_xfg_dispatch_icall_nop 000000014005f650 f   libcmt:guard_xfg_dispatch.obj
 0001:0005e680       memcpy_repmovs             000000014005f680 f   libvcruntime:memcpy.obj
 0001:0005e690       memcpy                     000000014005f690 f   libvcruntime:memcpy.obj
 0001:0005e690       memcpy_$fo_default$        000000014005f690     libvcruntime:memcpy.obj
 0001:0005e690       memmove                    000000014005f690 f   libvcruntime:memcpy.obj
 0001:0005ed20       memset_repstos             000000014005fd20 f   libvcruntime:memset.obj
 0001:0005ed30       memset                     000000014005fd30 f   libvcruntime:memset.obj
 0001:0005f0e0       memcmp                     00000001400600e0 f   libvcruntime:memcmp.obj
 0002:00000000       __imp_SetEndOfFile         0000000140061000     kernel32:KERNEL32.dll
 0002:00000008       __imp_WriteConsoleW        0000000140061008     kernel32:KERNEL32.dll
 0002:00000010       __imp_CreateFileW          0000000140061010     kernel32:KERNEL32.dll
 0002:00000018       __imp_HeapSize             0000000140061018     kernel32:KERNEL32.dll
 0002:00000020       __imp_HeapReAlloc          0000000140061020     kernel32:KERNEL32.dll
 0002:00000028       __imp_SetStdHandle         0000000140061028     kernel32:KERNEL32.dll
 0002:00000030       __imp_GetProcessHeap       0000000140061030     kernel32:KERNEL32.dll
 0002:00000038       __imp_SetEnvironmentVariableW 0000000140061038     kernel32:KERNEL32.dll
 0002:00000040       __imp_FreeEnvironmentStringsW 0000000140061040     kernel32:KERNEL32.dll
 0002:00000048       __imp_GetEnvironmentStringsW 0000000140061048     kernel32:KERNEL32.dll
 0002:00000050       __imp_GetOEMCP             0000000140061050     kernel32:KERNEL32.dll
 0002:00000058       __imp_GetACP               0000000140061058     kernel32:KERNEL32.dll
 0002:00000060       __imp_IsValidCodePage      0000000140061060     kernel32:KERNEL32.dll
 0002:00000068       __imp_FindNextFileW        0000000140061068     kernel32:KERNEL32.dll
 0002:00000070       __imp_FindFirstFileExW     0000000140061070     kernel32:KERNEL32.dll
 0002:00000078       __imp_ReleaseSRWLockExclusive 0000000140061078     kernel32:KERNEL32.dll
 0002:00000080       __imp_AcquireSRWLockExclusive 0000000140061080     kernel32:KERNEL32.dll
 0002:00000088       __imp_WakeAllConditionVariable 0000000140061088     kernel32:KERNEL32.dll
 0002:00000090       __imp_SleepConditionVariableSRW 0000000140061090     kernel32:KERNEL32.dll
 0002:00000098       __imp_RtlCaptureContext    0000000140061098     kernel32:KERNEL32.dll
 0002:000000a0       __imp_RtlLookupFunctionEntry 00000001400610a0     kernel32:KERNEL32.dll
 0002:000000a8       __imp_RtlVirtualUnwind     00000001400610a8     kernel32:KERNEL32.dll
 0002:000000b0       __imp_IsDebuggerPresent    00000001400610b0     kernel32:KERNEL32.dll
 0002:000000b8       __imp_UnhandledExceptionFilter 00000001400610b8     kernel32:KERNEL32.dll
 0002:000000c0       __imp_SetUnhandledExceptionFilter 00000001400610c0     kernel32:KERNEL32.dll
 0002:000000c8       __imp_GetStartupInfoW      00000001400610c8     kernel32:KERNEL32.dll
 0002:000000d0       __imp_IsProcessorFeaturePresent 00000001400610d0     kernel32:KERNEL32.dll
 0002:000000d8       __imp_GetModuleHandleW     00000001400610d8     kernel32:KERNEL32.dll
 0002:000000e0       __imp_QueryPerformanceCounter 00000001400610e0     kernel32:KERNEL32.dll
 0002:000000e8       __imp_GetCurrentProcessId  00000001400610e8     kernel32:KERNEL32.dll
 0002:000000f0       __imp_GetCurrentThreadId   00000001400610f0     kernel32:KERNEL32.dll
 0002:000000f8       __imp_GetSystemTimeAsFileTime 00000001400610f8     kernel32:KERNEL32.dll
 0002:00000100       __imp_InitializeSListHead  0000000140061100     kernel32:KERNEL32.dll
 0002:00000108       __imp_QueryPerformanceFrequency 0000000140061108     kernel32:KERNEL32.dll
 0002:00000110       __imp_Sleep                0000000140061110     kernel32:KERNEL32.dll
 0002:00000118       __imp_EncodePointer        0000000140061118     kernel32:KERNEL32.dll
 0002:00000120       __imp_DecodePointer        0000000140061120     kernel32:KERNEL32.dll
 0002:00000128       __imp_EnterCriticalSection 0000000140061128     kernel32:KERNEL32.dll
 0002:00000130       __imp_LeaveCriticalSection 0000000140061130     kernel32:KERNEL32.dll
 0002:00000138       __imp_InitializeCriticalSectionEx 0000000140061138     kernel32:KERNEL32.dll
 0002:00000140       __imp_DeleteCriticalSection 0000000140061140     kernel32:KERNEL32.dll
 0002:00000148       __imp_MultiByteToWideChar  0000000140061148     kernel32:KERNEL32.dll
 0002:00000150       __imp_WideCharToMultiByte  0000000140061150     kernel32:KERNEL32.dll
 0002:00000158       __imp_LCMapStringEx        0000000140061158     kernel32:KERNEL32.dll
 0002:00000160       __imp_GetProcAddress       0000000140061160     kernel32:KERNEL32.dll
 0002:00000168       __imp_RtlUnwind            0000000140061168     kernel32:KERNEL32.dll
 0002:00000170       __imp_GetStringTypeW       0000000140061170     kernel32:KERNEL32.dll
 0002:00000178       __imp_GetCPInfo            0000000140061178     kernel32:KERNEL32.dll
 0002:00000180       __imp_FindClose            0000000140061180     kernel32:KERNEL32.dll
 0002:00000188       __imp_RtlUnwindEx          0000000140061188     kernel32:KERNEL32.dll
 0002:00000190       __imp_RtlPcToFileHeader    0000000140061190     kernel32:KERNEL32.dll
 0002:00000198       __imp_RaiseException       0000000140061198     kernel32:KERNEL32.dll
 0002:000001a0       __imp_GetLastError         00000001400611a0     kernel32:KERNEL32.dll
 0002:000001a8       __imp_SetLastError         00000001400611a8     kernel32:KERNEL32.dll
 0002:000001b0       __imp_InitializeCriticalSectionAndSpinCount 00000001400611b0     kernel32:KERNEL32.dll
 0002:000001b8       __imp_TlsAlloc             00000001400611b8     kernel32:KERNEL32.dll
 0002:000001c0       __imp_TlsGetValue          00000001400611c0     kernel32:KERNEL32.dll
 0002:000001c8       __imp_TlsSetValue          00000001400611c8     kernel32:KERNEL32.dll
 0002:000001d0       __imp_TlsFree              00000001400611d0     kernel32:KERNEL32.dll
 0002:000001d8       __imp_FreeLibrary          00000001400611d8     kernel32:KERNEL32.dll
 0002:000001e0       __imp_LoadLibraryExW       00000001400611e0     kernel32:KERNEL32.dll
 0002:000001e8       __imp_GetCurrentProcess    00000001400611e8     kernel32:KERNEL32.dll
 0002:000001f0       __imp_TerminateProcess     00000001400611f0     kernel32:KERNEL32.dll
 0002:000001f8       __imp_SetConsoleCtrlHandler 00000001400611f8     kernel32:KERNEL32.dll
 0002:00000200       __imp_ExitProcess          0000000140061200     kernel32:KERNEL32.dll
 0002:00000208       __imp_GetModuleHandleExW   0000000140061208     kernel32:KERNEL32.dll
 0002:00000210       __imp_GetModuleFileNameW   0000000140061210     kernel32:KERNEL32.dll
 0002:00000218       __imp_GetStdHandle         0000000140061218     kernel32:KERNEL32.dll
 0002:00000220       __imp_WriteFile            0000000140061220     kernel32:KERNEL32.dll
 0002:00000228       __imp_GetCommandLineA      0000000140061228     kernel32:KERNEL32.dll
 0002:00000230       __imp_GetCommandLineW      0000000140061230     kernel32:KERNEL32.dll
 0002:00000238       __imp_GetConsoleOutputCP   0000000140061238     kernel32:KERNEL32.dll
 0002:00000240       __imp_GetConsoleMode       0000000140061240     kernel32:KERNEL32.dll
 0002:00000248       __imp_GetFileSizeEx        0000000140061248     kernel32:KERNEL32.dll
 0002:00000250       __imp_SetFilePointerEx     0000000140061250     kernel32:KERNEL32.dll
 0002:00000258       __imp_HeapFree             0000000140061258     kernel32:KERNEL32.dll
 0002:00000260       __imp_CloseHandle          0000000140061260     kernel32:KERNEL32.dll
 0002:00000268       __imp_HeapAlloc            0000000140061268     kernel32:KERNEL32.dll
 0002:00000270       __imp_FlsAlloc             0000000140061270     kernel32:KERNEL32.dll
 0002:00000278       __imp_FlsGetValue          0000000140061278     kernel32:KERNEL32.dll
 0002:00000280       __imp_FlsSetValue          0000000140061280     kernel32:KERNEL32.dll
 0002:00000288       __imp_FlsFree              0000000140061288     kernel32:KERNEL32.dll
 0002:00000290       __imp_CompareStringW       0000000140061290     kernel32:KERNEL32.dll
 0002:00000298       __imp_LCMapStringW         0000000140061298     kernel32:KERNEL32.dll
 0002:000002a0       __imp_GetLocaleInfoW       00000001400612a0     kernel32:KERNEL32.dll
 0002:000002a8       __imp_IsValidLocale        00000001400612a8     kernel32:KERNEL32.dll
 0002:000002b0       __imp_GetUserDefaultLCID   00000001400612b0     kernel32:KERNEL32.dll
 0002:000002b8       __imp_EnumSystemLocalesW   00000001400612b8     kernel32:KERNEL32.dll
 0002:000002c0       __imp_GetFileType          00000001400612c0     kernel32:KERNEL32.dll
 0002:000002c8       __imp_ReadFile             00000001400612c8     kernel32:KERNEL32.dll
 0002:000002d0       __imp_ReadConsoleW         00000001400612d0     kernel32:KERNEL32.dll
 0002:000002d8       __imp_FlushFileBuffers     00000001400612d8     kernel32:KERNEL32.dll
 0002:000002e0       __imp_GetTimeZoneInformation 00000001400612e0     kernel32:KERNEL32.dll
 0002:000002e8       \177KERNEL32_NULL_THUNK_DATA 00000001400612e8     kernel32:KERNEL32.dll
 0002:000002f0       __imp_getaddrinfo          00000001400612f0     Ws2_32:WS2_32.dll
 0002:000002f8       __imp_recv                 00000001400612f8     Ws2_32:WS2_32.dll
 0002:00000300       __imp_send                 0000000140061300     Ws2_32:WS2_32.dll
 0002:00000308       __imp_accept               0000000140061308     Ws2_32:WS2_32.dll
 0002:00000310       __imp_listen               0000000140061310     Ws2_32:WS2_32.dll
 0002:00000318       __imp_bind                 0000000140061318     Ws2_32:WS2_32.dll
 0002:00000320       __imp_ioctlsocket          0000000140061320     Ws2_32:WS2_32.dll
 0002:00000328       __imp_connect              0000000140061328     Ws2_32:WS2_32.dll
 0002:00000330       __imp_socket               0000000140061330     Ws2_32:WS2_32.dll
 0002:00000338       __imp_shutdown             0000000140061338     Ws2_32:WS2_32.dll
 0002:00000340       __imp_closesocket          0000000140061340     Ws2_32:WS2_32.dll
 0002:00000348       __imp_WSACleanup           0000000140061348     Ws2_32:WS2_32.dll
 0002:00000350       __imp_WSAStartup           0000000140061350     Ws2_32:WS2_32.dll
 0002:00000358       __imp_inet_ntop            0000000140061358     Ws2_32:WS2_32.dll
 0002:00000360       __imp_WSAGetLastError      0000000140061360     Ws2_32:WS2_32.dll
 0002:00000368       __imp_freeaddrinfo         0000000140061368     Ws2_32:WS2_32.dll
 0002:00000370       \177WS2_32_NULL_THUNK_DATA 0000000140061370     Ws2_32:WS2_32.dll
 0002:00000378       __guard_check_icall_fptr   0000000140061378     libcmt:guard_support.obj
 0002:00000380       __guard_xfg_check_icall_fptr 0000000140061380     libcmt:guard_support.obj
 0002:00000388       __guard_dispatch_icall_fptr 0000000140061388     libcmt:guard_support.obj
 0002:00000390       __guard_xfg_dispatch_icall_fptr 0000000140061390     libcmt:guard_support.obj
 0002:00000398       __guard_xfg_table_dispatch_icall_fptr 0000000140061398     libcmt:guard_support.obj
 0002:000003a0       __castguard_check_failure_os_handled_fptr 00000001400613a0     libcmt:guard_support.obj
 0002:000003a8       __guard_memcpy_fptr        00000001400613a8     libvcruntime:softmemtag.obj
 0002:000003b0       __xc_a                     00000001400613b0     libcmt:initializers.obj
 0002:000003f0       __xc_z                     00000001400613f0     libcmt:initializers.obj
 0002:000003f8       __xi_a                     00000001400613f8     libcmt:initializers.obj
 0002:00000418       __acrt_stdio_initializer   0000000140061418     libucrt:stdio_initializer.obj
 0002:00000420       __acrt_timeset_initializer 0000000140061420     libucrt:timeset_initializer.obj
 0002:00000428       __acrt_multibyte_initializer 0000000140061428     libucrt:multibyte_initializer.obj
 0002:00000430       __acrt_fmode_initializer   0000000140061430     libucrt:fmode_initializer.obj
 0002:00000438       __acrt_tran_fma3_initializer 0000000140061438     libucrt:fma3_initializer.obj
 0002:00000440       __xi_z                     0000000140061440     libcmt:initializers.obj
 0002:00000448       __xl_a                     0000000140061448     libcmt:tlssup.obj
 0002:00000450       __xl_z                     0000000140061450     libcmt:tlssup.obj
 0002:00000458       __xp_a                     0000000140061458     libcmt:initializers.obj
 0002:00000460       __acrt_locale_terminator   0000000140061460     libucrt:locale_initializer.obj
 0002:00000468       __dcrt_console_output_terminator 0000000140061468     libucrt:console_output_initializer.obj
 0002:00000470       __acrt_stdio_terminator    0000000140061470     libucrt:stdio_initializer.obj
 0002:00000478       __xp_z                     0000000140061478     libcmt:initializers.obj
 0002:00000480       __xt_a                     0000000140061480     libcmt:initializers.obj
 0002:00000488       __xt_z                     0000000140061488     libcmt:initializers.obj
 0002:000004a0       ??_C@_0BN@BFOPBDLF@Programming?5by?5Eric?5Chauvin?4?$AA@ 00000001400614a0     MainApp-c3b5ae.o
 0002:000004bd       ??_C@_0P@GDGMMJKE@Version?5date?3?5?$AA@ 00000001400614bd     MainApp-c3b5ae.o
 0002:000004cc       ??_C@_01EEMJAFIK@?6?$AA@   00000001400614cc     MainApp-c3b5ae.o
 0002:000004ce       ??_C@_0BB@HHGOBDO@End?5of?5main?5app?4?$AA@ 00000001400614ce     MainApp-c3b5ae.o
 0002:000004df       ??_C@_0DB@KKDKHHOP@An?5unknown?5exception?5happened?5in@ 00000001400614df     MainApp-c3b5ae.o
 0002:00000510       ??_C@_0BJ@HMJBEAJD@Exception?5in?5main?5loop?4?6?$AA@ 0000000140061510     MainApp-c3b5ae.o
 0002:00000529       ??_C@_03HGPLGHGJ@443?$AA@  0000000140061529     MainApp-c3b5ae.o
 0002:0000052d       ??_C@_09PFCHIMEP@127?40?40?41?$AA@ 000000014006152d     MainApp-c3b5ae.o
 0002:00000537       ??_C@_08JFLCILOE@3?15?12024?$AA@ 0000000140061537     MainApp-c3b5ae.o
 0002:00000540       ??_C@_0CB@MKCBIJAC@CharBuf?5copy?5constructor?5called?4@ 0000000140061540     CharBuf-9d1648.o
 0002:00000561       ??_C@_0BF@HAHLNHCG@CharBuf?5test?5basics?4?$AA@ 0000000140061561     CharBuf-9d1648.o
 0002:00000576       ??_C@_0BL@HHDCJMMJ@Casting?5negative?5x?5to?5U64?4?$AA@ 0000000140061576     CharBuf-9d1648.o
 0002:00000591       ??_C@_0BM@LCFHGGJK@ByteArray?4setC?$CI?$CJ?5arraySize?4?$AA@ 0000000140061591     CharBuf-9d1648.o
 0002:000005ad       ??_C@_0BK@GJBJDNNO@ByteArray?4setSize?5howBig?4?$AA@ 00000001400615ad     CharBuf-9d1648.o
 0002:000005c7       ??_C@_0BM@JHFMONIE@ByteArray?4getC?$CI?$CJ?5arraySize?4?$AA@ 00000001400615c7     CharBuf-9d1648.o
 0002:000005e3       ??_C@_0CC@KPLFIJOO@ByteArray?4increaseSize?$CI?$CJ?5howMuch@ 00000001400615e3     CharBuf-9d1648.o
 0002:00000605       ??_C@_0CA@IHFBIABJ@ByteArray?4increaseSize?5too?5big?4?$AA@ 0000000140061605     CharBuf-9d1648.o
 0002:00000625       ??_C@_0BN@MLDJIAGH@ByteArray?4setU8?$CI?$CJ?5arraySize?4?$AA@ 0000000140061625     CharBuf-9d1648.o
 0002:00000642       ??_C@_0BD@GHJONAJG@getU8?$CI?$CJ?5past?5last?4?$AA@ 0000000140061642     CharBuf-9d1648.o
 0002:00000655       ??_C@_0BN@DBBDLGIP@ByteArray?4getU8?$CI?$CJ?5arraySize?4?$AA@ 0000000140061655     CharBuf-9d1648.o
 0002:00000672       ??_C@_0BC@PODGIMA@getC?$CI?$CJ?5past?5last?4?$AA@ 0000000140061672     CharBuf-9d1648.o
 0002:00000684       ??_C@_0CF@MHFOGKCP@ByteArray?4copy?$CI?$CJ?5setToSize?5?$DM?5how@ 0000000140061684     CharBuf-9d1648.o
 0002:000006a9       ??_C@_0CE@EEJNCLHC@ByteArray?4copy?$CI?$CJ?5fromSize?5?$DM?5howM@ 00000001400616a9     CharBuf-9d1648.o
 0002:000006cd       ??_C@_0BO@LDMMEDJL@OpenCharArray?4setSize?5howBig?4?$AA@ 00000001400616cd     CharBuf-9d1648.o
 0002:000006eb       ??_C@_0CA@IIOEFLDE@OpenCharArray?4setC?$CI?$CJ?5arraySize?4?$AA@ 00000001400616eb     CharBuf-9d1648.o
 0002:0000070b       ??_C@_0CA@KNOPNACK@OpenCharArray?4getC?$CI?$CJ?5arraySize?4?$AA@ 000000014006170b     CharBuf-9d1648.o
 0002:000007a3       ??_C@_0BP@OMCMBLKM@FileIO?5writeCharBuf?5exception?4?$AA@ 00000001400617a3     FileIO-72ff47.o
 0002:000007c2       ??_C@_0BP@EGBCKCLJ@FileIO?4readAll?$CI?$CJ?5returned?5?$DM?50?4?$AA@ 00000001400617c2     FileIO-72ff47.o
 0002:000007e1       ??_C@_0BO@NKKLGOKN@FileIO?5returned?5?$DO?51000000000?4?$AA@ 00000001400617e1     FileIO-72ff47.o
 0002:000007ff       ??_C@_0BK@KEJKBNBL@FileIO?5readAll?5exception?4?$AA@ 00000001400617ff     FileIO-72ff47.o
 0002:00000819       ??_C@_0BJ@HBEAJJL@FileIO?5exists?5exception?4?$AA@ 0000000140061819     FileIO-72ff47.o
 0002:00000840       ??_7?$basic_ofstream@DU?$char_traits@D@std@@@std@@6B@ 0000000140061840     FileIO-72ff47.o
 0002:00000848       ??_8?$basic_ofstream@DU?$char_traits@D@std@@@std@@7B@ 0000000140061848     FileIO-72ff47.o
 0002:00000850       ??_R4?$basic_ofstream@DU?$char_traits@D@std@@@std@@6B@ 0000000140061850     FileIO-72ff47.o
 0002:00000868       ??_R3?$basic_ofstream@DU?$char_traits@D@std@@@std@@8 0000000140061868     FileIO-72ff47.o
 0002:00000880       ??_R2?$basic_ofstream@DU?$char_traits@D@std@@@std@@8 0000000140061880     FileIO-72ff47.o
 0002:000008a0       ??_R1A@?0A@EA@?$basic_ofstream@DU?$char_traits@D@std@@@std@@8 00000001400618a0     FileIO-72ff47.o
 0002:000008c0       ??_R1A@?0A@EA@?$basic_ostream@DU?$char_traits@D@std@@@std@@8 00000001400618c0     FileIO-72ff47.o
 0002:000008e0       ??_R3?$basic_ostream@DU?$char_traits@D@std@@@std@@8 00000001400618e0     FileIO-72ff47.o
 0002:000008f0       ??_R2?$basic_ostream@DU?$char_traits@D@std@@@std@@8 00000001400618f0     FileIO-72ff47.o
 0002:00000910       ??_R1A@A@3FA@?$basic_ios@DU?$char_traits@D@std@@@std@@8 0000000140061910     FileIO-72ff47.o
 0002:00000930       ??_R3?$basic_ios@DU?$char_traits@D@std@@@std@@8 0000000140061930     FileIO-72ff47.o
 0002:00000940       ??_R2?$basic_ios@DU?$char_traits@D@std@@@std@@8 0000000140061940     FileIO-72ff47.o
 0002:00000950       ??_R1A@?0A@EA@?$basic_ios@DU?$char_traits@D@std@@@std@@8 0000000140061950     FileIO-72ff47.o
 0002:00000970       ??_R1A@?0A@EA@ios_base@std@@8 0000000140061970     FileIO-72ff47.o
 0002:00000990       ??_R3ios_base@std@@8       0000000140061990     FileIO-72ff47.o
 0002:000009a0       ??_R2ios_base@std@@8       00000001400619a0     FileIO-72ff47.o
 0002:000009b0       ??_R17?0A@EA@?$_Iosb@H@std@@8 00000001400619b0     FileIO-72ff47.o
 0002:000009d0       ??_R3?$_Iosb@H@std@@8      00000001400619d0     FileIO-72ff47.o
 0002:000009e0       ??_R2?$_Iosb@H@std@@8      00000001400619e0     FileIO-72ff47.o
 0002:000009f0       ??_R1A@?0A@EA@?$_Iosb@H@std@@8 00000001400619f0     FileIO-72ff47.o
 0002:00000a10       ??_R1A@A@3EA@ios_base@std@@8 0000000140061a10     FileIO-72ff47.o
 0002:00000a30       ??_R17A@3EA@?$_Iosb@H@std@@8 0000000140061a30     FileIO-72ff47.o
 0002:00000a58       ??_7?$basic_filebuf@DU?$char_traits@D@std@@@std@@6B@ 0000000140061a58     FileIO-72ff47.o
 0002:00000ad0       ??_R4?$basic_filebuf@DU?$char_traits@D@std@@@std@@6B@ 0000000140061ad0     FileIO-72ff47.o
 0002:00000ae8       ??_R3?$basic_filebuf@DU?$char_traits@D@std@@@std@@8 0000000140061ae8     FileIO-72ff47.o
 0002:00000af8       ??_R2?$basic_filebuf@DU?$char_traits@D@std@@@std@@8 0000000140061af8     FileIO-72ff47.o
 0002:00000b10       ??_R1A@?0A@EA@?$basic_filebuf@DU?$char_traits@D@std@@@std@@8 0000000140061b10     FileIO-72ff47.o
 0002:00000b30       ??_R1A@?0A@EA@?$basic_streambuf@DU?$char_traits@D@std@@@std@@8 0000000140061b30     FileIO-72ff47.o
 0002:00000b50       ??_R3?$basic_streambuf@DU?$char_traits@D@std@@@std@@8 0000000140061b50     FileIO-72ff47.o
 0002:00000b60       ??_R2?$basic_streambuf@DU?$char_traits@D@std@@@std@@8 0000000140061b60     FileIO-72ff47.o
 0002:00000b78       ??_7?$basic_streambuf@DU?$char_traits@D@std@@@std@@6B@ 0000000140061b78     FileIO-72ff47.o
 0002:00000bf0       ??_R4?$basic_streambuf@DU?$char_traits@D@std@@@std@@6B@ 0000000140061bf0     FileIO-72ff47.o
 0002:00000c08       ??_C@_0BA@JFNIOLAK@string?5too?5long?$AA@ 0000000140061c08     FileIO-72ff47.o
 0002:00000c18       ??_C@_0BF@KINCDENJ@bad?5array?5new?5length?$AA@ 0000000140061c18     FileIO-72ff47.o
 0002:00000c38       ??_7bad_array_new_length@std@@6B@ 0000000140061c38     FileIO-72ff47.o
 0002:00000c50       ??_R4bad_array_new_length@std@@6B@ 0000000140061c50     FileIO-72ff47.o
 0002:00000c68       ??_R3bad_array_new_length@std@@8 0000000140061c68     FileIO-72ff47.o
 0002:00000c78       ??_R2bad_array_new_length@std@@8 0000000140061c78     FileIO-72ff47.o
 0002:00000c90       ??_R1A@?0A@EA@bad_array_new_length@std@@8 0000000140061c90     FileIO-72ff47.o
 0002:00000cb0       ??_R1A@?0A@EA@bad_alloc@std@@8 0000000140061cb0     FileIO-72ff47.o
 0002:00000cd0       ??_R3bad_alloc@std@@8      0000000140061cd0     FileIO-72ff47.o
 0002:00000ce0       ??_R2bad_alloc@std@@8      0000000140061ce0     FileIO-72ff47.o
 0002:00000cf0       ??_R1A@?0A@EA@exception@std@@8 0000000140061cf0     FileIO-72ff47.o
 0002:00000d10       ??_R3exception@std@@8      0000000140061d10     FileIO-72ff47.o
 0002:00000d20       ??_R2exception@std@@8      0000000140061d20     FileIO-72ff47.o
 0002:00000d38       ??_7bad_alloc@std@@6B@     0000000140061d38     FileIO-72ff47.o
 0002:00000d50       ??_R4bad_alloc@std@@6B@    0000000140061d50     FileIO-72ff47.o
 0002:00000d78       ??_7exception@std@@6B@     0000000140061d78     FileIO-72ff47.o
 0002:00000d90       ??_R4exception@std@@6B@    0000000140061d90     FileIO-72ff47.o
 0002:00000da8       ??_C@_0BC@EOODALEL@Unknown?5exception?$AA@ 0000000140061da8     FileIO-72ff47.o
 0002:00000dba       ??_C@_00CNPNBAHC@?$AA@     0000000140061dba     FileIO-72ff47.o
 0002:00000dbb       ??_C@_0BA@ELKIONDK@bad?5locale?5name?$AA@ 0000000140061dbb     FileIO-72ff47.o
 0002:00000dd8       ??_7?$codecvt@DDU_Mbstatet@@@std@@6B@ 0000000140061dd8     FileIO-72ff47.o
 0002:00000e30       ??_R4?$codecvt@DDU_Mbstatet@@@std@@6B@ 0000000140061e30     FileIO-72ff47.o
 0002:00000e48       ??_R3?$codecvt@DDU_Mbstatet@@@std@@8 0000000140061e48     FileIO-72ff47.o
 0002:00000e60       ??_R2?$codecvt@DDU_Mbstatet@@@std@@8 0000000140061e60     FileIO-72ff47.o
 0002:00000e80       ??_R1A@?0A@EA@?$codecvt@DDU_Mbstatet@@@std@@8 0000000140061e80     FileIO-72ff47.o
 0002:00000ea0       ??_R1A@?0A@EA@codecvt_base@std@@8 0000000140061ea0     FileIO-72ff47.o
 0002:00000ec0       ??_R3codecvt_base@std@@8   0000000140061ec0     FileIO-72ff47.o
 0002:00000ed0       ??_R2codecvt_base@std@@8   0000000140061ed0     FileIO-72ff47.o
 0002:00000ef0       ??_R1A@?0A@EA@facet@locale@std@@8 0000000140061ef0     FileIO-72ff47.o
 0002:00000f10       ??_R3facet@locale@std@@8   0000000140061f10     FileIO-72ff47.o
 0002:00000f20       ??_R2facet@locale@std@@8   0000000140061f20     FileIO-72ff47.o
 0002:00000f30       ??_R1A@?0A@EA@_Facet_base@std@@8 0000000140061f30     FileIO-72ff47.o
 0002:00000f50       ??_R3_Facet_base@std@@8    0000000140061f50     FileIO-72ff47.o
 0002:00000f60       ??_R2_Facet_base@std@@8    0000000140061f60     FileIO-72ff47.o
 0002:00000f70       ??_R17?0A@EA@_Crt_new_delete@std@@8 0000000140061f70     FileIO-72ff47.o
 0002:00000f90       ??_R3_Crt_new_delete@std@@8 0000000140061f90     FileIO-72ff47.o
 0002:00000fa0       ??_R2_Crt_new_delete@std@@8 0000000140061fa0     FileIO-72ff47.o
 0002:00000fb0       ??_R1A@?0A@EA@_Crt_new_delete@std@@8 0000000140061fb0     FileIO-72ff47.o
 0002:00000fd8       ??_7_Facet_base@std@@6B@   0000000140061fd8     FileIO-72ff47.o
 0002:00000ff0       ??_R4_Facet_base@std@@6B@  0000000140061ff0     FileIO-72ff47.o
 0002:00001010       ??_7ios_base@std@@6B@      0000000140062010     FileIO-72ff47.o
 0002:00001020       ??_R4ios_base@std@@6B@     0000000140062020     FileIO-72ff47.o
 0002:00001040       ??_7?$basic_ifstream@DU?$char_traits@D@std@@@std@@6B@ 0000000140062040     FileIO-72ff47.o
 0002:00001048       ??_8?$basic_ifstream@DU?$char_traits@D@std@@@std@@7B@ 0000000140062048     FileIO-72ff47.o
 0002:00001050       ??_R4?$basic_ifstream@DU?$char_traits@D@std@@@std@@6B@ 0000000140062050     FileIO-72ff47.o
 0002:00001068       ??_R3?$basic_ifstream@DU?$char_traits@D@std@@@std@@8 0000000140062068     FileIO-72ff47.o
 0002:00001080       ??_R2?$basic_ifstream@DU?$char_traits@D@std@@@std@@8 0000000140062080     FileIO-72ff47.o
 0002:000010a0       ??_R1A@?0A@EA@?$basic_ifstream@DU?$char_traits@D@std@@@std@@8 00000001400620a0     FileIO-72ff47.o
 0002:000010c0       ??_R1A@?0A@EA@?$basic_istream@DU?$char_traits@D@std@@@std@@8 00000001400620c0     FileIO-72ff47.o
 0002:000010e0       ??_R3?$basic_istream@DU?$char_traits@D@std@@@std@@8 00000001400620e0     FileIO-72ff47.o
 0002:000010f0       ??_R2?$basic_istream@DU?$char_traits@D@std@@@std@@8 00000001400620f0     FileIO-72ff47.o
 0002:00001110       ??_7?$basic_ios@DU?$char_traits@D@std@@@std@@6B@ 0000000140062110     FileIO-72ff47.o
 0002:00001120       ??_R4?$basic_ios@DU?$char_traits@D@std@@@std@@6B@ 0000000140062120     FileIO-72ff47.o
 0002:00001140       ??_7?$basic_ostream@DU?$char_traits@D@std@@@std@@6B@ 0000000140062140     FileIO-72ff47.o
 0002:00001150       ??_R4?$basic_ostream@DU?$char_traits@D@std@@@std@@6B@ 0000000140062150     FileIO-72ff47.o
 0002:00001168       ??_C@_0BF@PHHKMMFD@ios_base?3?3badbit?5set?$AA@ 0000000140062168     FileIO-72ff47.o
 0002:0000117d       ??_C@_0BG@FMKFHCIL@ios_base?3?3failbit?5set?$AA@ 000000014006217d     FileIO-72ff47.o
 0002:00001193       ??_C@_0BF@OOHOMBOF@ios_base?3?3eofbit?5set?$AA@ 0000000140062193     FileIO-72ff47.o
 0002:000011b8       ??_7_Iostream_error_category2@std@@6B@ 00000001400621b8     FileIO-72ff47.o
 0002:000011f0       ??_R4_Iostream_error_category2@std@@6B@ 00000001400621f0     FileIO-72ff47.o
 0002:00001208       ??_R3_Iostream_error_category2@std@@8 0000000140062208     FileIO-72ff47.o
 0002:00001218       ??_R2_Iostream_error_category2@std@@8 0000000140062218     FileIO-72ff47.o
 0002:00001230       ??_R1A@?0A@EA@_Iostream_error_category2@std@@8 0000000140062230     FileIO-72ff47.o
 0002:00001250       ??_R1A@?0A@EA@error_category@std@@8 0000000140062250     FileIO-72ff47.o
 0002:00001270       ??_R3error_category@std@@8 0000000140062270     FileIO-72ff47.o
 0002:00001280       ??_R2error_category@std@@8 0000000140062280     FileIO-72ff47.o
 0002:00001288       ??_C@_08LLGCOLLL@iostream?$AA@ 0000000140062288     FileIO-72ff47.o
 0002:000012a0       ?_Iostream_error@?4??message@_Iostream_error_category2@std@@UEBA?AV?$basic_string@DU?$char_traits@D@std@@V?$allocator@D@2@@3@H@Z@4QBDB 00000001400622a0     FileIO-72ff47.o
 0002:000012c8       ??_7failure@ios_base@std@@6B@ 00000001400622c8     FileIO-72ff47.o
 0002:000012e0       ??_R4failure@ios_base@std@@6B@ 00000001400622e0     FileIO-72ff47.o
 0002:000012f8       ??_R3failure@ios_base@std@@8 00000001400622f8     FileIO-72ff47.o
 0002:00001310       ??_R2failure@ios_base@std@@8 0000000140062310     FileIO-72ff47.o
 0002:00001330       ??_R1A@?0A@EA@failure@ios_base@std@@8 0000000140062330     FileIO-72ff47.o
 0002:00001350       ??_R1A@?0A@EA@system_error@std@@8 0000000140062350     FileIO-72ff47.o
 0002:00001370       ??_R3system_error@std@@8   0000000140062370     FileIO-72ff47.o
 0002:00001380       ??_R2system_error@std@@8   0000000140062380     FileIO-72ff47.o
 0002:000013a0       ??_R1A@?0A@EA@_System_error@std@@8 00000001400623a0     FileIO-72ff47.o
 0002:000013c0       ??_R3_System_error@std@@8  00000001400623c0     FileIO-72ff47.o
 0002:000013d0       ??_R2_System_error@std@@8  00000001400623d0     FileIO-72ff47.o
 0002:000013e0       ??_R1A@?0A@EA@runtime_error@std@@8 00000001400623e0     FileIO-72ff47.o
 0002:00001400       ??_R3runtime_error@std@@8  0000000140062400     FileIO-72ff47.o
 0002:00001410       ??_R2runtime_error@std@@8  0000000140062410     FileIO-72ff47.o
 0002:00001428       ??_7system_error@std@@6B@  0000000140062428     FileIO-72ff47.o
 0002:00001440       ??_R4system_error@std@@6B@ 0000000140062440     FileIO-72ff47.o
 0002:00001468       ??_7_System_error@std@@6B@ 0000000140062468     FileIO-72ff47.o
 0002:00001480       ??_R4_System_error@std@@6B@ 0000000140062480     FileIO-72ff47.o
 0002:00001498       ??_C@_02LMMGGCAJ@?3?5?$AA@ 0000000140062498     FileIO-72ff47.o
 0002:000014a8       ??_7runtime_error@std@@6B@ 00000001400624a8     FileIO-72ff47.o
 0002:000014c0       ??_R4runtime_error@std@@6B@ 00000001400624c0     FileIO-72ff47.o
 0002:000014e8       ??_7?$ctype@D@std@@6B@     00000001400624e8     FileIO-72ff47.o
 0002:00001540       ??_R4?$ctype@D@std@@6B@    0000000140062540     FileIO-72ff47.o
 0002:00001558       ??_R3?$ctype@D@std@@8      0000000140062558     FileIO-72ff47.o
 0002:00001570       ??_R2?$ctype@D@std@@8      0000000140062570     FileIO-72ff47.o
 0002:00001590       ??_R1A@?0A@EA@?$ctype@D@std@@8 0000000140062590     FileIO-72ff47.o
 0002:000015b0       ??_R1A@?0A@EA@ctype_base@std@@8 00000001400625b0     FileIO-72ff47.o
 0002:000015d0       ??_R3ctype_base@std@@8     00000001400625d0     FileIO-72ff47.o
 0002:000015e0       ??_R2ctype_base@std@@8     00000001400625e0     FileIO-72ff47.o
 0002:00001600       ??_7?$basic_istream@DU?$char_traits@D@std@@@std@@6B@ 0000000140062600     FileIO-72ff47.o
 0002:00001610       ??_R4?$basic_istream@DU?$char_traits@D@std@@@std@@6B@ 0000000140062610     FileIO-72ff47.o
 0002:00001628       ??_C@_0BA@DAAHHHCI@Stack?5address?3?5?$AA@ 0000000140062628     StIO-57413d.o
 0002:00001638       ??_C@_02BBAHNLBA@?$CFp?$AA@ 0000000140062638     StIO-57413d.o
 0002:0000163b       ??_C@_02DKCKIIND@?$CFs?$AA@ 000000014006263b     StIO-57413d.o
 0002:0000163e       ??_C@_04BFAHMMK@?$CFlld?$AA@ 000000014006263e     StIO-57413d.o
 0002:00001643       ??_C@_04FCIJFPNK@?$CFllu?$AA@ 0000000140062643     StIO-57413d.o
 0002:00001648       ??_C@_02NJNOFBBI@?$CFx?$AA@ 0000000140062648     StIO-57413d.o
 0002:0000164b       ??_C@_0CE@CFODJHIH@Uint16Array?4increaseSize?$CI?$CJ?5howMu@ 000000014006264b     Uint16Buf-ce17d0.o
 0002:0000166f       ??_C@_0CC@FDMJHOHE@Uint16Array?4increaseSize?5too?5big@ 000000014006266f     Uint16Buf-ce17d0.o
 0002:00001691       ??_C@_0CH@NGBBFBBE@Uint16Array?4copy?$CI?$CJ?5setToSize?5?$DM?5h@ 0000000140062691     Uint16Buf-ce17d0.o
 0002:000016b8       ??_C@_0CG@KKNEMKJ@Uint16Array?4copy?$CI?$CJ?5fromSize?5?$DM?5ho@ 00000001400626b8     Uint16Buf-ce17d0.o
 0002:000016de       ??_C@_0BM@OPGHOLDD@Uint16Array?4setVal?$CI?$CJ?5range?4?$AA@ 00000001400626de     Uint16Buf-ce17d0.o
 0002:000016fa       ??_C@_0BO@PAOGHHON@Uint16Buf?4getVal?$CI?$CJ?5past?5last?4?$AA@ 00000001400626fa     UTF8Str-a1c50b.o
 0002:00001718       ??_C@_0BM@NNHBJJCK@Uint16Array?4getVal?$CI?$CJ?5range?4?$AA@ 0000000140062718     UTF8Str-a1c50b.o
 0002:00001734       ??_C@_0BP@CFHFJCLC@Int32Array?4setVal?5where?5range?4?$AA@ 0000000140062734     Crt-d7e29a.o
 0002:00001753       ??_C@_0CD@DGOOENCI@Int32Array?4getVal?5arraySize?5rang@ 0000000140062753     Crt-d7e29a.o
 0002:00001776       ??_C@_0BM@OINGAJ@Crt3?4toInteger?5digit?5range?4?$AA@ 0000000140062776     Crt3-90c9a5.o
 0002:00002d68       ??_C@_0BP@LOFKIOBM@CrtMath?4getCrtDigit?5row?5range?4?$AA@ 0000000140063d68     Crt3-90c9a5.o
 0002:00002d87       ??_C@_0BP@PPLHEJLL@CrtMath?4getCrtDigit?5col?5range?4?$AA@ 0000000140063d87     Crt3-90c9a5.o
 0002:00002da6       ??_C@_0CA@LNEHHFFJ@Crt3?3?3setFromCrtAt?5where?5range?4?$AA@ 0000000140063da6     Crt3-90c9a5.o
 0002:00002dc6       ??_C@_0BA@GABOPAAC@CrtMath?5init?$CI?$CJ?4?$AA@ 0000000140063dc6     CrtMath-a36de9.o
 0002:000043a8       ??_C@_0CD@BCFEFKGF@MultInverse?$CI?$CJ?5false?5with?5Garner?5@ 00000001400653a8     Garner-7c4afe.o
 0002:000043cb       ??_C@_0CD@BABCOEDM@MultInverse?$CI?$CJ?5false?5with?5Garner?5@ 00000001400653cb     Garner-7c4afe.o
 0002:000043ee       ??_C@_0BP@FEGMGBM@MultInverse?$CI?$CJ?5false?5with?5qInv?4?$AA@ 00000001400653ee     Garner-7c4afe.o
 0002:0000440d       ??_C@_0BL@HHGBJILK@Garner?3?3testCrt?$CI?$CJ?5was?5bad?4?$AA@ 000000014006540d     Garner-7c4afe.o
 0002:000059f8       ??_C@_0BM@CBLANJNP@GarnerCrt?4setupConstants?$CI?$CJ?4?$AA@ 00000001400669f8     GarnerCrt-2d2605.o
 0002:00005a14       ??_C@_02GFBIKAOH@m?3?$AA@  0000000140066a14     GarnerCrt-2d2605.o
 0002:00005a17       ??_C@_0BJ@MALCFLAG@GarnerCrt?4setupConstants?$AA@ 0000000140066a17     GarnerCrt-2d2605.o
 0002:00005a30       ??_C@_0CG@KNODPJIP@MultInverse?$CI?$CJ?5false?5with?5GarnerC@ 0000000140066a30     GarnerCrt-2d2605.o
 0002:00005a56       ??_C@_0BH@KPJMPLII@GarnerCrt?4toInteger?$CI?$CJ?4?$AA@ 0000000140066a56     GarnerCrt-2d2605.o
 0002:00007040       ??_C@_0BD@FBFKJMDF@GoodX?5constructor?4?$AA@ 0000000140068040     GoodX-ae9673.o
 0002:00007053       ??_C@_0BM@KMHHIFLP@Copy?5constructor?5for?5GoodX?4?$AA@ 0000000140068053     GoodX-ae9673.o
 0002:0000706f       ??_C@_0O@NPNDOBJJ@GoodX?5init?$CI?$CJ?4?$AA@ 000000014006806f     GoodX-ae9673.o
 0002:0000707d       ??_C@_0BK@NJGCDDEA@BoolArray?5array?5size?5?$DM?51?4?$AA@ 000000014006807d     GoodX-ae9673.o
 0002:00007097       ??_C@_0BF@DFLLADCP@MultInv?5constructor?4?$AA@ 0000000140068097     MultInv-2bbd1e.o
 0002:000070ac       ??_C@_0BO@CJALCNBF@Copy?5constructor?5for?5MultInv?4?$AA@ 00000001400680ac     MultInv-2bbd1e.o
 0002:000070ca       ??_C@_0BH@OGIOCMNM@getInv?5knownX?5is?5zero?4?$AA@ 00000001400680ca     MultInv-2bbd1e.o
 0002:000070e1       ??_C@_0CC@EIEJGNGP@getInv?5with?5modulus?5that?5is?5zero@ 00000001400680e1     MultInv-2bbd1e.o
 0002:00007103       ??_C@_0BP@IIPBHPHB@getInv?5with?5modulus?5?$DM?$DN?5knownX?4?$AA@ 0000000140068103     MultInv-2bbd1e.o
 0002:00007122       ??_C@_0CI@MCPNCCPH@getInv?5The?5initialModulus?5was?5ne@ 0000000140068122     MultInv-2bbd1e.o
 0002:0000714a       ??_C@_0CD@FFCILGCJ@getInv?5initialKnownX?5was?5negativ@ 000000014006814a     MultInv-2bbd1e.o
 0002:0000716d       ??_C@_0BC@NPMGDHHE@getInv?$CI?$CJ?5is?5bad?4?6?$AA@ 000000014006816d     MultInv-2bbd1e.o
 0002:0000717f       ??_C@_0BO@DLMMELAD@Truncating?5from?5a?5negative?5x?4?$AA@ 000000014006817f     MultInv-2bbd1e.o
 0002:0000719d       ??_C@_0BM@BCCCMGJD@Truncating?5too?5big?5of?5an?5x?4?$AA@ 000000014006819d     MultInv-2bbd1e.o
 0002:000071b9       ??_C@_0BP@NFLCOFEB@Base10Number?5copy?5constructor?4?$AA@ 00000001400681b9     Base10Number-97dd3b.o
 0002:000071d8       ??_C@_0CB@KNAHDHGG@Base10Number?3?5Too?5big?5for?5array?4@ 00000001400681d8     Base10Number-97dd3b.o
 0002:000071f9       ??_C@_0BP@GIADBEOF@Base10Number?3?5no?5valid?5digits?4?$AA@ 00000001400681f9     Base10Number-97dd3b.o
 0002:00007218       ??_C@_0BP@KGENIDAA@Divide?4shortDivide?5index?5?$CB?$DN?50?4?$AA@ 0000000140068218     Division-e4da29.o
 0002:00007237       ??_C@_0CF@MLINHOIM@shortDivide?$CI?$CJ?5?$CIdivideByU?5?$DO?$DO?524?$CJ?5@ 0000000140068237     Division-e4da29.o
 0002:0000725c       ??_C@_0CE@PFAIAMHO@Divide?4shortDivide?5test?5answer?5b@ 000000014006825c     Division-e4da29.o
 0002:00007280       ??_C@_0CI@PJBCBMJ@shortDivideRem?$CI?$CJ?5?$CIdivideByU?5?$DO?$DO?52@ 0000000140068280     Division-e4da29.o
 0002:000072a8       ??_C@_0BN@OKMOGBBP@Divide?5toDivide?5is?5negative?4?$AA@ 00000001400682a8     Division-e4da29.o
 0002:000072c5       ??_C@_0BN@JDNFOJJO@Divide?4divideBy?5is?5negative?4?$AA@ 00000001400682c5     Division-e4da29.o
 0002:000072e2       ??_C@_0BL@MFMPGNBA@Divide?$CI?$CJ?5dividing?5by?5zero?4?$AA@ 00000001400682e2     Division-e4da29.o
 0002:000072fd       ??_C@_0CE@FMCLDPNE@Remainder?5?$DO?5DivideBy?5LongDivide2@ 00000001400682fd     Division-e4da29.o
 0002:00007321       ??_C@_0CE@NEOOABEK@Remainder?5?$DO?5DivideBy?5longDivide2@ 0000000140068321     Division-e4da29.o
 0002:00007345       ??_C@_0BP@EDEBPOLN@toTest?5is?5zero?5in?5findShiftBy?4?$AA@ 0000000140068345     Division-e4da29.o
 0002:00007364       ??_C@_0BK@DHFIJMBF@TestIndex?5?$DM?50?5in?5Divide3?4?$AA@ 0000000140068364     Division-e4da29.o
 0002:0000737e       ??_C@_0CA@CLOIEPJG@Divide?5divideBy?5is?5zero?5at?5top?4?$AA@ 000000014006837e     Division-e4da29.o
 0002:0000739e       ??_C@_0CH@CGNAEHEO@MaxValue?5zero?5at?5top?5in?5LongDivi@ 000000014006839e     Division-e4da29.o
 0002:000073c5       ??_C@_0BM@BBFFDFIG@Divide3?$CI?$CJ?5?$CBtest2?4IsEqual?$CI?$CJ?4?$AA@ 00000001400683c5     Division-e4da29.o
 0002:000073e1       ??_C@_0CD@NBPPMJFM@After?5decrement?3?5MaxValue?5is?5zer@ 00000001400683e1     Division-e4da29.o
 0002:00007404       ??_C@_0CE@GBELBGGE@Remainder?5?$DO?5DivideBy?5LongDivide3@ 0000000140068404     Division-e4da29.o
 0002:00007428       ??_C@_0BK@ICCLDGNP@Problem?5in?5LongDivide3?$CI?$CJ?4?$AA@ 0000000140068428     Division-e4da29.o
 0002:00007442       ??_C@_0CE@OJIOCIPK@Remainder?5?$DO?5DivideBy?5longDivide3@ 0000000140068442     Division-e4da29.o
 0002:00008a38       ??_C@_0CA@OPEDDPJA@Integer?4getAsLong48?$CI?$CJ?5negative?4?$AA@ 0000000140069a38     Division-e4da29.o
 0002:00008a58       ??_C@_0BP@PEPFMJKO@Integer?4getAsLong48?$CI?$CJ?5too?5big?4?$AA@ 0000000140069a58     Division-e4da29.o
 0002:00008a77       ??_C@_0BM@CAODLEPO@Exponents?5copy?5constructor?4?$AA@ 0000000140069a77     Exponents-d95490.o
 0002:00008a93       ??_C@_0BP@OMMBKPAH@Base?5?$DN?5modulus?5in?5setupBase?$CI?$CJ?4?$AA@ 0000000140069a93     Exponents-d95490.o
 0002:00008ab2       ??_C@_0BB@MKMGBDFI@oneBase?5is?5zero?4?$AA@ 0000000140069ab2     Exponents-d95490.o
 0002:00008ac3       ??_C@_0BA@EIGDCADF@result?5is?5zero?4?$AA@ 0000000140069ac3     Exponents-d95490.o
 0002:0000a0a8       ??_C@_0BJ@PGJOOPKC@Int56?5Multiply?5overflow?4?$AA@ 000000014006b0a8     Int56-a7f3da.o
 0002:0000a0c1       ??_C@_0BF@GIKGKPHB@Int56?5divide?5is?5bad?4?$AA@ 000000014006b0c1     Int56-a7f3da.o
 0002:0000a0d6       ??_C@_0BO@GHDIDDKA@Int56?4getAsLong?$CI?$CJ?5too?5big?5N2?4?$AA@ 000000014006b0d6     Int56-a7f3da.o
 0002:0000a0f4       ??_C@_0CC@OHELJHCA@Int56?4getAsLong?$CI?$CJ?5too?5big?5Base56@ 000000014006b0f4     Int56-a7f3da.o
 0002:0000a116       ??_C@_0CC@MEHBJGLE@Int56?5setFromLong?5toSet?5negative@ 000000014006b116     Int56-a7f3da.o
 0002:0000a138       ??_C@_0CF@GMIKAKFI@Int56?5setFromLong?5toSet?5?$DO?$DO?556?$CJ?5?$CB@ 000000014006b138     Int56-a7f3da.o
 0002:0000a15d       ??_C@_0BA@CACLADJB@Int56?5overflow?4?$AA@ 000000014006b15d     Int56-a7f3da.o
 0002:0000a16d       ??_C@_0BK@NOMALMCA@Integer?4setIndex?$CI?$CJ?5range?4?$AA@ 000000014006b16d     Integer-411c6a.o
 0002:0000a187       ??_C@_0BK@ECMIMKAB@Integer?4copyUpTo?$CI?$CJ?5range?4?$AA@ 000000014006b187     Integer-411c6a.o
 0002:0000a1a1       ??_C@_0BG@KGOKLHAF@Integer?4getD?$CI?$CJ?5range?4?$AA@ 000000014006b1a1     Integer-411c6a.o
 0002:0000a1b7       ??_C@_0BG@NJPEAEHC@Integer?4setD?$CI?$CJ?5range?4?$AA@ 000000014006b1b7     Integer-411c6a.o
 0002:0000a1cd       ??_C@_0BM@EFGPAACM@Integer?4setD?$CI?$CJ?5toSet?5range?4?$AA@ 000000014006b1cd     Integer-411c6a.o
 0002:0000a1e9       ??_C@_0BI@NIBJNDCF@Integer?4setD48?$CI?$CJ?5range?4?$AA@ 000000014006b1e9     Integer-411c6a.o
 0002:0000a201       ??_C@_0BO@EKOGGIPI@Integer?4setD48?$CI?$CJ?5toSet?5range?4?$AA@ 000000014006b201     Integer-411c6a.o
 0002:0000a21f       ??_C@_0BN@EIGGHNGA@Integer?4setFromInt24?$CI?$CJ?5size?4?$AA@ 000000014006b21f     Integer-411c6a.o
 0002:0000a23c       ??_C@_0CE@MEDFHEK@Integer?4setFromLong48?$CI?$CJ?5toSet?5si@ 000000014006b23c     Integer-411c6a.o
 0002:0000a260       ??_C@_0BK@BMNGLDAO@Integer?4carry?$CI?$CJ?5overflow?4?$AA@ 000000014006b260     Integer-411c6a.o
 0002:0000a27a       ??_C@_0CB@OBLOGCLM@Integer?4addLong48?$CI?$CJ?5toAdd?5range?4@ 000000014006b27a     Integer-411c6a.o
 0002:0000a29b       ??_C@_0BJ@LGHPAGEI@Integer?4add?5is?5negative?4?$AA@ 000000014006b29b     Integer-411c6a.o
 0002:0000a2b4       ??_C@_0BP@LGKCIGBJ@Integer?4add?5toAdd?5is?5negative?4?$AA@ 000000014006b2b4     Integer-411c6a.o
 0002:0000a2d3       ??_C@_0CA@LBGBLAPL@Integer?4shiftLeft?5shiftBy?5?$DO?524?4?$AA@ 000000014006b2d3     Integer-411c6a.o
 0002:0000a2f3       ??_C@_0BO@KFIBPHOB@Integer?4shiftLeft?5overflowed?4?$AA@ 000000014006b2f3     Integer-411c6a.o
 0002:0000a311       ??_C@_0CC@HCKOKMJK@Integer?4shiftDigitsLeft?5negative@ 000000014006b311     Integer-411c6a.o
 0002:0000a333       ??_C@_0CB@MLBBGMCL@Integer?4shiftDigitsLeft?5too?5big?4@ 000000014006b333     Integer-411c6a.o
 0002:0000a354       ??_C@_0CB@FIMLPEK@Integer?4shiftRight?5shiftBy?5?$DO?524?4@ 000000014006b354     Integer-411c6a.o
 0002:0000a375       ??_C@_0BN@KNBOBFF@Integer?4shiftRight?5negative?4?$AA@ 000000014006b375     Integer-411c6a.o
 0002:0000a392       ??_C@_0CI@LIKDEGMB@Integer?4setDigitAndClear?$CI?$CJ?5where@ 000000014006b392     Integer-411c6a.o
 0002:0000a3ba       ??_C@_0CC@BLLBCHJC@setDigitAndClear?$CI?$CJ?5with?5bad?5zero@ 000000014006b3ba     Integer-411c6a.o
 0002:0000a3dc       ??_C@_0CC@GPMEFLHK@setDigitAndClear?$CI?$CJ?5toSet?5too?5big@ 000000014006b3dc     Integer-411c6a.o
 0002:0000a3fe       ??_C@_0CB@CCPNHNBH@MakeRandomOdd?5index?5is?5too?5high?4@ 000000014006b3fe     Integer-411c6a.o
 0002:0000a41f       ??_C@_0CA@IBCMGFIL@dArray?$FLCount?$FN?5?$DM?50?5MakeRandom?$CI?$CJ?4?$AA@ 000000014006b41f     Integer-411c6a.o
 0002:0000a43f       ??_C@_0CJ@IIFLHDP@?$CIdArray?$FLCount?$FN?5?$DO?$DO?524?$CJ?5?$CB?$DN?50?5MakeR@ 000000014006b43f     Integer-411c6a.o
 0002:0000a468       ??_C@_0CE@CIMIHEG@Integer?4setFromBigEndian?$CI?$CJ?5too?5b@ 000000014006b468     Integer-411c6a.o
 0002:0000a48c       ??_C@_0CG@BJMILDGN@Integer?4setFromBigEndian?$CI?$CJ?5too?5b@ 000000014006b48c     Integer-411c6a.o
 0002:0000a4b2       ??_C@_0BL@FBNHOKGN@Integer?4borrow?$CI?$CJ?5negative?4?$AA@ 000000014006b4b2     Integer-411c6a.o
 0002:0000a4cd       ??_C@_0BN@MAKHAIJL@Integer?4subtract?$CI?$CJ?5negative?4?$AA@ 000000014006b4cd     Integer-411c6a.o
 0002:0000a4ea       ??_C@_0CD@NLAJHBEL@Integer?4subtract?$CI?$CJ?5toSub?5negativ@ 000000014006b4ea     Integer-411c6a.o
 0002:0000a50d       ??_C@_0CI@DFLFAMIJ@Integer?4subtract?$CI?$CJ?5toSub?4index?5?$DO@ 000000014006b50d     Integer-411c6a.o
 0002:0000a535       ??_C@_0CA@CEPNHFKH@Integer?4multiply24?5toMul?5range?4?$AA@ 000000014006b535     Integer-411c6a.o
 0002:0000a555       ??_C@_0CH@MOFABPMH@IntMath?4find64SqrRoot?$CI?$CJ?5toMatch?5@ 000000014006b555     IntegerMath-59f10c.o
 0002:0000a57c       ??_C@_0CG@GPMOKKFI@IntegerMath?4find64SqrRoot?$CI?$CJ?5too?5@ 000000014006b57c     IntegerMath-59f10c.o
 0002:0000a5a2       ??_C@_0CG@NIGGLOJF@IntegerMath?4findL64SqrRoot?$CI?$CJ?5too@ 000000014006b5a2     IntegerMath-59f10c.o
 0002:0000a5c8       ??_C@_0CK@PPKKGALH@IntegerMath?4multiplyLong48?$CI?$CJ?5toM@ 000000014006b5c8     IntegerMath-59f10c.o
 0002:0000a5f2       ??_C@_0BF@NAICOBNC@Multiply?$CI?$CJ?5overflow?4?$AA@ 000000014006b5f2     IntegerMath-59f10c.o
 0002:0000a607       ??_C@_01JOAMLHOP@?9?$AA@   000000014006b607     IntegerMath-59f10c.o
 0002:0000a609       ??_C@_0BI@OAANMGHI@MultiplyTop?$CI?$CJ?5overflow?4?$AA@ 000000014006b609     IntegerMath-59f10c.o
 0002:0000a621       ??_C@_0BL@HEDGKOOA@MultiplyTopOne?$CI?$CJ?5overflow?4?$AA@ 000000014006b621     IntegerMath-59f10c.o
 0002:0000a63c       ??_C@_0CK@CPEMBMJC@This?5needs?5work?4?5Need?5a?5new?5squa@ 000000014006b63c     IntegerMath-59f10c.o
 0002:0000a666       ??_C@_0CD@KKOOLGOF@IntegerMath?4getMod24?5divisor?5?$DM?$DN?5@ 000000014006b666     IntegerMath-59f10c.o
 0002:0000a689       ??_C@_0CG@EGKFPEH@IntegerMath?4getMod24?5divisor?5too@ 000000014006b689     IntegerMath-59f10c.o
 0002:0000bc80       ??_C@_0BK@LNEJKMBB@Setting?5zero?5to?5negative?4?$AA@ 000000014006cc80     IntegerMath-59f10c.o
 0002:0000bc9a       ??_C@_0BM@IAELMCDE@getD?$CI?$CJ?5index?5out?5of?5bounds?4?$AA@ 000000014006cc9a     IntegerMath-59f10c.o
 0002:0000bcb6       ??_C@_0CA@DEILIGGJ@Truncating?5too?5big?5of?5a?5char?5x?4?$AA@ 000000014006ccb6     IntegerMath-59f10c.o
 0002:0000bcd6       ??_C@_0CA@OGOEIGPM@This?5never?5happens?5yet?4?5howBig?4?$AA@ 000000014006ccd6     Mod-fd083a.o
 0002:0000bcf6       ??_C@_0CF@OHOADDNG@mod?4verifyInBaseRange?$CI?$CJ?5is?5negat@ 000000014006ccf6     Mod-fd083a.o
 0002:0000bd1b       ??_C@_0CL@NNNOLIAC@mod?4verifyInBaseRange?$CI?$CJ?5toCheck?5@ 000000014006cd1b     Mod-fd083a.o
 0002:0000bd46       ??_C@_0CG@JACEKEED@mod?4verifyMoreThanZero?$CI?$CJ?5is?5nega@ 000000014006cd46     Mod-fd083a.o
 0002:0000bd6c       ??_C@_0CC@PFBDMIGO@mod?4verifyMoreThanZero?$CI?$CJ?5is?5zero@ 000000014006cd6c     Mod-fd083a.o
 0002:0000bd8e       ??_C@_0BB@FIKPJALB@Mod?4add?$CI?$CJ?5result?$AA@ 000000014006cd8e     Mod-fd083a.o
 0002:0000bd9f       ??_C@_0BA@IDECJNMB@Mod?4add?$CI?$CJ?5toAdd?$AA@ 000000014006cd9f     Mod-fd083a.o
 0002:0000bdaf       ??_C@_0BC@IEJAAAKH@Mod?4addL?$CI?$CJ?5result?$AA@ 000000014006cdaf     Mod-fd083a.o
 0002:0000bdc1       ??_C@_0BE@MMNJDDOA@Mod?4negate?$CI?$CJ?5result?$AA@ 000000014006cdc1     Mod-fd083a.o
 0002:0000bdd5       ??_C@_0BG@MGDDABML@Mod?4Subtract?$CI?$CJ?5result?$AA@ 000000014006cdd5     Mod-fd083a.o
 0002:0000bdeb       ??_C@_0BF@MKOILFBD@Mod?4Subtract?$CI?$CJ?5toSub?$AA@ 000000014006cdeb     Mod-fd083a.o
 0002:0000be00       ??_C@_0BO@CKMJPJPI@Mod?4Subtract?$CI?$CJ?5result?5at?5end?4?$AA@ 000000014006ce00     Mod-fd083a.o
 0002:0000be1e       ??_C@_0BG@CICEBDFJ@Mod?4Multiply?$CI?$CJ?5result?$AA@ 000000014006ce1e     Mod-fd083a.o
 0002:0000be34       ??_C@_0BF@PNNOAGDD@Mod?4Multiply?$CI?$CJ?5toMul?$AA@ 000000014006ce34     Mod-fd083a.o
 0002:0000be49       ??_C@_0BH@CKDBOBGO@Mod?4MultiplyL?$CI?$CJ?5result?$AA@ 000000014006ce49     Mod-fd083a.o
 0002:0000be60       ??_C@_0BF@MCKGGCFF@Mod?4divide?$CI?$CJ?5divisor?$AA@ 000000014006ce60     Mod-fd083a.o
 0002:0000be75       ??_C@_0BH@NAFCKIBH@Mod?4divide?$CI?$CJ?5numerator?$AA@ 000000014006ce75     Mod-fd083a.o
 0002:0000be8c       ??_C@_0BL@KBLPMMOL@Mod?4divide?$CI?$CJ?5result?5at?5end?$AA@ 000000014006ce8c     Mod-fd083a.o
 0002:0000d478       ??_C@_0BO@ICCLNJAM@Copy?5constructor?5for?5NumbSys?4?$AA@ 000000014006e478     NumbSys-f4f128.o
 0002:0000ea68       ??_C@_0BD@KKPHHLLO@parseOneExten?5top?4?$AA@ 000000014006fa68     CertExten-6fb235.o
 0002:0000ea7b       ??_C@_0N@GFJBFKBE@lastSeqVal?3?5?$AA@ 000000014006fa7b     CertExten-6fb235.o
 0002:0000ea88       ??_C@_0BP@DJJBIFMO@CertExten?5not?5an?5objectID?5tag?4?$AA@ 000000014006fa88     CertExten-6fb235.o
 0002:0000eaa7       ??_C@_09LKGOCEDG@objIDOut?3?$AA@ 000000014006faa7     CertExten-6fb235.o
 0002:0000eab1       ??_C@_0BO@DLNFLIDM@Extension?5has?5a?5critical?5val?4?$AA@ 000000014006fab1     CertExten-6fb235.o
 0002:0000eacf       ??_C@_0BH@JALGMMBH@Critical?5bool?5length?3?5?$AA@ 000000014006facf     CertExten-6fb235.o
 0002:0000eae6       ??_C@_0CB@DPAOJPIK@CertExten?5data?5not?5Octet?5string?4@ 000000014006fae6     CertExten-6fb235.o
 0002:0000eb07       ??_C@_0CC@EKDFGPGN@CertExten?3?5No?5matching?5extension@ 000000014006fb07     CertExten-6fb235.o
 0002:0000eb29       ??_C@_0BM@PJIFACEE@Basic?5constraints?5critical?4?$AA@ 000000014006fb29     CertExten-6fb235.o
 0002:0000eb45       ??_C@_0BK@BKFGKGMP@Basic?5key?5usage?5critical?4?$AA@ 000000014006fb45     CertExten-6fb235.o
 0002:0000eb5f       ??_C@_0BM@JKKFCCFE@?6?6?6Parsing?5One?5Certificate?4?$AA@ 000000014006fb5f     Certificate-0fe854.o
 0002:0000eb7b       ??_C@_0CC@CBPOCFKF@parseCertChain?5sequenceCheck?5bad@ 000000014006fb7b     Certificate-0fe854.o
 0002:0000eb9d       ??_C@_08FFOFOLEH@nextCert?$AA@ 000000014006fb9d     Certificate-0fe854.o
 0002:0000eba6       ??_C@_0BD@NHGJDOA@nextCert?5has?5data?4?$AA@ 000000014006fba6     Certificate-0fe854.o
 0002:0000ebb9       ??_C@_0BJ@OHDFPBMK@Certificate?4cpp?5error?51?4?$AA@ 000000014006fbb9     Certificate-0fe854.o
 0002:0000ebd2       ??_C@_0BJ@OFHDEPJD@Certificate?4cpp?5error?52?4?$AA@ 000000014006fbd2     Certificate-0fe854.o
 0002:0000ebeb       ??_C@_0BJ@OELBCFKE@Certificate?4cpp?5error?53?4?$AA@ 000000014006fbeb     Certificate-0fe854.o
 0002:0000ec04       ??_C@_0BE@CLBCJNKG@parseTbsCert?$CI?$CJ?5top?4?$AA@ 000000014006fc04     Certificate-0fe854.o
 0002:0000ec18       ??_C@_0P@IOIMKPKE@TBS?5certLast?3?5?$AA@ 000000014006fc18     Certificate-0fe854.o
 0002:0000ec27       ??_C@_0BJ@NJGLHIL@parseTbsCert?$CI?$CJ?5finished?4?$AA@ 000000014006fc27     Certificate-0fe854.o
 0002:0000ec40       ??_C@_0CI@LMPNACIH@parseVersion?$CI?$CJ?5version?5not?5const@ 000000014006fc40     Certificate-0fe854.o
 0002:0000ec68       ??_C@_0CB@CEOGDLJK@parseVersion?$CI?$CJ?5lastConSpec?5?$CB?$DN?53?4@ 000000014006fc68     Certificate-0fe854.o
 0002:0000ec89       ??_C@_0CE@OKAAHPEH@parseVersion?$CI?$CJ?5version?5not?5Integ@ 000000014006fc89     Certificate-0fe854.o
 0002:0000ecad       ??_C@_0CD@EOFKKHAL@parseVersion?$CI?$CJ?5version?5bad?5lengt@ 000000014006fcad     Certificate-0fe854.o
 0002:0000ecd0       ??_C@_0CD@PGJMOJCP@parseVersion?$CI?$CJ?5not?5version?53?5cer@ 000000014006fcd0     Certificate-0fe854.o
 0002:0000ecf3       ??_C@_0P@KDGOFBGI@Serial?5Number?3?$AA@ 000000014006fcf3     Certificate-0fe854.o
 0002:0000ed02       ??_C@_0BK@CJLDCMJP@algID?5not?5a?5Sequence?5tag?4?$AA@ 000000014006fd02     Certificate-0fe854.o
 0002:0000ed1c       ??_C@_0BL@FOHFOGDE@algID?5not?5an?5objectID?5tag?4?$AA@ 000000014006fd1c     Certificate-0fe854.o
 0002:0000ed37       ??_C@_09PHGANKMG@algIDOut?3?$AA@ 000000014006fd37     Certificate-0fe854.o
 0002:0000ed41       ??_C@_0BB@PEFBCIBF@algObjIDparams?3?5?$AA@ 000000014006fd41     Certificate-0fe854.o
 0002:0000ed52       ??_C@_0N@JJEEHCOA@Zero?5length?4?$AA@ 000000014006fd52     Certificate-0fe854.o
 0002:0000ed5f       ??_C@_0BB@FHHEODJG@parseIssuer?5top?4?$AA@ 000000014006fd5f     Certificate-0fe854.o
 0002:0000ed70       ??_C@_0CA@CLGCOOKI@issuer?5not?5a?5Sequence?5tag?5at?51?4?$AA@ 000000014006fd70     Certificate-0fe854.o
 0002:0000ed90       ??_C@_0BL@EFMBAKIO@issuer?5not?5a?5Set?5tag?5at?52?4?$AA@ 000000014006fd90     Certificate-0fe854.o
 0002:0000edab       ??_C@_0CA@CIOGDKMG@issuer?5not?5a?5Sequence?5tag?5at?53?4?$AA@ 000000014006fdab     Certificate-0fe854.o
 0002:0000edcb       ??_C@_0CB@PKDMODAD@issuerObjID?5not?5an?5objectID?5tag?4@ 000000014006fdcb     Certificate-0fe854.o
 0002:0000edec       ??_C@_0N@BHPNOOMC@issuerIdOut?3?$AA@ 000000014006fdec     Certificate-0fe854.o
 0002:0000edf9       ??_C@_0CB@CMELHJNE@issuer?5is?5not?5a?5printableString?4@ 000000014006fdf9     Certificate-0fe854.o
 0002:0000ee1a       ??_C@_0P@KGCDMDH@issuerNameVal?3?$AA@ 000000014006fe1a     Certificate-0fe854.o
 0002:0000ee29       ??_C@_0BD@CGDJBNJD@parseValidity?5top?4?$AA@ 000000014006fe29     Certificate-0fe854.o
 0002:0000ee3c       ??_C@_0CC@EBDHLAFK@Validity?5not?5a?5Sequence?5tag?5at?51@ 000000014006fe3c     Certificate-0fe854.o
 0002:0000ee5e       ??_C@_0CC@MEEDABLG@Validity?5start?5not?5a?5UTCTime?5tag@ 000000014006fe5e     Certificate-0fe854.o
 0002:0000ee80       ??_C@_0O@OKLJODBO@beginTimeVal?3?$AA@ 000000014006fe80     Certificate-0fe854.o
 0002:0000ee8e       ??_C@_0CA@ECLFNCMG@Validity?5end?5not?5a?5UTCTime?5tag?4?$AA@ 000000014006fe8e     Certificate-0fe854.o
 0002:0000eeae       ??_C@_0M@OMJKGFKK@endTimeVal?3?$AA@ 000000014006feae     Certificate-0fe854.o
 0002:0000eeba       ??_C@_0BC@EDHILLNM@parseSubject?5top?4?$AA@ 000000014006feba     Certificate-0fe854.o
 0002:0000eecc       ??_C@_0CB@DPIPALLE@Subject?5not?5a?5Sequence?5tag?5at?51?4@ 000000014006fecc     Certificate-0fe854.o
 0002:0000eeed       ??_C@_0BM@CKAKCGAG@Subject?5not?5a?5Set?5tag?5at?52?4?$AA@ 000000014006feed     Certificate-0fe854.o
 0002:0000ef09       ??_C@_0CB@DMALNPNK@Subject?5not?5a?5Sequence?5tag?5at?53?4@ 000000014006ff09     Certificate-0fe854.o
 0002:0000ef2a       ??_C@_0CD@HOOBGEJF@Subject?5ObjID?5not?5an?5objectID?5ta@ 000000014006ff2a     Certificate-0fe854.o
 0002:0000ef4d       ??_C@_0O@KBFMPCAA@subjectIdOut?3?$AA@ 000000014006ff4d     Certificate-0fe854.o
 0002:0000ef5b       ??_C@_0BA@OHKPGDBF@subjectNameVal?3?$AA@ 000000014006ff5b     Certificate-0fe854.o
 0002:0000ef6b       ??_C@_0BJ@KCPPMJFM@No?5Subject?5pub?5key?5data?4?$AA@ 000000014006ff6b     Certificate-0fe854.o
 0002:0000ef84       ??_C@_0CH@GEOOEGED@SubjectPubKey?5not?5a?5Sequence?5tag@ 000000014006ff84     Certificate-0fe854.o
 0002:0000efab       ??_C@_0CH@GGKIPIBK@SubjectPubKey?5not?5a?5Sequence?5tag@ 000000014006ffab     Certificate-0fe854.o
 0002:0000efd2       ??_C@_0CD@LAAEMKO@SubjectPubKey?5not?5an?5objectID?5ta@ 000000014006ffd2     Certificate-0fe854.o
 0002:0000eff5       ??_C@_0CJ@CFKDPFIL@SubjectPubKey?5algID?5param?5not?5a?5@ 000000014006fff5     Certificate-0fe854.o
 0002:0000f01e       ??_C@_0CG@ENJOPBBI@SubjectPubKey?5BitStringTag?5not?5r@ 000000014007001e     Certificate-0fe854.o
 0002:0000f044       ??_C@_0BA@HDCPGPGB@Pub?5Key?5Number?3?$AA@ 0000000140070044     Certificate-0fe854.o
 0002:0000f054       ??_C@_0BK@IMLAIPKM@No?5more?5data?5at?5UniqueID?4?$AA@ 0000000140070054     Certificate-0fe854.o
 0002:0000f06e       ??_C@_0N@LFCIHADF@No?5UniqueID?4?$AA@ 000000014007006e     Certificate-0fe854.o
 0002:0000f07b       ??_C@_0CB@NDNLACGB@UniqueID?5has?5to?5be?5BitStringTag?4@ 000000014007007b     Certificate-0fe854.o
 0002:0000f09c       ??_C@_0BL@IJOEGCEH@It?5has?5a?5UniqueIdentifier?4?$AA@ 000000014007009c     Certificate-0fe854.o
 0002:0000f0b7       ??_C@_0BL@CFOOOEEF@Nothing?5at?5first?5UniqueID?4?$AA@ 00000001400700b7     Certificate-0fe854.o
 0002:0000f0d2       ??_C@_0BE@NDAMMMFB@No?5second?5UniqueID?4?$AA@ 00000001400700d2     Certificate-0fe854.o
 0002:0000f0e6       ??_C@_0BP@IKOEMFCI@Nothing?5after?5second?5UniqueID?4?$AA@ 00000001400700e6     Certificate-0fe854.o
 0002:0000f105       ??_C@_0BF@KPNMDINK@No?5extension?5data?51?4?$AA@ 0000000140070105     Certificate-0fe854.o
 0002:0000f11a       ??_C@_0BF@COEAOBFF@parseExtensions?5top?4?$AA@ 000000014007011a     Certificate-0fe854.o
 0002:0000f12f       ??_C@_0BJ@BDOEADPN@extenWrapCheck?5is?5bad?51?4?$AA@ 000000014007012f     Certificate-0fe854.o
 0002:0000f148       ??_C@_0CH@HLMEHELO@extenWrapCheck?5has?5to?5be?5BitStri@ 0000000140070148     Certificate-0fe854.o
 0002:0000f16f       ??_C@_0BF@KNJKIGID@No?5extension?5data?52?4?$AA@ 000000014007016f     Certificate-0fe854.o
 0002:0000f184       ??_C@_0BA@JBALMODK@lastextenWrap?3?5?$AA@ 0000000140070184     Certificate-0fe854.o
 0002:0000f194       ??_C@_0P@DHILAENO@lastouterSeq?3?5?$AA@ 0000000140070194     Certificate-0fe854.o
 0002:0000f1a3       ??_C@_0BE@NNCCDEGP@No?5more?5extensions?4?$AA@ 00000001400701a3     Certificate-0fe854.o
 0002:0000f1b7       ??_C@_0BN@NENKAKA@Extension?5is?5not?5a?5Sequence?4?$AA@ 00000001400701b7     Certificate-0fe854.o
 0002:0000f1d4       ??_C@_0BF@KOLGMAPJ@parseOneExten?5false?4?$AA@ 00000001400701d4     Certificate-0fe854.o
 0002:0000f1e9       ??_C@_0BC@HANAKLJN@parseAlgID?$CI?$CJ?5top?4?$AA@ 00000001400701e9     Certificate-0fe854.o
 0002:0000f1fb       ??_C@_0BG@CEBDAOPC@parseAlgID?5certLast?3?5?$AA@ 00000001400701fb     Certificate-0fe854.o
 0002:0000f211       ??_C@_0BH@MFEDFPNA@parseAlgID?$CI?$CJ?5finished?4?$AA@ 0000000140070211     Certificate-0fe854.o
 0002:0000f228       ??_C@_09FDACFLGJ@2?45?429?414?$AA@ 0000000140070228     Certificate-0fe854.o
 0002:0000f232       ??_C@_09EKBJGKCI@2?45?429?415?$AA@ 0000000140070232     Certificate-0fe854.o
 0002:0000f23c       ??_C@_09HICPAIKK@2?45?429?417?$AA@ 000000014007023c     Certificate-0fe854.o
 0002:0000f246       ??_C@_09OGKMCFCE@2?45?429?419?$AA@ 0000000140070246     Certificate-0fe854.o
 0002:0000f250       ??_C@_09CNPBHLEC@2?45?429?431?$AA@ 0000000140070250     Certificate-0fe854.o
 0002:0000f25a       ??_C@_09GNMCIIB@2?45?429?432?$AA@ 000000014007025a     Certificate-0fe854.o
 0002:0000f264       ??_C@_09EJJNLOEG@2?45?429?435?$AA@ 0000000140070264     Certificate-0fe854.o
 0002:0000f26e       ??_C@_09HLKLNMME@2?45?429?437?$AA@ 000000014007026e     Certificate-0fe854.o
 0002:0000f278       ??_C@_0BN@NCCMBIKP@Parsing?5Certificate?5Message?4?$AA@ 0000000140070278     CertMesg-6e1947.o
 0002:0000f295       ??_C@_0P@KPFHCGFG@certBuf?5last?3?5?$AA@ 0000000140070295     CertMesg-6e1947.o
 0002:0000f2a4       ??_C@_0CA@ICMCHCEH@parseCertMsg?3?5certBuf?5last?5?$DM?54?4?$AA@ 00000001400702a4     CertMesg-6e1947.o
 0002:0000f2c4       ??_C@_0BO@HBGKGLBA@Certificate?5type?5is?5not?5X509?4?$AA@ 00000001400702c4     CertMesg-6e1947.o
 0002:0000f2e2       ??_C@_0BB@CCKNOBHC@certListLength?3?5?$AA@ 00000001400702e2     CertMesg-6e1947.o
 0002:0000f2f3       ??_C@_0BJ@ONPONGEA@Nothing?5left?5in?5certBuf?4?$AA@ 00000001400702f3     CertMesg-6e1947.o
 0002:0000f30c       ??_C@_0N@IKMCFBLE@certLength?3?5?$AA@ 000000014007030c     CertMesg-6e1947.o
 0002:0000f319       ??_C@_0BL@IEFNGKBA@cert?4parseOneCert?5was?5bad?4?$AA@ 0000000140070319     CertMesg-6e1947.o
 0002:0000f334       ??_C@_0M@FMCMIKKJ@derLength?3?5?$AA@ 0000000140070334     CertMesg-6e1947.o
 0002:0000f340       ??_C@_0BE@IAGAPAFC@End?5of?5CertMessage?4?$AA@ 0000000140070340     CertMesg-6e1947.o
 0002:0000f354       ??_C@_0CE@HPLPFBOI@?2Eric?2main?2TlsClient?2CertStatus?4@ 0000000140070354     CertMesg-6e1947.o
 0002:00010948       ??_C@_0CE@GDEBFJKO@Parsing?5Certificate?5Verify?5Messa@ 0000000140071948     CertVerMesg-74fb2f.o
 0002:0001096c       ??_C@_0BM@FDKIEJCH@End?5of?5Cert?5Verify?5Message?4?$AA@ 000000014007196c     CertVerMesg-74fb2f.o
 0002:00010988       ??_C@_0CF@GFHAHEFG@ClientHello?5copy?5constructor?5cal@ 0000000140071988     ClientHello-415e8d.o
 0002:000109ad       ??_C@_0BF@LMFCFGAJ@Parsing?5ClientHello?4?$AA@ 00000001400719ad     ClientHello-415e8d.o
 0002:000109c2       ??_C@_0BC@NJMLOBB@sessionIDLength?3?5?$AA@ 00000001400719c2     ClientHello-415e8d.o
 0002:000109d4       ??_C@_0BN@FAAKDOAF@sessionIDLength?5is?5too?5long?4?$AA@ 00000001400719d4     ClientHello-415e8d.o
 0002:000109f1       ??_C@_0P@DOBMCBNH@cipherLength?3?5?$AA@ 00000001400719f1     ClientHello-415e8d.o
 0002:00010a00       ??_C@_0BK@EEKBFPID@cipherLength?5is?5too?5long?4?$AA@ 0000000140071a00     ClientHello-415e8d.o
 0002:00010a1a       ??_C@_0CA@DBLPNPBF@AES?5128?5standard?5was?5not?5found?4?$AA@ 0000000140071a1a     ClientHello-415e8d.o
 0002:00010a3a       ??_C@_0BK@MILGAMOG@compressionValue?5is?5bad?3?5?$AA@ 0000000140071a3a     ClientHello-415e8d.o
 0002:00010a54       ??_C@_0CH@HEJJAKML@Compression?5method?5should?5have?51@ 0000000140071a54     ClientHello-415e8d.o
 0002:00010a7b       ??_C@_0BJ@HOCDHFCM@index?5for?5extension?5is?3?5?$AA@ 0000000140071a7b     ClientHello-415e8d.o
 0002:00010a94       ??_C@_0BE@GNJBDLOB@?6After?5extensions?4?6?$AA@ 0000000140071a94     ClientHello-415e8d.o
 0002:00010aa8       ??_C@_0CG@LBGELFIN@Exception?5in?5ClientHello?4parseBu@ 0000000140071aa8     ClientHello-415e8d.o
 0002:00010ace       ??_C@_0CH@GJFHHDKC@Exception?5in?5ClientHello?4parseBu@ 0000000140071ace     ClientHello-415e8d.o
 0002:00010af5       ??_C@_0BF@DCIBAAHH@Top?5of?5makeHelloBuf?4?$AA@ 0000000140071af5     ClientHello-415e8d.o
 0002:000120e0       ??_C@_0CD@NCCNPKP@Exception?5in?5ClientTls?4processDa@ 00000001400730e0     ClientTls-3b5e1f.o
 0002:00012103       ??_C@_0CE@GDMNECNP@Exception?5in?5ClientTls?4processDa@ 0000000140073103     ClientTls-3b5e1f.o
 0002:00012127       ??_C@_0BI@JBCHONMM@DerEncode?5where?5is?5?$DM?50?4?$AA@ 0000000140073127     DerEncode-e446e5.o
 0002:0001213f       ??_C@_08GKEFMPJB@?6Level?3?5?$AA@ 000000014007313f     DerEncode-e446e5.o
 0002:00012148       ??_C@_0BL@PBNAGEKP@DerEncode?5tag?5is?5too?5long?4?$AA@ 0000000140073148     DerEncode-e446e5.o
 0002:00012163       ??_C@_0CC@LPJFLMEO@DER?5length?5can?5not?5be?5indefinite@ 0000000140073163     DerEncode-e446e5.o
 0002:00012185       ??_C@_0CC@OKMHFNLO@DerEncode?5length?5too?5many?5octets@ 0000000140073185     DerEncode-e446e5.o
 0002:000121a7       ??_C@_0BN@LNFNCMDE@DerEncode?5index?5?$DO?$DN?5lastCBuf?4?$AA@ 00000001400731a7     DerEncode-e446e5.o
 0002:000121c4       ??_C@_0BD@MFIMKFNP@Class?5Application?6?$AA@ 00000001400731c4     DerEncode-e446e5.o
 0002:000121d7       ??_C@_0BD@PBJKJCIC@Class?5ContextSpec?6?$AA@ 00000001400731d7     DerEncode-e446e5.o
 0002:000121ea       ??_C@_0P@FGCACMOD@Class?5Private?6?$AA@ 00000001400731ea     DerEncode-e446e5.o
 0002:000121f9       ??_C@_0BJ@KNOCBMLP@Context?5Specific?5value?3?5?$AA@ 00000001400731f9     DerEncode-e446e5.o
 0002:00012212       ??_C@_0BB@DLLNCBAE@EndOfContentTag?6?$AA@ 0000000140073212     DerEncode-e446e5.o
 0002:00012223       ??_C@_0M@HPKPBEKK@BooleanTag?6?$AA@ 0000000140073223     DerEncode-e446e5.o
 0002:0001222f       ??_C@_0M@HOCAECKO@IntegerTag?6?$AA@ 000000014007322f     DerEncode-e446e5.o
 0002:0001223b       ??_C@_0O@BILANFEF@BitStringTag?6?$AA@ 000000014007323b     DerEncode-e446e5.o
 0002:00012249       ??_C@_0BA@BPMJOPHE@OctetStringTag?6?$AA@ 0000000140073249     DerEncode-e446e5.o
 0002:00012259       ??_C@_08CBEIIJMC@NullTag?6?$AA@ 0000000140073259     DerEncode-e446e5.o
 0002:00012262       ??_C@_0N@NKHKJIGF@ObjectIDTag?6?$AA@ 0000000140073262     DerEncode-e446e5.o
 0002:0001226f       ??_C@_0BC@CNAEDIAH@ObjectDescripTag?6?$AA@ 000000014007326f     DerEncode-e446e5.o
 0002:00012281       ??_C@_0N@LLOHJPGC@ExternalTag?6?$AA@ 0000000140073281     DerEncode-e446e5.o
 0002:0001228e       ??_C@_0O@HGPALHFJ@RealFloatTag?6?$AA@ 000000014007328e     DerEncode-e446e5.o
 0002:0001229c       ??_C@_0P@IEJIMGCI@EnumeratedTag?6?$AA@ 000000014007329c     DerEncode-e446e5.o
 0002:000122ab       ??_C@_0BA@HEPOJOJP@EmbeddedPdvTag?6?$AA@ 00000001400732ab     DerEncode-e446e5.o
 0002:000122bb       ??_C@_0P@JMNBOGLH@UTF8StringTag?6?$AA@ 00000001400732bb     DerEncode-e446e5.o
 0002:000122ca       ??_C@_0BA@PFKGPIML@RelativeOIDTag?6?$AA@ 00000001400732ca     DerEncode-e446e5.o
 0002:000122da       ??_C@_08LCMKDPDF@TimeTag?6?$AA@ 00000001400732da     DerEncode-e446e5.o
 0002:000122e3       ??_C@_0N@BDHKEIIE@SequenceTag?6?$AA@ 00000001400732e3     DerEncode-e446e5.o
 0002:000122f0       ??_C@_07PBDHDEGE@SetTag?6?$AA@ 00000001400732f0     DerEncode-e446e5.o
 0002:000122f8       ??_C@_0BC@PEOFHKI@NumericStringTag?6?$AA@ 00000001400732f8     DerEncode-e446e5.o
 0002:0001230a       ??_C@_0BE@IFPHOPBD@PrintableStringTag?6?$AA@ 000000014007330a     DerEncode-e446e5.o
 0002:0001231e       ??_C@_0O@PKIADL@T61StringTag?6?$AA@ 000000014007331e     DerEncode-e446e5.o
 0002:0001232c       ??_C@_0BD@JLNOEMOP@VideoTexStringTag?6?$AA@ 000000014007332c     DerEncode-e446e5.o
 0002:0001233f       ??_C@_0O@BFDDINKP@IA5StringTag?6?$AA@ 000000014007333f     DerEncode-e446e5.o
 0002:0001234d       ??_C@_0M@DGCENCON@UTCTimeTag?6?$AA@ 000000014007334d     DerEncode-e446e5.o
 0002:00012359       ??_C@_0BE@BILOPBGI@GeneralizedTimeTag?6?$AA@ 0000000140073359     DerEncode-e446e5.o
 0002:0001236d       ??_C@_0BC@LDJNCHPF@GraphicStringTag?6?$AA@ 000000014007336d     DerEncode-e446e5.o
 0002:0001237f       ??_C@_0BC@KDAFBPNO@VisibleStringTag?6?$AA@ 000000014007337f     DerEncode-e446e5.o
 0002:00012391       ??_C@_0BC@OBEDCONG@GeneralStringTag?6?$AA@ 0000000140073391     DerEncode-e446e5.o
 0002:000123a3       ??_C@_0BE@JANPBPEO@UniversalStringTag?6?$AA@ 00000001400733a3     DerEncode-e446e5.o
 0002:000123b7       ??_C@_0BE@GEEKFNPK@CharacterStringTag?6?$AA@ 00000001400733b7     DerEncode-e446e5.o
 0002:000123cb       ??_C@_0O@HAEABEKB@BMPStringTag?6?$AA@ 00000001400733cb     DerEncode-e446e5.o
 0002:000123d9       ??_C@_08DPKJLPOM@DateTag?6?$AA@ 00000001400733d9     DerEncode-e446e5.o
 0002:000123e2       ??_C@_0O@BLHGPKJK@TimeOfDayTag?6?$AA@ 00000001400733e2     DerEncode-e446e5.o
 0002:000123f0       ??_C@_0N@OMEBFIAG@DateTimeTag?6?$AA@ 00000001400733f0     DerEncode-e446e5.o
 0002:000123fd       ??_C@_0N@HNKIIHPF@DurationTag?6?$AA@ 00000001400733fd     DerEncode-e446e5.o
 0002:0001240a       ??_C@_0L@GGBFNGDM@OidIriTag?6?$AA@ 000000014007340a     DerEncode-e446e5.o
 0002:00012415       ??_C@_0BD@ILMKICHF@RelativeOidIriTag?6?$AA@ 0000000140073415     DerEncode-e446e5.o
 0002:00012428       ??_C@_0BH@NFPFPABO@showTag?$CI?$CJ?5Unknown?5Tag?6?$AA@ 0000000140073428     DerEncode-e446e5.o
 0002:0001243f       ??_C@_0BL@HLIPPEIH@DerObjID?5Length?5too?5short?4?$AA@ 000000014007343f     DerObjID-3ab8de.o
 0002:0001245a       ??_C@_0CB@GNHBGEIN@DerObjID?3?3getOneNumber?5last?5?$DO?$DN?58@ 000000014007345a     DerObjID-3ab8de.o
 0002:0001247b       ??_C@_0BN@GNKCMCLA@CharBuf?4truncateLast?5?$DM?5zero?4?$AA@ 000000014007347b     DerObjID-3ab8de.o
 0002:00012498       ??_C@_0BO@FEPDPJL@CharBuf?4truncateLast?5too?5big?4?$AA@ 0000000140073498     DerObjID-3ab8de.o
 0002:000124b6       ??_C@_0P@LOLNPMMP@Top?5of?5expand?4?$AA@ 00000001400734b6     EncryptTls-885411.o
 0002:000124c5       ??_C@_05DPKLDDFJ@info?3?$AA@ 00000001400734c5     EncryptTls-885411.o
 0002:000124cb       ??_C@_0CI@JKPAGBA@EncryptTls?3?3hkdfExpandLabel?5leng@ 00000001400734cb     EncryptTls-885411.o
 0002:000124f3       ??_C@_06EAMOGBCI@tls13?5?$AA@ 00000001400734f3     EncryptTls-885411.o
 0002:000124fa       ??_C@_0BH@DGPKCIAM@derivedSecret?$CI?$CJ?5hash?3?5?$AA@ 00000001400734fa     EncryptTls-885411.o
 0002:00012511       ??_C@_0BD@OFPIIMFP@setHandshakeKeys?$CI?$CJ?$AA@ 0000000140073511     EncryptTls-885411.o
 0002:00012524       ??_C@_0O@FHNFGLOC@Early?5Secret?3?$AA@ 0000000140073524     EncryptTls-885411.o
 0002:00012532       ??_C@_07MEODAMEL@derived?$AA@ 0000000140073532     EncryptTls-885411.o
 0002:0001253a       ??_C@_0BG@CGLCCJFJ@First?5derived?5secret?3?$AA@ 000000014007353a     EncryptTls-885411.o
 0002:00012550       ??_C@_0BC@CLLDOILA@Handshake?5secret?3?$AA@ 0000000140073550     EncryptTls-885411.o
 0002:00012562       ??_C@_0M@JJJJLOJE@clHelloMsg?3?$AA@ 0000000140073562     EncryptTls-885411.o
 0002:0001256e       ??_C@_0N@DBOCBDOP@srvHelloMsg?3?$AA@ 000000014007356e     EncryptTls-885411.o
 0002:0001257b       ??_C@_0N@LPLHHPDO@c?5hs?5traffic?$AA@ 000000014007357b     EncryptTls-885411.o
 0002:00012588       ??_C@_0O@OEHHHEKN@c?5hs?5traffic?3?$AA@ 0000000140073588     EncryptTls-885411.o
 0002:00012596       ??_C@_0N@LLANJOE@s?5hs?5traffic?$AA@ 0000000140073596     EncryptTls-885411.o
 0002:000125a3       ??_C@_0O@ICMFEIMB@s?5hs?5traffic?3?$AA@ 00000001400735a3     EncryptTls-885411.o
 0002:000125b1       ??_C@_0BL@MCFFMGCA@Derived?5Secret?5for?5Master?3?$AA@ 00000001400735b1     EncryptTls-885411.o
 0002:000125cc       ??_C@_0BH@BPNMANGA@Extract?5Secret?5Master?3?$AA@ 00000001400735cc     EncryptTls-885411.o
 0002:000125e3       ??_C@_03ICHNJLJF@key?$AA@  00000001400735e3     EncryptTls-885411.o
 0002:000125e7       ??_C@_0O@BJEGGMHP@clTrafficKey?3?$AA@ 00000001400735e7     EncryptTls-885411.o
 0002:000125f5       ??_C@_0P@HNOKLLGM@srvTrafficKey?3?$AA@ 00000001400735f5     EncryptTls-885411.o
 0002:00012604       ??_C@_02DONNAIDC@iv?$AA@   0000000140073604     EncryptTls-885411.o
 0002:00012607       ??_C@_0BA@IACKEGFI@srvWriteStatIV?3?$AA@ 0000000140073607     EncryptTls-885411.o
 0002:00012617       ??_C@_0P@EPAKLFB@clWriteStatIV?3?$AA@ 0000000140073617     EncryptTls-885411.o
 0002:00012626       ??_C@_0DD@ODNLONMN@Unknown?5exception?5in?5EncryptTls?4@ 0000000140073626     EncryptTls-885411.o
 0002:00012659       ??_C@_0CI@LPFHPLAJ@Exception?5EncryptTls?4setHandshak@ 0000000140073659     EncryptTls-885411.o
 0002:00012681       ??_C@_0BF@IGKDEEDK@?6?6makeMsgTranscript2?$AA@ 0000000140073681     EncryptTls-885411.o
 0002:00012696       ??_C@_0BM@KJNAFBLB@End?5of?5makeMsgTranscript2?6?6?$AA@ 0000000140073696     EncryptTls-885411.o
 0002:000126b2       ??_C@_0P@NGMKFKAF@setAppDataKeys?$AA@ 00000001400736b2     EncryptTls-885411.o
 0002:000126c1       ??_C@_0N@JLMKFMGC@s?5ap?5traffic?$AA@ 00000001400736c1     EncryptTls-885411.o
 0002:000126ce       ??_C@_0O@IGIOBEFB@s?5ap?5traffic?3?$AA@ 00000001400736ce     EncryptTls-885411.o
 0002:000126dc       ??_C@_0N@CPMNPKLI@c?5ap?5traffic?$AA@ 00000001400736dc     EncryptTls-885411.o
 0002:000126e9       ??_C@_0O@OADMCIDN@c?5ap?5traffic?3?$AA@ 00000001400736e9     EncryptTls-885411.o
 0002:000126f7       ??_C@_0L@CFENJEDK@srvStatIV?3?$AA@ 00000001400736f7     EncryptTls-885411.o
 0002:00012702       ??_C@_09DLACFLGL@clStatIV?3?$AA@ 0000000140073702     EncryptTls-885411.o
 0002:0001270c       ??_C@_0DB@LMFBHLNL@Unknown?5exception?5in?5EncryptTls?4@ 000000014007370c     EncryptTls-885411.o
 0002:0001273d       ??_C@_0CG@HFJHBNHN@Exception?5EncryptTls?4setAppDataK@ 000000014007373d     EncryptTls-885411.o
 0002:00012763       ??_C@_0BE@KPNPPGAK@setDiffHelmOnClient?$AA@ 0000000140073763     EncryptTls-885411.o
 0002:00012777       ??_C@_0BL@OHCPNHOO@EncryptTls?5sharedS?4isZero?4?$AA@ 0000000140073777     EncryptTls-885411.o
 0002:00012792       ??_C@_0BN@LJJLHH@EncryptTls?5sharedBytes?5?$CB?$DN?532?$AA@ 0000000140073792     EncryptTls-885411.o
 0002:000127af       ??_C@_0M@HIKEGCNM@Shared?5Key?3?$AA@ 00000001400737af     EncryptTls-885411.o
 0002:000127bb       ??_C@_0BE@OAJNCNIJ@setDiffHelmOnServer?$AA@ 00000001400737bb     EncryptTls-885411.o
 0002:000127cf       ??_C@_0BJ@JOPFHKFM@sequenceBuf?5?$CB?$DN?512?5bytes?4?$AA@ 00000001400737cf     EncryptTls-885411.o
 0002:000127e8       ??_C@_0BP@ODCJPDIP@CharBuf?3?3xorFrom?5last?5?$CB?$DN?5from?4?$AA@ 00000001400737e8     EncryptTls-885411.o
 0002:00012807       ??_C@_0BP@FBBPBHH@Received?5no?5extensions?5at?5all?4?$AA@ 0000000140073807     ExtenList-adabb6.o
 0002:00012826       ??_C@_0BI@MEMFLIIN@Extension?5list?5length?3?5?$AA@ 0000000140073826     ExtenList-adabb6.o
 0002:0001283e       ??_C@_0BM@DDAFECOI@extListLength?5is?5not?5right?4?$AA@ 000000014007383e     ExtenList-adabb6.o
 0002:0001285a       ??_C@_0BK@MKAPKIKJ@lastList?5?$CB?$DN?5extListLength?$AA@ 000000014007385a     ExtenList-adabb6.o
 0002:00012874       ??_C@_0BA@OPILLEG@?6New?5extension?4?$AA@ 0000000140073874     ExtenList-adabb6.o
 0002:00012884       ??_C@_0M@KPPFDPEN@extLength?3?5?$AA@ 0000000140073884     ExtenList-adabb6.o
 0002:00012890       ??_C@_0BK@JPIILMBN@Break?5at?5end?5of?5ext?5list?4?$AA@ 0000000140073890     ExtenList-adabb6.o
 0002:000128aa       ??_C@_0BI@MLGFAOFJ@Exception?5in?5ExtenList?4?$AA@ 00000001400738aa     ExtenList-adabb6.o
 0002:000128c2       ??_C@_0BJ@OIJDGENE@Exception?5in?5ExtenList?4?6?$AA@ 00000001400738c2     ExtenList-adabb6.o
 0002:000128db       ??_C@_0CD@OGHCOLKL@This?5is?5a?5message?5from?5the?5Serve@ 00000001400738db     ExtenList-adabb6.o
 0002:000128fe       ??_C@_0CD@JCIMHLOK@This?5is?5a?5message?5from?5the?5Clien@ 00000001400738fe     ExtenList-adabb6.o
 0002:00012921       ??_C@_0BB@OCJOGJAK@setOneExt?5last?3?5?$AA@ 0000000140073921     ExtenList-adabb6.o
 0002:00012932       ??_C@_0BL@DDPOPCPJ@Extension?5RecordSizeLimit?4?$AA@ 0000000140073932     ExtenList-adabb6.o
 0002:0001294d       ??_C@_0CJ@MIOIMOAF@Obsolete?5extension?5ExtendedMaste@ 000000014007394d     ExtenList-adabb6.o
 0002:00012976       ??_C@_0CG@NDPFJHKC@Obsolete?5extension?5Renegotiation@ 0000000140073976     ExtenList-adabb6.o
 0002:0001299c       ??_C@_0CA@GAKDAFKI@Extension?5is?5MaxFragmentLength?4?$AA@ 000000014007399c     ExtenList-adabb6.o
 0002:000129bc       ??_C@_0BM@IAIKABJL@Extension?5is?5StatusRequest?4?$AA@ 00000001400739bc     ExtenList-adabb6.o
 0002:000129d8       ??_C@_0BG@CMCKJKOL@Extension?5is?5UseSrtp?4?$AA@ 00000001400739d8     ExtenList-adabb6.o
 0002:000129ee       ??_C@_0BI@IMJHPED@Extension?5is?5HeartBeat?4?$AA@ 00000001400739ee     ExtenList-adabb6.o
 0002:00012a06       ??_C@_0CE@JHEHFNFA@Extension?5is?5AppLayerProtocolNeg@ 0000000140073a06     ExtenList-adabb6.o
 0002:00012a2a       ??_C@_0CC@BEJOIFLN@Extension?5is?5SignedCertTimeStamp@ 0000000140073a2a     ExtenList-adabb6.o
 0002:00012a4c       ??_C@_0BN@JJEAEGPB@Extension?5is?5ClientCertType?4?$AA@ 0000000140073a4c     ExtenList-adabb6.o
 0002:00012a69       ??_C@_0BN@LAHFMMNI@Extension?5is?5ServerCertType?4?$AA@ 0000000140073a69     ExtenList-adabb6.o
 0002:00012a86       ??_C@_0BG@NGNGHBMO@Extension?5is?5Padding?4?$AA@ 0000000140073a86     ExtenList-adabb6.o
 0002:00012a9c       ??_C@_0BL@OKEMKBEJ@Extension?5is?5PreSharedKey?4?$AA@ 0000000140073a9c     ExtenList-adabb6.o
 0002:00012ab7       ??_C@_0BI@JOOCNLI@Extension?5is?5EarlyData?4?$AA@ 0000000140073ab7     ExtenList-adabb6.o
 0002:00012acf       ??_C@_0BF@LLHGBKEF@Extension?5is?5Cookie?4?$AA@ 0000000140073acf     ExtenList-adabb6.o
 0002:00012ae4       ??_C@_0BO@EGLKDEEO@Extension?5is?5PskKeyExchModes?4?$AA@ 0000000140073ae4     ExtenList-adabb6.o
 0002:00012b02       ??_C@_0CF@CJECOKIF@Extension?5is?5CertificateAuthorit@ 0000000140073b02     ExtenList-adabb6.o
 0002:00012b27       ??_C@_0BJ@LJFACFB@Extension?5is?5OidFilters?4?$AA@ 0000000140073b27     ExtenList-adabb6.o
 0002:00012b40       ??_C@_0CA@JNCCEFIP@Extension?5is?5PostHandshakeAuth?4?$AA@ 0000000140073b40     ExtenList-adabb6.o
 0002:00012b60       ??_C@_0BJ@JLIOIPGO@Extension?5type?5unknown?3?5?$AA@ 0000000140073b60     ExtenList-adabb6.o
 0002:00012b79       ??_C@_0BD@NJGIILHA@Extension?5length?3?5?$AA@ 0000000140073b79     ExtenList-adabb6.o
 0002:00012b8c       ??_C@_0BK@OLHGAMPC@ServerNameLength?5is?5zero?4?$AA@ 0000000140073b8c     ExtenList-adabb6.o
 0002:00012ba6       ??_C@_0BD@PFKJNNFG@keyShareSize?5?$CB?$DN?532?$AA@ 0000000140073ba6     ExtenList-adabb6.o
 0002:00014190       ??_C@_0BP@NDKFPCFH@CharBuf?4setU8?5where?5past?5last?4?$AA@ 0000000140075190     ExtenList-adabb6.o
 0002:000141af       ??_C@_0CC@JFFOBPKI@Obsolete?5extension?5SessionTicket@ 00000001400751af     Extension-450c09.o
 0002:000141d1       ??_C@_0BJ@CMOCOJEK@Extension?5is?5ServerName?4?$AA@ 00000001400751d1     Extension-450c09.o
 0002:000141ea       ??_C@_0BB@PHFIPCP@nameListLength?3?5?$AA@ 00000001400751ea     Extension-450c09.o
 0002:000141fb       ??_C@_0CI@JAHAEIMP@Extension?5ServerName?5nameType?5no@ 00000001400751fb     Extension-450c09.o
 0002:00014223       ??_C@_0N@DLIKNAGO@nameLength?3?5?$AA@ 0000000140075223     Extension-450c09.o
 0002:00014230       ??_C@_0BE@CFOKJFAG@The?5server?5name?5is?3?$AA@ 0000000140075230     Extension-450c09.o
 0002:00014244       ??_C@_0BJ@JKAMDJHI@ExtenList?5bad?5host?5name?4?$AA@ 0000000140075244     Extension-450c09.o
 0002:0001425d       ??_C@_0BN@OPBEFJGP@ExtenList?5bad?5host?5name?5127?4?$AA@ 000000014007525d     Extension-450c09.o
 0002:0001427a       ??_C@_0CA@LMIKKLDL@Extension?5is?5SupportedVersions?4?$AA@ 000000014007527a     Extension-450c09.o
 0002:0001429a       ??_C@_0CD@ODLFDHHB@SupportedVersions?5for?5server?5?$CB?$DN?5@ 000000014007529a     Extension-450c09.o
 0002:000142bd       ??_C@_0L@CFHJEKJM@Ver?5High?3?5?$AA@ 00000001400752bd     Extension-450c09.o
 0002:000142c8       ??_C@_09LGCLPMFG@Ver?5Low?3?5?$AA@ 00000001400752c8     Extension-450c09.o
 0002:000142d2       ??_C@_0BP@KFFLGABB@Server?5hello?5says?5not?5TLS?51?43?4?$AA@ 00000001400752d2     Extension-450c09.o
 0002:000142f1       ??_C@_0BP@GHJLFDMG@SupportedVersions?5has?5no?5data?4?$AA@ 00000001400752f1     Extension-450c09.o
 0002:00014310       ??_C@_0BO@EKNBJPJL@SupportedVersions?5listLength?3?$AA@ 0000000140075310     Extension-450c09.o
 0002:0001432e       ??_C@_0CE@MCBMCIEP@SupportedVersions?5verHigh?5is?5not@ 000000014007532e     Extension-450c09.o
 0002:00014352       ??_C@_0BG@LBJHGJAE@Did?5not?5find?5TLS?51?43?4?$AA@ 0000000140075352     Extension-450c09.o
 0002:00014368       ??_C@_0BA@NLAELPPF@It?5has?5TLS?51?43?4?$AA@ 0000000140075368     Extension-450c09.o
 0002:00014378       ??_C@_0BO@GIOLMNHN@Extension?5is?5SupportedGroups?4?$AA@ 0000000140075378     Extension-450c09.o
 0002:00014396       ??_C@_0BJ@BFCDNGFO@SupportedGroups?5no?5data?4?$AA@ 0000000140075396     Extension-450c09.o
 0002:000143af       ??_C@_0N@GJDGBGMA@listLength?3?5?$AA@ 00000001400753af     Extension-450c09.o
 0002:000143bc       ??_C@_06JMMJEMME@high?3?5?$AA@ 00000001400753bc     Extension-450c09.o
 0002:000143c3       ??_C@_05GAPJKNCA@low?3?5?$AA@ 00000001400753c3     Extension-450c09.o
 0002:000143c9       ??_C@_0M@KJIFNKBP@Has?5x25519?4?$AA@ 00000001400753c9     Extension-450c09.o
 0002:000143d5       ??_C@_0BD@MHLGFLCB@Finite?5Field?5low?3?5?$AA@ 00000001400753d5     Extension-450c09.o
 0002:000143e8       ??_C@_0CC@POMADCJP@Extension?5is?5SignatureAlgorithms@ 00000001400753e8     Extension-450c09.o
 0002:0001440a       ??_C@_0BN@DDKIGLHP@SignatureAlgorithms?5no?5data?4?$AA@ 000000014007540a     Extension-450c09.o
 0002:00014427       ??_C@_0L@JCDPKGGH@byteHigh?3?5?$AA@ 0000000140075427     Extension-450c09.o
 0002:00014432       ??_C@_09ENJLDMCI@byteLow?3?5?$AA@ 0000000140075432     Extension-450c09.o
 0002:0001443c       ??_C@_0CE@GKKODDOF@SignatureAlgorithmsCert?5needs?5wo@ 000000014007543c     Extension-450c09.o
 0002:00014460       ??_C@_0CB@MEOOEHKF@SignatureAlgorithmsCert?5no?5data?4@ 0000000140075460     Extension-450c09.o
 0002:00014481       ??_C@_0BH@CNNBCFCH@Extension?5is?5KeyShare?4?$AA@ 0000000140075481     Extension-450c09.o
 0002:00014498       ??_C@_0BD@EFABLOEC@Key?5Share?5no?5data?4?$AA@ 0000000140075498     Extension-450c09.o
 0002:000144ab       ??_C@_0BA@PABHDMCI@last?5keyshare?3?5?$AA@ 00000001400754ab     Extension-450c09.o
 0002:000144bb       ??_C@_0BK@LBBPEFGO@It?5is?5a?5ClientHello?5list?4?$AA@ 00000001400754bb     Extension-450c09.o
 0002:000144d5       ??_C@_0BB@GILOLOGJ@Group?5is?5x25519?4?$AA@ 00000001400754d5     Extension-450c09.o
 0002:000144e6       ??_C@_0P@KGIGIMDD@Group?5is?5x448?4?$AA@ 00000001400754e6     Extension-450c09.o
 0002:000144f5       ??_C@_0BK@CKACBENK@namedGroup?5is?5not?5x25519?4?$AA@ 00000001400754f5     Extension-450c09.o
 0002:0001450f       ??_C@_0N@FNBALHOJ@namedGroup?3?5?$AA@ 000000014007550f     Extension-450c09.o
 0002:0001451c       ??_C@_0L@HMHAEBOO@keyExLen?3?5?$AA@ 000000014007551c     Extension-450c09.o
 0002:00014527       ??_C@_0BJ@PLPPEFPP@keyExLen?5?$CB?$DN?532?4?5Length?3?5?$AA@ 0000000140075527     Extension-450c09.o
 0002:00014540       ??_C@_0BK@KCCHFMLO@Getting?532?5bytes?5for?5key?4?$AA@ 0000000140075540     Extension-450c09.o
 0002:00015b30       ??_C@_0BK@NMEDKIOB@Parsing?5Finished?5Message?4?$AA@ 0000000140076b30     FinishedMesg-e48f06.o
 0002:00015b4a       ??_C@_0BJ@JCEIDKMB@End?5of?5Finished?5Message?4?$AA@ 0000000140076b4a     FinishedMesg-e48f06.o
 0002:00015b63       ??_C@_0CF@EABLJJHN@HandshakeCl?5copy?5constructor?5cal@ 0000000140076b63     HandshakeCl-05007d.o
 0002:00015b88       ??_C@_0BN@GMCAJPHH@accumByte?5HandshakeCl?5type?3?5?$AA@ 0000000140076b88     HandshakeCl-05007d.o
 0002:00015ba5       ??_C@_0N@DLMHIAKL@First?5byte?3?5?$AA@ 0000000140076ba5     HandshakeCl-05007d.o
 0002:00015bb2       ??_C@_0O@EBBDFPBH@Second?5byte?3?5?$AA@ 0000000140076bb2     HandshakeCl-05007d.o
 0002:00015bc0       ??_C@_0N@LKOMLFJF@Third?5byte?3?5?$AA@ 0000000140076bc0     HandshakeCl-05007d.o
 0002:00015bcd       ??_C@_0BL@KOEMPPDD@Handshake?5?5length?5is?5zero?4?$AA@ 0000000140076bcd     HandshakeCl-05007d.o
 0002:00015be8       ??_C@_0BK@NFNDMOIH@Handshake?5record?5length?3?5?$AA@ 0000000140076be8     HandshakeCl-05007d.o
 0002:00015c02       ??_C@_0CC@IIBEBJPM@Doing?5HandShakeCl?5parseMessage?$CI?$CJ@ 0000000140076c02     HandshakeCl-05007d.o
 0002:00015c24       ??_C@_0BJ@BFGBLAAJ@HandshakeCl?5parse?5last?3?5?$AA@ 0000000140076c24     HandshakeCl-05007d.o
 0002:00015c3d       ??_C@_0CE@LNJHKPLO@The?5HandshakeCl?5record?5type?5is?5b@ 0000000140076c3d     HandshakeCl-05007d.o
 0002:00015c61       ??_C@_0BH@FLCKNIMP@?6HelloRequestRESERVED?4?$AA@ 0000000140076c61     HandshakeCl-05007d.o
 0002:00015c78       ??_C@_0BE@INICNOC@Got?5a?5ServerHelloID?$AA@ 0000000140076c78     HandshakeCl-05007d.o
 0002:00015c8c       ??_C@_0BI@GCMJPKDA@NewSessionTicketID?5hex?3?$AA@ 0000000140076c8c     HandshakeCl-05007d.o
 0002:00015ca4       ??_C@_0BB@CCFGNJBG@EndOfEarlyDataID?$AA@ 0000000140076ca4     HandshakeCl-05007d.o
 0002:00015cb5       ??_C@_0BG@EOJFBLJI@EncryptedExtensionsID?$AA@ 0000000140076cb5     HandshakeCl-05007d.o
 0002:00015ccb       ??_C@_0CC@EFNDBBHF@EncryptedExtensionsID?5first?5byte@ 0000000140076ccb     HandshakeCl-05007d.o
 0002:00015ced       ??_C@_0O@NJOHJILG@CertificateID?$AA@ 0000000140076ced     HandshakeCl-05007d.o
 0002:00015cfb       ??_C@_0BF@OBOIOGG@CertificateRequestID?$AA@ 0000000140076cfb     HandshakeCl-05007d.o
 0002:00015d10       ??_C@_0BE@BNKHMKMK@CertificateVerifyID?$AA@ 0000000140076d10     HandshakeCl-05007d.o
 0002:00015d24       ??_C@_0L@OLJNLAAF@FinishedID?$AA@ 0000000140076d24     HandshakeCl-05007d.o
 0002:00015d2f       ??_C@_0M@CNDEOCJG@KeyUpdateID?$AA@ 0000000140076d2f     HandshakeCl-05007d.o
 0002:00015d3b       ??_C@_0O@HOBBLMIJ@MessageHashID?$AA@ 0000000140076d3b     HandshakeCl-05007d.o
 0002:00015d49       ??_C@_0BK@JBOKNOJG@HelloRetryRequestRESERVED?$AA@ 0000000140076d49     HandshakeCl-05007d.o
 0002:00015d63       ??_C@_0CK@BDAMIGKL@HandshakeCl?4parseMessage?5unexpec@ 0000000140076d63     HandshakeCl-05007d.o
 0002:00015d8d       ??_C@_0BL@NJBBPCMJ@?6HandshakeCl?5processInBuf?4?$AA@ 0000000140076d8d     HandshakeCl-05007d.o
 0002:00015da8       ??_C@_0L@KMHNGFKB@recvLast?3?5?$AA@ 0000000140076da8     HandshakeCl-05007d.o
 0002:00015db3       ??_C@_0CA@HLPPAAIG@Error?5in?5HandshakeCl?5accumByte?4?$AA@ 0000000140076db3     HandshakeCl-05007d.o
 0002:00015dd3       ??_C@_0BP@FDJKKFOH@Collected?5a?5Handshake?5message?4?$AA@ 0000000140076dd3     HandshakeCl-05007d.o
 0002:00015df2       ??_C@_0CA@LGIKMPFP@allBytes?5has?5a?5partial?5message?4?$AA@ 0000000140076df2     HandshakeCl-05007d.o
 0002:00015e12       ??_C@_0BG@JCADANMG@CircleBuf?5overflowed?4?$AA@ 0000000140076e12     HandshakeCl-05007d.o
 0002:00015e28       ??_C@_0CG@JLMELDJO@HandshakeSrv?5copy?5constructor?5ca@ 0000000140076e28     HandshakeSrv-3da1c0.o
 0002:00015e4e       ??_C@_0BL@CLDOPANN@accumByte?5Handshake?5type?3?5?$AA@ 0000000140076e4e     HandshakeSrv-3da1c0.o
 0002:00015e69       ??_C@_0CD@JJEBPGMD@Doing?5HandShakeSrv?5parseMessage?$CI@ 0000000140076e69     HandshakeSrv-3da1c0.o
 0002:00015e8c       ??_C@_0BK@FCFMLPJN@HandshakeSrv?5parse?5last?3?5?$AA@ 0000000140076e8c     HandshakeSrv-3da1c0.o
 0002:00015ea6       ??_C@_0CC@MDJDBPOJ@The?5Handshake?5record?5type?5is?5bad@ 0000000140076ea6     HandshakeSrv-3da1c0.o
 0002:00015ec8       ??_C@_0BI@DAMEGOIF@But?5this?5is?5the?5server?4?$AA@ 0000000140076ec8     HandshakeSrv-3da1c0.o
 0002:00015ee0       ??_C@_0BD@GFNCCHJM@NewSessionTicketID?$AA@ 0000000140076ee0     HandshakeSrv-3da1c0.o
 0002:00015ef3       ??_C@_0BB@GEAEPEPM@From?5the?5Client?4?$AA@ 0000000140076ef3     HandshakeSrv-3da1c0.o
 0002:00015f04       ??_C@_0BM@OIDKAMGO@Did?5this?5server?5ask?5for?5it?$DP?$AA@ 0000000140076f04     HandshakeSrv-3da1c0.o
 0002:00015f20       ??_C@_0BN@LHEIJBOI@Server?5doesn?8t?5receive?5this?4?$AA@ 0000000140076f20     HandshakeSrv-3da1c0.o
 0002:00015f3d       ??_C@_0BJ@GIIDDJOL@Not?5ready?5on?5Server?5yet?4?$AA@ 0000000140076f3d     HandshakeSrv-3da1c0.o
 0002:00015f56       ??_C@_0BF@HENMHAH@Handshake?5FinishedID?$AA@ 0000000140076f56     HandshakeSrv-3da1c0.o
 0002:00015f6b       ??_C@_0CL@FHOOBKCH@HandshakeSrv?4parseMessage?5unexpe@ 0000000140076f6b     HandshakeSrv-3da1c0.o
 0002:00015f96       ??_C@_0BJ@JIOEHKDO@?6Handshake?5processInBuf?4?$AA@ 0000000140076f96     HandshakeSrv-3da1c0.o
 0002:00015faf       ??_C@_0BO@DLIMGBNA@Error?5in?5Handshake?5accumByte?4?$AA@ 0000000140076faf     HandshakeSrv-3da1c0.o
 0002:00015fcd       ??_C@_0DN@CLLJAOLL@The?5NetClient?5copy?5constructor?5s@ 0000000140076fcd     NetClient-b9e198.o
 0002:0001600a       ??_C@_0BP@JEPMGGFG@receiveCharBuf?5returned?5false?4?$AA@ 000000014007700a     NetClient-b9e198.o
 0002:00016029       ??_C@_0CD@KBGDMABG@Copy?5constructor?5for?5SClientArra@ 0000000140077029     SClientArray-589ba4.o
 0002:0001604c       ??_C@_0DD@PFMADAFI@The?5Server?5copy?5constructor?5shou@ 000000014007704c     Server-368295.o
 0002:0001607f       ??_C@_0BB@DDHDCBJK@Starting?5server?4?$AA@ 000000014007707f     Server-368295.o
 0002:00016090       ??_C@_0BM@PCJELBDG@Could?5not?5start?5the?5server?4?$AA@ 0000000140077090     Server-368295.o
 0002:000160ac       ??_C@_0BF@KLPAOHON@Server?5is?5listening?4?$AA@ 00000001400770ac     Server-368295.o
 0002:000160c1       ??_C@_0BK@FHFLNCOA@Closing?5server?5on?5Ctrl?9C?4?$AA@ 00000001400770c1     Server-368295.o
 0002:000160db       ??_C@_0P@MPAIENBD@Closed?5server?4?$AA@ 00000001400770db     Server-368295.o
 0002:000160ea       ??_C@_0CF@NKHNFLAN@ServerHello?5copy?5constructor?5cal@ 00000001400770ea     ServerHello-562aa7.o
 0002:0001610f       ??_C@_0BF@JAIICEHM@Parsing?5ServerHello?4?$AA@ 000000014007710f     ServerHello-562aa7.o
 0002:00016124       ??_C@_0N@DDNEINM@cipherHigh?3?5?$AA@ 0000000140077124     ServerHello-562aa7.o
 0002:00016131       ??_C@_0M@CLBJBAGG@cipherLow?3?5?$AA@ 0000000140077131     ServerHello-562aa7.o
 0002:0001613d       ??_C@_0BG@KPADDCHF@cipher?5can?8t?5be?5used?4?$AA@ 000000014007713d     ServerHello-562aa7.o
 0002:00016153       ??_C@_0CJ@FPDCBIP@ServerHello?5compression?5length?5n@ 0000000140077153     ServerHello-562aa7.o
 0002:0001617c       ??_C@_0CG@IHDFMGGM@Exception?5in?5ServerHello?4parseBu@ 000000014007717c     ServerHello-562aa7.o
 0002:000161a2       ??_C@_0CH@LOGMPADP@Exception?5in?5ServerHello?4parseBu@ 00000001400771a2     ServerHello-562aa7.o
 0002:000161c9       ??_C@_0CB@PADAJEGF@Top?5of?5ServerHello?4makeHelloBuf?4@ 00000001400771c9     ServerHello-562aa7.o
 0002:000161ea       ??_C@_0BE@OLFFJAEF@Session?5ID?5length?3?5?$AA@ 00000001400771ea     ServerHello-562aa7.o
 0002:000161fe       ??_C@_0BL@PBPDEDGG@ServerHello?5idLength?5?$DO?532?4?$AA@ 00000001400771fe     ServerHello-562aa7.o
 0002:00016219       ??_C@_0BG@GGKCDMGH@After?5the?5extentions?4?$AA@ 0000000140077219     ServerHello-562aa7.o
 0002:0001622f       ??_C@_0M@BMEACKOO@outBufLen?3?5?$AA@ 000000014007722f     ServerHello-562aa7.o
 0002:00017810       ??_C@_0DG@CHJAHBIJ@The?5ServerTls?5copy?5constructor?5s@ 0000000140078810     ServerTls-d1efc3.o
 0002:00017846       ??_C@_0BD@OFGICIJM@Top?5of?5mainLoop?$CI?$CJ?4?$AA@ 0000000140078846     ServerTls-d1efc3.o
 0002:00017859       ??_C@_0BE@INPJKAPE@Added?5new?5SrvClTls?3?$AA@ 0000000140078859     ServerTls-d1efc3.o
 0002:0001786d       ??_C@_01CLKCMJKC@?5?$AA@   000000014007886d     ServerTls-d1efc3.o
 0002:0001786f       ??_C@_0BO@GJCMCLLF@SocketsApi?5getaddrinfo?5error?4?$AA@ 000000014007886f     SocketsApiWin-91ffcb.o
 0002:0001788d       ??_C@_0BA@GFEMFDFG@Host?5not?5found?4?$AA@ 000000014007888d     SocketsApiWin-91ffcb.o
 0002:0001789d       ??_C@_0BL@GEEOCPJM@resultList?5can?8t?5be?5right?4?$AA@ 000000014007889d     SocketsApiWin-91ffcb.o
 0002:000178b8       ??_C@_0CC@LCLGJHP@The?5sa?5was?5null?5in?5getAddressStr@ 00000001400788b8     SocketsApiWin-91ffcb.o
 0002:000178da       ??_C@_0BM@FLKFHPLK@The?5sa_family?5is?5not?5right?4?$AA@ 00000001400788da     SocketsApiWin-91ffcb.o
 0002:000178f6       ??_C@_0CC@JGADPKJE@Error?5getting?5the?5address?5string@ 00000001400788f6     SocketsApiWin-91ffcb.o
 0002:00017918       ??_C@_0BI@BKECNDK@WSAStartup?5didn?8t?5work?4?$AA@ 0000000140078918     SocketsApiWin-91ffcb.o
 0002:00017930       ??_C@_0DH@GHOBGECB@The?5SocketsApi?5copy?5constructor?5@ 0000000140078930     SocketsApiWin-91ffcb.o
 0002:00017967       ??_C@_0BL@CJPMHFF@Closing?5an?5invalid?5socket?4?$AA@ 0000000140078967     SocketsApiWin-91ffcb.o
 0002:00017982       ??_C@_0CB@KPKELOEJ@connect?$CI?$CJ?5could?5not?5get?5address?4@ 0000000140078982     SocketsApiWin-91ffcb.o
 0002:000179a3       ??_C@_0BI@JCBPLGLA@Client?5connect?5address?3?$AA@ 00000001400789a3     SocketsApiWin-91ffcb.o
 0002:000179bb       ??_C@_0BH@HBBAOCHC@showAddr?5size?5is?5zero?4?$AA@ 00000001400789bb     SocketsApiWin-91ffcb.o
 0002:000179d2       ??_C@_0BN@MCFMPBME@No?5sockets?5left?5for?5connect?4?$AA@ 00000001400789d2     SocketsApiWin-91ffcb.o
 0002:000179ef       ??_C@_0BC@KGPOCMPK@About?5to?5connect?4?$AA@ 00000001400789ef     SocketsApiWin-91ffcb.o
 0002:00017a01       ??_C@_0BK@GGCGGHDB@Could?5not?5connect?5socket?4?$AA@ 0000000140078a01     SocketsApiWin-91ffcb.o
 0002:00017a1b       ??_C@_0BE@FEKNMJLM@Socket?5would?5block?4?$AA@ 0000000140078a1b     SocketsApiWin-91ffcb.o
 0002:00017a2f       ??_C@_0BH@GOCNIHMF@socket?5connect?5failed?4?$AA@ 0000000140078a2f     SocketsApiWin-91ffcb.o
 0002:00017a46       ??_C@_0L@DLMOGNMB@Error?5is?3?5?$AA@ 0000000140078a46     SocketsApiWin-91ffcb.o
 0002:00017a51       ??_C@_0BK@GDAMFJDO@No?5more?5addresses?5to?5try?4?$AA@ 0000000140078a51     SocketsApiWin-91ffcb.o
 0002:00017a6b       ??_C@_0CA@GKJGJLF@Connected?5to?5an?5invalid?5socket?$DP?$AA@ 0000000140078a6b     SocketsApiWin-91ffcb.o
 0002:00017a8b       ??_C@_0BJ@NFPMHBNG@False?5on?5setNonBlocking?4?$AA@ 0000000140078a8b     SocketsApiWin-91ffcb.o
 0002:00017aa4       ??_C@_0O@IKLBNAML@Connected?5to?3?$AA@ 0000000140078aa4     SocketsApiWin-91ffcb.o
 0002:00017ab2       ??_C@_0BF@DLOEFOMD@socket?5ioctl?5failed?4?$AA@ 0000000140078ab2     SocketsApiWin-91ffcb.o
 0002:00017ac7       ??_C@_0CE@JFEANDFC@openServer?$CI?$CJ?5could?5not?5get?5addre@ 0000000140078ac7     SocketsApiWin-91ffcb.o
 0002:00017aeb       ??_C@_0BO@DFPBOKLM@No?5IP?5address?5for?5the?5server?4?$AA@ 0000000140078aeb     SocketsApiWin-91ffcb.o
 0002:00017b09       ??_C@_0BD@MJKGNOKA@Server?5IP?5address?3?$AA@ 0000000140078b09     SocketsApiWin-91ffcb.o
 0002:00017b1c       ??_C@_0BD@JDMGKHJN@Server?5no?5sockets?4?$AA@ 0000000140078b1c     SocketsApiWin-91ffcb.o
 0002:00017b2f       ??_C@_0BD@NFAFHPOH@Server?5bind?5error?4?$AA@ 0000000140078b2f     SocketsApiWin-91ffcb.o
 0002:00017b42       ??_C@_0BF@KJHBDOBH@Server?5listen?5error?4?$AA@ 0000000140078b42     SocketsApiWin-91ffcb.o
 0002:00017b57       ??_C@_0BP@CAKIDOAK@setNonBlocking?5returned?5false?4?$AA@ 0000000140078b57     SocketsApiWin-91ffcb.o
 0002:00017b76       ??_C@_0BF@GLBAIMEF@Got?5a?5server?5socket?4?$AA@ 0000000140078b76     SocketsApiWin-91ffcb.o
 0002:00017b8b       ??_C@_0BJ@FJLIOHEK@socket?5accept?5error?5is?3?5?$AA@ 0000000140078b8b     SocketsApiWin-91ffcb.o
 0002:00017ba4       ??_C@_0BF@EBBGCOJM@Accepted?5IP?5address?3?$AA@ 0000000140078ba4     SocketsApiWin-91ffcb.o
 0002:00017bb9       ??_C@_0CB@FBCBAMFF@sendBuf?$CI?$CJ?5sendToSock?5is?5invalid?4@ 0000000140078bb9     SocketsApiWin-91ffcb.o
 0002:00017bda       ??_C@_0BM@DJGLCCKN@SocketsApi?5sendBuf?$CI?$CJ?5error?4?$AA@ 0000000140078bda     SocketsApiWin-91ffcb.o
 0002:00017bf6       ??_C@_0CD@BKCFPKAL@SocketsApi?3?3sendCharBuf?5exceptio@ 0000000140078bf6     SocketsApiWin-91ffcb.o
 0002:00017c19       ??_C@_0CF@MMPIPNIC@Exception?5in?5SocketsApi?3?3sendCha@ 0000000140078c19     SocketsApiWin-91ffcb.o
 0002:00017c3e       ??_C@_0CB@DMNFCGPA@receiveBuf?$CI?$CJ?5recSock?5is?5invalid?4@ 0000000140078c3e     SocketsApiWin-91ffcb.o
 0002:00017c5f       ??_C@_0BH@CNEBCMPP@socket?5recv?5error?5is?3?5?$AA@ 0000000140078c5f     SocketsApiWin-91ffcb.o
 0002:00017c76       ??_C@_0CD@HGFPDGNL@SocketsApi?5receiveCharBuf?5too?5bi@ 0000000140078c76     SocketsApiWin-91ffcb.o
 0002:00017c99       ??_C@_0CF@BKOKLDII@SocketsApi?5receiveCharBuf?5except@ 0000000140078c99     SocketsApiWin-91ffcb.o
 0002:00017cbe       ??_C@_0CI@MGLHIJJP@U64ToI32?3?5Casting?5from?5too?5big?5o@ 0000000140078cbe     SocketsApiWin-91ffcb.o
 0002:00017cf8       ??_7SrvClient@@6B@         0000000140078cf8     SrvClient-4b1a7e.o
 0002:00017d08       ??_C@_0BO@LOKNHEDE@SrvClient?5constructor?5called?4?$AA@ 0000000140078d08     SrvClient-4b1a7e.o
 0002:00017d26       ??_C@_0CB@MEKJFOEM@SrvClient?5useSocket?5constructor?4@ 0000000140078d26     SrvClient-4b1a7e.o
 0002:00017d47       ??_C@_0DG@PFIHBHPN@The?5SrvClient?5copy?5constructor?5s@ 0000000140078d47     SrvClient-4b1a7e.o
 0002:00017d7d       ??_C@_0BN@ICGMDMJ@SrvClient?5destructor?5called?4?$AA@ 0000000140078d7d     SrvClient-4b1a7e.o
 0002:00017d9a       ??_C@_0CD@HMFGOCBB@SrvClient?5could?5not?5send?5all?5dat@ 0000000140078d9a     SrvClient-4b1a7e.o
 0002:00017dc0       ??_R4SrvClient@@6B@        0000000140078dc0     SrvClient-4b1a7e.o
 0002:00017dd8       ??_R3SrvClient@@8          0000000140078dd8     SrvClient-4b1a7e.o
 0002:00017de8       ??_R2SrvClient@@8          0000000140078de8     SrvClient-4b1a7e.o
 0002:00017df0       ??_R1A@?0A@EA@SrvClient@@8 0000000140078df0     SrvClient-4b1a7e.o
 0002:00017e18       ??_7SrvClTls@@6B@          0000000140078e18     SrvClTls-9ff770.o
 0002:00017e28       ??_C@_0BN@BDMPOJAD@SrvClTls?5constructor?5called?4?$AA@ 0000000140078e28     SrvClTls-9ff770.o
 0002:00017e45       ??_C@_0CA@ICNOFJNH@SrvClTls?5useSocket?5constructor?4?$AA@ 0000000140078e45     SrvClTls-9ff770.o
 0002:00017e65       ??_C@_0BM@NDDLCKD@SrvClTls?5destructor?5called?4?$AA@ 0000000140078e65     SrvClTls-9ff770.o
 0002:00017e81       ??_C@_0BJ@MMNKEEMB@Closing?5inactive?5socket?4?$AA@ 0000000140078e81     SrvClTls-9ff770.o
 0002:00017e9a       ??_C@_0CD@KLHHGFFN@SrvClTls?5could?5not?5write?5all?5dat@ 0000000140078e9a     SrvClTls-9ff770.o
 0002:00017ebd       ??_C@_0CC@KIAGBHBL@Exception?5in?5SrvClTls?4processDat@ 0000000140078ebd     SrvClTls-9ff770.o
 0002:00017edf       ??_C@_0CD@IBMKMGNH@Exception?5in?5SrvClTls?4processDat@ 0000000140078edf     SrvClTls-9ff770.o
 0002:00017f10       ??_R4SrvClTls@@6B@         0000000140078f10     SrvClTls-9ff770.o
 0002:00017f28       ??_R3SrvClTls@@8           0000000140078f28     SrvClTls-9ff770.o
 0002:00017f38       ??_R2SrvClTls@@8           0000000140078f38     SrvClTls-9ff770.o
 0002:00017f50       ??_R1A@?0A@EA@SrvClTls@@8  0000000140078f50     SrvClTls-9ff770.o
 0002:00017f6c       ??_C@_0BF@JHDJINHH@TlsMain?5constructor?3?$AA@ 0000000140078f6c     SrvClTls-9ff770.o
 0002:00019558       ??_C@_0CE@OHLOEBPC@TlsMainCl?5could?5not?5write?5all?5da@ 000000014007a558     TlsMainCl-f005f0.o
 0002:0001957c       ??_C@_0CD@PFALHEDK@TlsMainCl?3?3processIncoming?5bytes@ 000000014007a57c     TlsMainCl-f005f0.o
 0002:0001959f       ??_C@_0BO@KEIHHENH@tlsOuterRead?4accumByte?5error?4?$AA@ 000000014007a59f     TlsMainCl-f005f0.o
 0002:000195bd       ??_C@_0BD@MCHFEKAA@recordBytes?5last?3?5?$AA@ 000000014007a5bd     TlsMainCl-f005f0.o
 0002:000195d0       ??_C@_0BI@NBOHJLOP@Got?5a?5ChangeCipherSpec?4?$AA@ 000000014007a5d0     TlsMainCl-f005f0.o
 0002:000195e8       ??_C@_0BL@PHOBOINO@Ignoring?5ChangeCipherSpec?4?$AA@ 000000014007a5e8     TlsMainCl-f005f0.o
 0002:00019603       ??_C@_0CB@MJNKEOIP@Alert?5recBytesLast?5is?5not?5right?4@ 000000014007a603     TlsMainCl-f005f0.o
 0002:00019624       ??_C@_0O@IEMAFOHG@Got?5an?5Alert?4?$AA@ 000000014007a624     TlsMainCl-f005f0.o
 0002:00019632       ??_C@_0BF@BFHAIFHA@Got?5ApplicationData?4?$AA@ 000000014007a632     TlsMainCl-f005f0.o
 0002:00019647       ??_C@_0BA@CMOIDOIN@appBytes?5last?3?5?$AA@ 000000014007a647     TlsMainCl-f005f0.o
 0002:00019657       ??_C@_0BB@FIFHCIEE@Got?5a?5HeartBeat?4?$AA@ 000000014007a657     TlsMainCl-f005f0.o
 0002:00019668       ??_C@_0BB@EMCLBEBG@processHandshake?$AA@ 000000014007a668     TlsMainCl-f005f0.o
 0002:00019679       ??_C@_0BO@JEKFBHDO@Handshake?5processInbuf?5error?4?$AA@ 000000014007a679     TlsMainCl-f005f0.o
 0002:00019697       ??_C@_07OEKPNBBO@msgID?3?5?$AA@ 000000014007a697     TlsMainCl-f005f0.o
 0002:0001969f       ??_C@_0BK@MFBGKCGC@Client?5got?5a?5ClientHello?4?$AA@ 000000014007a69f     TlsMainCl-f005f0.o
 0002:000196b9       ??_C@_0BD@OOBNLHKE@Got?5a?5ServerHello?4?$AA@ 000000014007a6b9     TlsMainCl-f005f0.o
 0002:000196cc       ??_C@_0BK@KJBAJOMN@Got?5a?5NewSessionTicketID?4?$AA@ 000000014007a6cc     TlsMainCl-f005f0.o
 0002:000196e6       ??_C@_0BI@BBGIBMPJ@Got?5a?5EndOfEarlyDataID?4?$AA@ 000000014007a6e6     TlsMainCl-f005f0.o
 0002:000196fe       ??_C@_0CB@POPNCHHC@Got?5a?5HelloRetryRequestRESERVED?4@ 000000014007a6fe     TlsMainCl-f005f0.o
 0002:0001971f       ??_C@_0BO@DCIHBOOH@Got?5an?5EncryptedExtensionsID?4?$AA@ 000000014007a71f     TlsMainCl-f005f0.o
 0002:0001973d       ??_C@_0BF@FOAKIGCA@Got?5a?5CertificateID?4?$AA@ 000000014007a73d     TlsMainCl-f005f0.o
 0002:00019752       ??_C@_0BM@MAMHPFPO@Got?5a?5CertificateRequestID?4?$AA@ 000000014007a752     TlsMainCl-f005f0.o
 0002:0001976e       ??_C@_0BL@NPPKFFJO@Got?5a?5CertificateVerifyID?4?$AA@ 000000014007a76e     TlsMainCl-f005f0.o
 0002:00019789       ??_C@_0BC@KILCJDEE@Got?5a?5FinishedID?4?$AA@ 000000014007a789     TlsMainCl-f005f0.o
 0002:0001979b       ??_C@_0BD@OHJKPLBL@Got?5a?5KeyUpdateID?4?$AA@ 000000014007a79b     TlsMainCl-f005f0.o
 0002:000197ae       ??_C@_0BF@OIMLFNDJ@Got?5a?5MessageHashID?4?$AA@ 000000014007a7ae     TlsMainCl-f005f0.o
 0002:000197c3       ??_C@_0BL@JEEFOLGC@Handshake?5message?5unknown?4?$AA@ 000000014007a7c3     TlsMainCl-f005f0.o
 0002:000197de       ??_C@_0CA@BPDGNOBF@It?5should?5never?5loop?5100?5times?4?$AA@ 000000014007a7de     TlsMainCl-f005f0.o
 0002:000197fe       ??_C@_0BE@GFEJMIEI@App?5data?5plainText?3?$AA@ 000000014007a7fe     TlsMainCl-f005f0.o
 0002:00019812       ??_C@_0CD@LLJNKLCI@processAppData?5messages?5was?5empt@ 000000014007a812     TlsMainCl-f005f0.o
 0002:00019835       ??_C@_0CI@DCNKHIKM@processAppData?5Message?5was?5all?5p@ 000000014007a835     TlsMainCl-f005f0.o
 0002:0001985d       ??_C@_09EGJLPIIE@messages?3?$AA@ 000000014007a85d     TlsMainCl-f005f0.o
 0002:00019867       ??_C@_0CD@HIHBDPKK@App?5data?5messageType?5is?5handshak@ 000000014007a867     TlsMainCl-f005f0.o
 0002:0001988a       ??_C@_0CB@NCHMLIKE@messageType?5is?5ChangeCipherSpec?4@ 000000014007a88a     TlsMainCl-f005f0.o
 0002:000198ab       ??_C@_0BG@COHMIKFK@messageType?5is?5Alert?4?$AA@ 000000014007a8ab     TlsMainCl-f005f0.o
 0002:000198c1       ??_C@_0CA@CFLANILH@messageType?5is?5ApplicationData?4?$AA@ 000000014007a8c1     TlsMainCl-f005f0.o
 0002:000198e1       ??_C@_0BK@DIHLGADM@messageType?5is?5HeartBeat?4?$AA@ 000000014007a8e1     TlsMainCl-f005f0.o
 0002:000198fb       ??_C@_0BI@LAJBNHDP@messageType?5is?5unknown?4?$AA@ 000000014007a8fb     TlsMainCl-f005f0.o
 0002:00019913       ??_C@_0BJ@BNOLJGCA@Parameter?5is?5being?5used?4?$AA@ 000000014007a913     TlsMainCl-f005f0.o
 0002:0001992c       ??_C@_0BN@ILFJKAOB@Send?5plain?5alert?5needs?5work?4?$AA@ 000000014007a92c     TlsMainCl-f005f0.o
 0002:00019949       ??_C@_0BL@LBICDPGE@Sending?5test?5vec?5finished?4?$AA@ 000000014007a949     TlsMainCl-f005f0.o
 0002:00019964       ??_C@_0GJ@MHICFFOL@14?500?500?520?5a8?5ec?543?56d?567?576?534@ 000000014007a964     TlsMainCl-f005f0.o
 0002:000199cd       ??_C@_0L@PIICHHOA@finMsgBuf?3?$AA@ 000000014007a9cd     TlsMainCl-f005f0.o
 0002:000199d8       ??_C@_0KK@EFOCDGJD@17?503?503?500?535?575?5ec?54d?5c2?538?5cc@ 000000014007a9d8     TlsMainCl-f005f0.o
 0002:00019a82       ??_C@_0L@MCIGLPIF@finRecBuf?3?$AA@ 000000014007aa82     TlsMainCl-f005f0.o
 0002:00019a8d       ??_C@_0BG@FDGMHKP@Connecting?5to?5server?4?$AA@ 000000014007aa8d     TlsMainCl-f005f0.o
 0002:00019aa3       ??_C@_0FN@IHEEBJAE@49?5af?542?5ba?57f?579?594?5852d?571?53e?5@ 000000014007aaa3     TlsMainCl-f005f0.o
 0002:00019b00       ??_C@_0FN@CKKNJJLA@99?538?51d?5e5?560?5e4?5bd?543d2?53d?58e?5@ 000000014007ab00     TlsMainCl-f005f0.o
 0002:00019b5d       ??_C@_0N@MAANGMDH@Private?5key?3?$AA@ 000000014007ab5d     TlsMainCl-f005f0.o
 0002:00019b6a       ??_C@_0M@LGKEBPMF@Public?5key?3?$AA@ 000000014007ab6a     TlsMainCl-f005f0.o
 0002:00019b76       ??_C@_0M@IOCNJHDO@pubKeyTest?3?$AA@ 000000014007ab76     TlsMainCl-f005f0.o
 0002:00019b82       ??_C@_0CL@IJGPLMDG@startTestVecHandshake?5Test?5keys?5@ 000000014007ab82     TlsMainCl-f005f0.o
 0002:00019bad       ??_C@_0BE@EGDCCABD@Got?5the?5keys?5right?4?$AA@ 000000014007abad     TlsMainCl-f005f0.o
 0002:00019bc1       ??_C@_06HJHJCKIO@server?$AA@ 000000014007abc1     TlsMainCl-f005f0.o
 0002:00019bc8       ??_C@_0CDK@KOCIEFCA@01?500?500?5c0?503?503?5cb34?5ec?5b1?5e7?5@ 000000014007abc8     TlsMainCl-f005f0.o
 0002:00019e02       ??_C@_09MLDOICCL@clRecBuf?3?$AA@ 000000014007ae02     TlsMainCl-f005f0.o
 0002:00019e0c       ??_C@_0CEJ@LBOMLLIG@16?503?501?500?5c4?501?500?500?5c0?503?503@ 000000014007ae0c     TlsMainCl-f005f0.o
 0002:0001a055       ??_C@_0L@JGGONLEB@recordBuf?3?$AA@ 000000014007b055     TlsMainCl-f005f0.o
 0002:0001a060       ??_C@_0BC@NBDBNGJA@End?5of?5recordBuf?4?$AA@ 000000014007b060     TlsMainCl-f005f0.o
 0002:0001a072       ??_C@_0N@GEGGCNOH@Sent?5bytes?3?5?$AA@ 000000014007b072     TlsMainCl-f005f0.o
 0002:0001a07f       ??_C@_0P@PPFCBCNH@cHelloBufLen?3?5?$AA@ 000000014007b07f     TlsMainCl-f005f0.o
 0002:0001a08e       ??_C@_0BM@DMMEFHBI@Fix?5cHelloBuf?5not?5all?5sent?4?$AA@ 000000014007b08e     TlsMainCl-f005f0.o
 0002:0001a0aa       ??_C@_0CB@HHLMCDLJ@Fix?5sentBytes?5in?5startHandshake?4@ 000000014007b0aa     TlsMainCl-f005f0.o
 0002:0001a0cb       ??_C@_0BG@OKNBNBKP@Alert?5is?5CloseNotify?4?$AA@ 000000014007b0cb     TlsMainCl-f005f0.o
 0002:0001a0e1       ??_C@_0BH@EAFCPBMA@Alert?5is?5UserCanceled?4?$AA@ 000000014007b0e1     TlsMainCl-f005f0.o
 0002:0001a0f8       ??_C@_0BM@PELHCDMK@Alert?5is?5UnexpectedMessage?4?$AA@ 000000014007b0f8     TlsMainCl-f005f0.o
 0002:0001a114       ??_C@_0BH@FGCJCPHD@Alert?5is?5BadRecordMac?4?$AA@ 000000014007b114     TlsMainCl-f005f0.o
 0002:0001a12b       ??_C@_0BJ@NBMPEEOI@Alert?5is?5RecordOverflow?4?$AA@ 000000014007b12b     TlsMainCl-f005f0.o
 0002:0001a144       ??_C@_0BL@PPOFIIKJ@Alert?5is?5HandshakeFailure?4?$AA@ 000000014007b144     TlsMainCl-f005f0.o
 0002:0001a15f       ??_C@_0BJ@PHIFIEBK@Alert?5is?5BadCertificate?4?$AA@ 000000014007b15f     TlsMainCl-f005f0.o
 0002:0001a178       ??_C@_0CB@GKJFODCC@Alert?5is?5UnsupportedCertificate?4@ 000000014007b178     TlsMainCl-f005f0.o
 0002:0001a199       ??_C@_0BN@EJGKEJH@Alert?5is?5CertificateRevoked?4?$AA@ 000000014007b199     TlsMainCl-f005f0.o
 0002:0001a1b6       ??_C@_0BN@PDPAIMAB@Alert?5is?5CertificateExpired?4?$AA@ 000000014007b1b6     TlsMainCl-f005f0.o
 0002:0001a1d3       ??_C@_0BN@PCMPEHKB@Alert?5is?5CertificateUnknown?4?$AA@ 000000014007b1d3     TlsMainCl-f005f0.o
 0002:0001a1f0       ??_C@_0BL@BBIMKAOE@Alert?5is?5IllegalParameter?4?$AA@ 000000014007b1f0     TlsMainCl-f005f0.o
 0002:0001a20b       ??_C@_0BE@HNKHIHEF@Alert?5is?5UnknownCa?4?$AA@ 000000014007b20b     TlsMainCl-f005f0.o
 0002:0001a21f       ??_C@_0BH@KADPEMBN@Alert?5is?5AccessDenied?4?$AA@ 000000014007b21f     TlsMainCl-f005f0.o
 0002:0001a236       ??_C@_0BG@FFBNPHLD@Alert?5is?5DecodeError?4?$AA@ 000000014007b236     TlsMainCl-f005f0.o
 0002:0001a24c       ??_C@_0BH@HDFJLBNN@Alert?5is?5DecryptError?4?$AA@ 000000014007b24c     TlsMainCl-f005f0.o
 0002:0001a263       ??_C@_0BK@FNJNCOBA@Alert?5is?5ProtocolVersion?4?$AA@ 000000014007b263     TlsMainCl-f005f0.o
 0002:0001a27d       ??_C@_0BP@KFPHLJJK@Alert?5is?5InsufficientSecurity?4?$AA@ 000000014007b27d     TlsMainCl-f005f0.o
 0002:0001a29c       ??_C@_0BI@NJJNMLMB@Alert?5is?5InternalError?4?$AA@ 000000014007b29c     TlsMainCl-f005f0.o
 0002:0001a2b4       ??_C@_0CA@FOOLHAPD@Alert?5is?5InappropriateFallback?4?$AA@ 000000014007b2b4     TlsMainCl-f005f0.o
 0002:0001a2d4       ??_C@_0BL@IIHKAKEP@Alert?5is?5MissingExtension?4?$AA@ 000000014007b2d4     TlsMainCl-f005f0.o
 0002:0001a2ef       ??_C@_0BP@PPFGEMJC@Alert?5is?5UnsupportedExtension?4?$AA@ 000000014007b2ef     TlsMainCl-f005f0.o
 0002:0001a30e       ??_C@_0BL@HJOAEDGD@Alert?5is?5UnrecognizedName?4?$AA@ 000000014007b30e     TlsMainCl-f005f0.o
 0002:0001a329       ??_C@_0CH@OAODJIEN@Alert?5is?5BadCertificateStatusRes@ 000000014007b329     TlsMainCl-f005f0.o
 0002:0001a350       ??_C@_0BN@CGPDGHNI@Alert?5is?5UnknownPskIdentity?4?$AA@ 000000014007b350     TlsMainCl-f005f0.o
 0002:0001a36d       ??_C@_0BO@PGLKNGBM@Alert?5is?5CertificateRequired?4?$AA@ 000000014007b36d     TlsMainCl-f005f0.o
 0002:0001a38b       ??_C@_0CA@JLJMMNLI@Alert?5is?5NoApplicationProtocol?4?$AA@ 000000014007b38b     TlsMainCl-f005f0.o
 0002:0001a3ab       ??_C@_0BI@DMNMDDFP@Alert?5is?5unknown?5type?3?5?$AA@ 000000014007b3ab     TlsMainCl-f005f0.o
 0002:0001b998       ??_C@_0CD@MGKHALIG@Top?5of?5setTestVecServerCertOnly?$CI@ 000000014007c998     TlsMainSrv-e73a4f.o
 0002:0001b9bb       ??_C@_0FAO@GIEJHNJG@0b?500?501?5b900?500?501?5b5?500?501?5b0?5@ 000000014007c9bb     TlsMainSrv-e73a4f.o
 0002:0001bec9       ??_C@_0BA@DDEOMLIO@certBuf?5?$CIonly?$CJ?3?$AA@ 000000014007cec9     TlsMainSrv-e73a4f.o
 0002:0001bed9       ??_C@_0CA@CMBAPALE@Top?5of?5setTestVecServerHello?$CI?$CJ?4?$AA@ 000000014007ced9     TlsMainSrv-e73a4f.o
 0002:0001bef9       ??_C@_0FO@KKMABIPG@b1?558?50e?5ea?5df?56d?5d5?589?5b8?5ef?54f@ 000000014007cef9     TlsMainSrv-e73a4f.o
 0002:0001bf57       ??_C@_0FO@FDAIDFCN@c9?582?588?576?511?520?595?5fe?566?576?52b@ 000000014007cf57     TlsMainSrv-e73a4f.o
 0002:0001bfb5       ??_C@_0M@DOBABFCP@privKeyBuf?3?$AA@ 000000014007cfb5     TlsMainSrv-e73a4f.o
 0002:0001bfc1       ??_C@_0L@JONKCIIC@pubKeyBuf?3?$AA@ 000000014007cfc1     TlsMainSrv-e73a4f.o
 0002:0001bfcc       ??_C@_0CL@JFDDGHHH@setTestVecServerHello?5Test?5keys?5@ 000000014007cfcc     TlsMainSrv-e73a4f.o
 0002:0001bff7       ??_C@_0BAI@FMCMPIEE@02?500?500?556?503?503?5a6?5af?506?5a4?512@ 000000014007cff7     TlsMainSrv-e73a4f.o
 0002:0001c0ff       ??_C@_0BBG@EICNJPOB@16?503?503?500?55a?502?500?500?556?503?503@ 000000014007d0ff     TlsMainSrv-e73a4f.o
 0002:0001c215       ??_C@_0CE@OFFDLELI@TlsMainSrv?3?3processIncoming?5byte@ 000000014007d215     TlsMainSrv-e73a4f.o
 0002:0001c239       ??_C@_0BN@EICMENEP@Handshake?5processInbuf?5Done?4?$AA@ 000000014007d239     TlsMainSrv-e73a4f.o
 0002:0001c256       ??_C@_0CA@IDALGKIP@Handshake?5message?5out?5of?5order?4?$AA@ 000000014007d256     TlsMainSrv-e73a4f.o
 0002:0001c276       ??_C@_0BD@MCMHMFNB@Got?5a?5ClientHello?4?$AA@ 000000014007d276     TlsMainSrv-e73a4f.o
 0002:0001c289       ??_C@_0BF@JJHNDANH@Sending?5ServerHello?4?$AA@ 000000014007d289     TlsMainSrv-e73a4f.o
 0002:0001c29e       ??_C@_0BL@LJHPMJOO@Got?5a?5Finished?5Message?4?6?6?6?$AA@ 000000014007d29e     TlsMainSrv-e73a4f.o
 0002:0001c2b9       ??_C@_0CJ@OILEFCNF@App?5data?5messageType?5is?5Applicat@ 000000014007d2b9     TlsMainSrv-e73a4f.o
 0002:0001c2e2       ??_C@_0BK@DHLCKLGD@Sending?5ChangeCipherSpec?4?$AA@ 000000014007d2e2     TlsMainSrv-e73a4f.o
 0002:0001c2fc       ??_C@_0CD@ECPEJENL@Top?5of?5setTestVecServerEncExten?$CI@ 000000014007d2fc     TlsMainSrv-e73a4f.o
 0002:0001c31f       ??_C@_0HD@OIFFONFK@08?500?500?52400?522?500?50a?500?514?5001@ 000000014007d31f     TlsMainSrv-e73a4f.o
 0002:0001c392       ??_C@_0N@MKBJCFI@encExtenBuf?3?$AA@ 000000014007d392     TlsMainSrv-e73a4f.o
 0002:0001c39f       ??_C@_0CF@LJLLCEIC@Top?5of?5setTestVecServerCertVerif@ 000000014007d39f     TlsMainSrv-e73a4f.o
 0002:0001c3c4       ??_C@_0BIH@BNEDCKKF@0f?500?500?58408?504?500?580?55a?574?57c5@ 000000014007d3c4     TlsMainSrv-e73a4f.o
 0002:0001c54b       ??_C@_0P@OLKLNOKI@certVerifyBuf?3?$AA@ 000000014007d54b     TlsMainSrv-e73a4f.o
 0002:0001c55a       ??_C@_0CD@DKMOFLOC@Top?5of?5setTestVecServerFinished?$CI@ 000000014007d55a     TlsMainSrv-e73a4f.o
 0002:0001c57d       ??_C@_0GI@EOGOLICN@14?500?500?5209b?59b?514?51d?590?563?537?5@ 000000014007d57d     TlsMainSrv-e73a4f.o
 0002:0001c5e5       ??_C@_0N@FDNMCAJP@finishedBuf?3?$AA@ 000000014007d5e5     TlsMainSrv-e73a4f.o
 0002:0001c5f2       ??_C@_0CE@MBLOBDIM@Top?5of?5setTestVecServerCertOuter@ 000000014007d5f2     TlsMainSrv-e73a4f.o
 0002:0001c616       ??_C@_0HLH@FFHOONPC@17?503?50302?5a2?5d1?5ff?533?54a?556?5f5?5@ 000000014007d616     TlsMainSrv-e73a4f.o
 0002:0001cdcd       ??_C@_0O@DOHEMDKE@certOuterBuf?3?$AA@ 000000014007ddcd     TlsMainSrv-e73a4f.o
 0002:0001cddb       ??_C@_0CI@PNJHHDOE@?6?6?6Top?5of?5setTestVecNewSessionTi@ 000000014007dddb     TlsMainSrv-e73a4f.o
 0002:0001ce03       ??_C@_0CJE@BPNIHHKD@17?503?503?500?5de?53a6b?58f?590?541?54a?5@ 000000014007de03     TlsMainSrv-e73a4f.o
 0002:0001d097       ??_C@_0L@EBACFPKN@ticketBuf?3?$AA@ 000000014007e097     TlsMainSrv-e73a4f.o
 0002:0001e678       ??_C@_0BA@EMFJBOG@?6New?5Outer?5Rec?4?$AA@ 000000014007f678     TlsOuterRec-932e5d.o
 0002:0001e688       ??_C@_09HNNCJCCO@Byte?5is?3?5?$AA@ 000000014007f688     TlsOuterRec-932e5d.o
 0002:0001e692       ??_C@_0BI@ONICAFHN@Outer?5Rec?5is?5handshake?4?$AA@ 000000014007f692     TlsOuterRec-932e5d.o
 0002:0001e6aa       ??_C@_0BP@DPICJOEB@Outer?5Rec?5is?5ChangeCipherSpec?4?$AA@ 000000014007f6aa     TlsOuterRec-932e5d.o
 0002:0001e6c9       ??_C@_0BE@OBCOPMLF@Outer?5Rec?5is?5alert?4?$AA@ 000000014007f6c9     TlsOuterRec-932e5d.o
 0002:0001e6dd       ??_C@_0BP@HFKKINOJ@Outer?5Rec?5is?5application?5data?4?$AA@ 000000014007f6dd     TlsOuterRec-932e5d.o
 0002:0001e6fc       ??_C@_0BI@GCOBMAHB@Outer?5Rec?5is?5heartbeat?4?$AA@ 000000014007f6fc     TlsOuterRec-932e5d.o
 0002:0001e714       ??_C@_0CC@MOEBCHPC@The?5outer?5record?5type?5is?5unknown@ 000000014007f714     TlsOuterRec-932e5d.o
 0002:0001e736       ??_C@_0BN@FAAJCAJO@Outer?5Record?5length?5is?5zero?4?$AA@ 000000014007f736     TlsOuterRec-932e5d.o
 0002:0001e753       ??_C@_0CA@CHGCFCAJ@Outer?5Record?5length?5is?5too?5big?4?$AA@ 000000014007f753     TlsOuterRec-932e5d.o
 0002:0001e773       ??_C@_0BG@PABIKBGL@Outer?5Record?5length?3?5?$AA@ 000000014007f773     TlsOuterRec-932e5d.o
 0002:0001e789       ??_C@_0CD@HJGIJOPD@Outer?5Rec?5is?5complete?5for?5length@ 000000014007f789     TlsOuterRec-932e5d.o
 0002:0001e7ac       ??_C@_0CM@PECFHIEG@TlsOuterRec?5Handshake?5msgLength?5@ 000000014007f7ac     TlsOuterRec-932e5d.o
 0002:0001e7d8       ??_C@_0O@FFDIKPCP@outBuf?5last?3?5?$AA@ 000000014007f7d8     TlsOuterRec-932e5d.o
 0002:0001e7e6       ??_C@_0CK@GMBOMAGO@TlsOuterRec?5appdata?5msgLength?5?$DO?5@ 000000014007f7e6     TlsOuterRec-932e5d.o
 0002:0001e810       __xmm@000000ff000000ff000000ff000000ff 000000014007f810     Aes-1aca48.o
 0002:0001e820       __xmm@40404040101010101010101010101010 000000014007f820     Aes-1aca48.o
 0002:0001e830       __xmm@00000000000000004040404040404040 000000014007f830     Aes-1aca48.o
 0002:0001e840       __xmm@ffffffff000000000000000000000000 000000014007f840     Aes-1aca48.o
 0002:0001e850       __xmm@00000000000000000000000002020202 000000014007f850     Aes-1aca48.o
 0002:0001e860       __xmm@00000000000000000000000004040404 000000014007f860     Aes-1aca48.o
 0002:0001e870       __xmm@00000000000000000000000008080808 000000014007f870     Aes-1aca48.o
 0002:0001e880       __xmm@00000000000000000000000001010101 000000014007f880     Aes-1aca48.o
 0002:0001e890       __xmm@00000000000000000000000020202020 000000014007f890     Aes-1aca48.o
 0002:0001e8a0       __xmm@00000000000000000000000060606060 000000014007f8a0     Aes-1aca48.o
 0002:0001e8b0       __xmm@ffffffffffffffffffffff00ffffffff 000000014007f8b0     Aes-1aca48.o
 0002:0001e8c0       __xmm@ffffffffffffffffffff00ffffffffff 000000014007f8c0     Aes-1aca48.o
 0002:0001e8d0       __xmm@ffffffffffffffffff00ffffffffffff 000000014007f8d0     Aes-1aca48.o
 0002:0001e8e0       __xmm@ffffffffffffffff00ffffffffffffff 000000014007f8e0     Aes-1aca48.o
 0002:0001e8f0       __xmm@00000000000000000101010101010101 000000014007f8f0     Aes-1aca48.o
 0002:0001e900       __xmm@00000000000000000202020202020202 000000014007f900     Aes-1aca48.o
 0002:0001e910       __xmm@10101010040404040404040404040404 000000014007f910     Aes-1aca48.o
 0002:0001e920       __xmm@20202020080808080808080808080808 000000014007f920     Aes-1aca48.o
 0002:0001e930       __xmm@00000000000000002020202020202020 000000014007f930     Aes-1aca48.o
 0002:0001e940       __xmm@00000000000000006060606060606060 000000014007f940     Aes-1aca48.o
 0002:0001e950       __xmm@0c0c0c0c030303030303030303030303 000000014007f950     Aes-1aca48.o
 0002:0001e960       __xmm@18181818060606060606060606060606 000000014007f960     Aes-1aca48.o
 0002:0001e970       __xmm@303030300c0c0c0c0c0c0c0c0c0c0c0c 000000014007f970     Aes-1aca48.o
 0002:0001e980       __xmm@60606060181818181818181818181818 000000014007f980     Aes-1aca48.o
 0002:0001e990       __xmm@c0c0c0c0303030303030303030303030 000000014007f990     Aes-1aca48.o
 0002:0001e9a0       __xmm@06060606060606060606060606060606 000000014007f9a0     Aes-1aca48.o
 0002:0001e9b0       __xmm@00000000000000000000000040404040 000000014007f9b0     Aes-1aca48.o
 0002:0001e9c0       __xmm@00000000c0c0c0c0c0c0c0c0c0c0c0c0 000000014007f9c0     Aes-1aca48.o
 0002:0001e9d0       __xmm@1b1b1b1b000000000000000000000000 000000014007f9d0     Aes-1aca48.o
 0002:0001e9e0       __xmm@00ff00ff00ff00ff00ff00ff00ff00ff 000000014007f9e0     Aes-1aca48.o
 0002:0001e9f0       __xmm@80808080808080808080808080808080 000000014007f9f0     Aes-1aca48.o
 0002:0001ea00       __xmm@00000000000000001b1b1b1b1b1b1b1b 000000014007fa00     Aes-1aca48.o
 0002:0001ea10       __xmm@00000000000000009b9b9b9b1b1b1b1b 000000014007fa10     Aes-1aca48.o
 0002:0001ea20       __xmm@06060606000000000000000000000000 000000014007fa20     Aes-1aca48.o
 0002:0001ea30       __xmm@000000009b9b9b9b9b9b9b9b9b9b9b9b 000000014007fa30     Aes-1aca48.o
 0002:0001ea40       __xmm@03030303030303030303030303030303 000000014007fa40     Aes-1aca48.o
 0002:0001ea50       __xmm@00000000000000000000000000000000 000000014007fa50     Aes-1aca48.o
 0002:0001ea60       ??_C@_0P@EIOBCDCO@PlainText?5set?4?$AA@ 000000014007fa60     Aes-1aca48.o
 0002:0001ea6f       ??_C@_08EJBDBMBE@Key?5set?4?$AA@ 000000014007fa6f     Aes-1aca48.o
 0002:0001ea78       ??_C@_0CH@ECKDIJGL@AesKeySched?4getWord?$CI?$CJ?5range?5for?5@ 000000014007fa78     Aes-1aca48.o
 0002:0001eaa0       ?SBox@AesSBox@@0QBEB       000000014007faa0     Aes-1aca48.o
 0002:0001eba0       ??_C@_0CD@BDPJEGBA@AesState?5moveCharBufToState?5rang@ 000000014007fba0     Aes-1aca48.o
 0002:0001ec10       __xmm@00000005000000040000000300000002 000000014007fc10     AesGalois-c9e363.o
 0002:0001ec20       __xmm@00000009000000080000000700000006 000000014007fc20     AesGalois-c9e363.o
 0002:0001ec30       __xmm@0000000d0000000c0000000b0000000a 000000014007fc30     AesGalois-c9e363.o
 0002:0001ec40       ??_C@_0BO@NCPIOMCL@AesGalois?5encrypt?5test?5start?4?$AA@ 000000014007fc40     AesGalois-c9e363.o
 0002:0001ec5e       ??_C@_0BA@IHJIHGOP@This?5is?5the?5IV?4?$AA@ 000000014007fc5e     AesGalois-c9e363.o
 0002:0001ec6e       ??_C@_0BN@EFMKOEJP@This?5is?5the?5additional?5data?4?$AA@ 000000014007fc6e     AesGalois-c9e363.o
 0002:0001ec8b       ??_C@_0BI@MGEGCDID@This?5is?5the?5plain?5text?4?$AA@ 000000014007fc8b     AesGalois-c9e363.o
 0002:0001eca3       ??_C@_09HHNLJFPE@plainBuf?3?$AA@ 000000014007fca3     AesGalois-c9e363.o
 0002:0001ecad       ??_C@_0BA@NIDDBGDM@Before?5encrypt?4?$AA@ 000000014007fcad     AesGalois-c9e363.o
 0002:0001ecbd       ??_C@_0BA@JCCCBOCJ@Before?5decrypt?4?$AA@ 000000014007fcbd     AesGalois-c9e363.o
 0002:0001eccd       ??_C@_0L@JBBNGCFB@plainBuf2?3?$AA@ 000000014007fccd     AesGalois-c9e363.o
 0002:0001ecd8       ??_C@_0BJ@EJIIALAC@AesGalois?5test?5finished?4?$AA@ 000000014007fcd8     AesGalois-c9e363.o
 0002:0001ecf1       ??_C@_0CH@EMHJKALB@Set?5key?5before?5calling?5makeHashS@ 000000014007fcf1     AesGalois-c9e363.o
 0002:0001ed18       ??_C@_0CB@MFCNPJEE@byteCount?5has?5to?5be?5zero?5mod?516?4@ 000000014007fd18     AesGalois-c9e363.o
 0002:0001ed39       ??_C@_0BH@GALPEGPI@gHash?$CI?$CJ?5byteCount?5?$DM?516?$AA@ 000000014007fd39     AesGalois-c9e363.o
 0002:0001ed50       ??_C@_0CJ@NJBFINBD@gHash?$CI?$CJ?5byteCount?5has?5to?5be?5zero@ 000000014007fd50     AesGalois-c9e363.o
 0002:0001ed79       ??_C@_0BJ@FKPGEMJA@Auth?5tags?5are?5not?5equal?4?$AA@ 000000014007fd79     AesGalois-c9e363.o
 0002:0001ed92       ??_C@_0CA@OHLEBMG@Auth?5tags?5are?5equal?5in?5decrypt?4?$AA@ 000000014007fd92     AesGalois-c9e363.o
 0002:0001edb2       ??_C@_0CB@CJKNKKGF@Aes?5key?5size?5has?5to?5be?516?5or?532?4@ 000000014007fdb2     AesKeySched-9268ef.o
 0002:0001edd3       ??_C@_0BL@LBNOEBFJ@Aes?5keySize?5doesn?8t?5match?4?$AA@ 000000014007fdd3     AesKeySched-9268ef.o
 0002:0001edee       ??_C@_0CF@LDDPIALE@AesKey?4getKeyByte?$CI?$CJ?5range?5for?5wh@ 000000014007fdee     AesKeySched-9268ef.o
 0002:0001ee13       ??_C@_0CH@HNJGEJHL@AesKeySched?4setWord?$CI?$CJ?5range?5for?5@ 000000014007fe13     AesKeySched-9268ef.o
 0002:0001ee3a       ??_C@_0CA@HHBNCNBM@AesRCon?4getV?$CI?$CJ?5range?5for?5where?4?$AA@ 000000014007fe3a     AesKeySched-9268ef.o
 0002:0001ee5a       ?RCon@AesRCon@@0QBEB       000000014007fe5a     AesKeySched-9268ef.o
 0002:0001ee65       ??_C@_0CF@DCFADAJG@AesKey?4setKeyByte?$CI?$CJ?5range?5for?5wh@ 000000014007fe65     AesKeySched-9268ef.o
 0002:0001ee90       __real@3fe8000000000000    000000014007fe90     Base64-b87ec7.o
 0002:0001ee98       __real@3ff5555555555555    000000014007fe98     Base64-b87ec7.o
 0002:0001eea0       ??_C@_0BP@HHDEAAP@Bad?5characters?5in?5codeToBytes?4?$AA@ 000000014007fea0     Base64-b87ec7.o
 0002:0001eebf       ??_C@_0BG@OBBMBCJB@Starting?5Base64?5test?4?$AA@ 000000014007febf     Base64-b87ec7.o
 0002:0001eed5       ??_C@_0BH@FECFEGMD@?2ABackups?2TestGMap?4zip?$AA@ 000000014007fed5     Base64-b87ec7.o
 0002:0001eeec       ??_C@_0O@GFOABALN@Test?5is?5good?4?$AA@ 000000014007feec     Base64-b87ec7.o
 0002:0001eefa       ??_C@_0N@KCODMGLK@Test?5is?5bad?4?$AA@ 000000014007fefa     Base64-b87ec7.o
 0002:0001ef07       ??_C@_0BL@BOHJEGAO@?2ABackups?2TestGMapTest?4zip?$AA@ 000000014007ff07     Base64-b87ec7.o
 0002:0001ef22       ??_C@_0CA@OOOIMDI@BoolArray?4setVal?$CI?$CJ?5where?5range?4?$AA@ 000000014007ff22     Base64-b87ec7.o
 0002:0001ef42       ??_C@_0CA@PLLIFFHJ@BoolArray?4getVal?$CI?$CJ?5where?5range?4?$AA@ 000000014007ff42     Base64-b87ec7.o
 0002:0001ef62       ??_C@_0CG@HOJAOOPB@Euclid?4GCD?5with?5a?5param?5that?5is?5@ 000000014007ff62     Euclid-679c58.o
 0002:0001ef88       ??_C@_0CD@NPFBOPMB@Euclid?4multInverse?5knownX?5is?5zer@ 000000014007ff88     Euclid-679c58.o
 0002:0001efab       ??_C@_0CB@KLGLPIGD@Euclid?4multInverse?5modulus?5zero?4@ 000000014007ffab     Euclid-679c58.o
 0002:0001efcc       ??_C@_0CA@GBMPFFMH@Euclid?5U2?5modulus?5was?5negative?4?$AA@ 000000014007ffcc     Euclid-679c58.o
 0002:0001efec       ??_C@_0BI@JDBIMPJD@Euclid?5V2?5was?5negative?4?$AA@ 000000014007ffec     Euclid-679c58.o
 0002:0001f004       ??_C@_0BO@CIMOJEAA@Euclid?5multInverse?$CI?$CJ?5is?5bad?4?6?$AA@ 0000000140080004     Euclid-679c58.o
 0002:000205f8       ??_C@_0BM@FFLGIBCA@?$CJ?5Did?5not?5pass?5Fermat?5test?4?$AA@ 00000001400815f8     Fermat-18eb95.o
 0002:00020614       ??_C@_0BG@LOFHLJHG@Got?5a?5probable?5prime?4?$AA@ 0000000140081614     Fermat-18eb95.o
 0002:0002062a       ??_C@_0BP@LEMPGEAF@Fermat?4makeAPrime?5End?5of?5loop?4?$AA@ 000000014008162a     Fermat-18eb95.o
 0002:00021c20       __xmm@00000000000000008ba36db7aaabcccd 0000000140082c20     FindFacSm-652bf9.o
 0002:00021c30       __xmm@00000000000000001745249255553333 0000000140082c30     FindFacSm-652bf9.o
 0002:00021c40       ??_C@_0BG@LJNAFDFP@howMany?5?$CB?$DN?5phi?5for?513?$AA@ 0000000140082c40     FindFacSm-652bf9.o
 0002:00021c56       ??_C@_0BK@NBDEJPOP@howMany?5?$CB?$DN?5phi?5for?5big?519?$AA@ 0000000140082c56     FindFacSm-652bf9.o
 0002:00021c70       ??_C@_0BK@DHKHMNII@No?5more?5small?964?5factors?4?$AA@ 0000000140082c70     MakePrime-ea48ce.o
 0002:00021c8a       ??_C@_0BK@CEPGHHJG@Removing?5small?964?5factor?3?$AA@ 0000000140082c8a     MakePrime-ea48ce.o
 0002:00021ca4       ??_C@_0BN@KJDOEBOH@P?5?9?51?5had?5all?5small?5factors?4?$AA@ 0000000140082ca4     MakePrime-ea48ce.o
 0002:00023298       ??_C@_0BG@DEIFNGAP@tempAdd?5not?5on?5curve?4?$AA@ 0000000140084298     MCurve-8762b8.o
 0002:000232ae       ??_C@_0BH@MCCPFGPA@toDouble?5not?5on?5curve?4?$AA@ 00000001400842ae     MCurve-8762b8.o
 0002:000232c5       ??_C@_0BF@OIBDFKPE@montLadder1?5U?4isZero?$AA@ 00000001400842c5     MCurve-8762b8.o
 0002:000232da       ??_C@_0BF@OOAEBLE@montLadder1?5k?4isZero?$AA@ 00000001400842da     MCurve-8762b8.o
 0002:000232ef       ??_C@_0CH@CGKGHBGC@montLadder1?5?$CBresult2?4isEqual?$CI?5re@ 00000001400842ef     MCurve-8762b8.o
 0002:00023316       ??_C@_0CB@GMLCMBIP@Exception?5in?5MCurve?3?3montLadder1@ 0000000140084316     MCurve-8762b8.o
 0002:00023337       ??_C@_0BP@MEAGAFNK@An?5unknown?5exception?5happened?4?$AA@ 0000000140084337     MCurve-8762b8.o
 0002:00023356       ??_C@_0BF@NMKOHEJA@curve25519?5prime?5is?3?$AA@ 0000000140084356     MCurve-8762b8.o
 0002:0002336b       ??_C@_0EO@HPFEOOJI@57896044618658097711785492504343@ 000000014008436b     MCurve-8762b8.o
 0002:000233b9       ??_C@_0BE@OKAAJDO@Prime?5is?5not?5right?4?$AA@ 00000001400843b9     MCurve-8762b8.o
 0002:000233cd       ??_C@_0BM@KPIAIJEJ@make32Bytes?5prime?5is?5equal?4?$AA@ 00000001400843cd     MCurve-8762b8.o
 0002:000233e9       ??_C@_0BC@OFFELKBF@tempU?5is?5?$DO?5prime?3?$AA@ 00000001400843e9     MCurve-8762b8.o
 0002:000233fb       ??_C@_0CF@OHHGAPF@This?5can?8t?5happen?5with?5max?5too?5l@ 00000001400843fb     MCurve-8762b8.o
 0002:000249f0       ??_C@_0BM@ODLLLIEB@Not?5conjugate?4?5It?5is?5equal?4?$AA@ 00000001400859f0     MPoint-2c5fa6.o
 0002:00024a0c       ??_C@_0CC@IMCOEIJK@Can?8t?5happen?4?5Point?5not?5on?5curve@ 0000000140085a0c     MPoint-2c5fa6.o
 0002:00024a2e       ??_C@_0CC@CHFCACAD@Can?8t?5happen?4?5?$CBp?4isConjugate?$CI?5q?5@ 0000000140085a2e     MPoint-2c5fa6.o
 0002:00026020       __xmm@00000008000000100000000900000004 0000000140087020     QuadRes-00d8f5.o
 0002:00026030       __xmm@00000006000000100000000900000004 0000000140087030     QuadRes-00d8f5.o
 0002:00026040       __xmm@0000000800000012000000030000000d 0000000140087040     QuadRes-00d8f5.o
 0002:00026050       __xmm@00000002000000100000000900000004 0000000140087050     QuadRes-00d8f5.o
 0002:00026060       __xmm@00000017000000060000001400000007 0000000140087060     QuadRes-00d8f5.o
 0002:00026070       __xmm@00000019000000100000000900000004 0000000140087070     QuadRes-00d8f5.o
 0002:00026080       ??_C@_0BF@JLFLMIHI@QuadRes?5constructor?4?$AA@ 0000000140087080     QuadRes-00d8f5.o
 0002:00026095       ??_C@_0BO@MHAEBMFC@Copy?5constructor?5for?5QuadRes?4?$AA@ 0000000140087095     QuadRes-00d8f5.o
 0002:000260b3       ??_C@_0BA@FHCBKJIL@QuadRes?4init?$CI?$CJ?4?$AA@ 00000001400870b3     QuadRes-00d8f5.o
 0002:000260c3       ??_C@_0BH@FKJHCPCN@End?5of?5QuadRes?4init?$CI?$CJ?4?$AA@ 00000001400870c3     QuadRes-00d8f5.o
 0002:000260e0       __xmm@80000000800000008000000080000000 00000001400870e0     Randomish-7b9f42.o
 0002:000260f0       __xmm@7ffffffe7ffffffe7ffffffe7ffffffe 00000001400870f0     Randomish-7b9f42.o
 0002:00026100       __xmm@9908b0df9908b0df9908b0df9908b0df 0000000140087100     Randomish-7b9f42.o
 0002:00026110       ??_C@_07EGMOGKJC@primeP?3?$AA@ 0000000140087110     Rsa-b22f78.o
 0002:00026118       ??_C@_07EHAMAAKF@primeQ?3?$AA@ 0000000140087118     Rsa-b22f78.o
 0002:00026120       ??_C@_0BC@INFNPDKM@isGoodPair?5false?4?$AA@ 0000000140087120     Rsa-b22f78.o
 0002:00026132       ??_C@_0BD@KCNNIKBO@?$CBsetPrivateKeys?$CI?$CJ?4?$AA@ 0000000140087132     Rsa-b22f78.o
 0002:00026145       ??_C@_0BE@FOFHEDAB@?$CBtestEncryption?$CI?$CJ?4?6?$AA@ 0000000140087145     Rsa-b22f78.o
 0002:00026159       ??_C@_0BK@OHICCBII@FindFacSm?5found?5testFac?3?5?$AA@ 0000000140087159     Rsa-b22f78.o
 0002:00026173       ??_C@_0CE@GNCIKNEO@GarnerCrt?4toInteger?$CI?$CJ?5test?5was?5b@ 0000000140087173     Rsa-b22f78.o
 0002:00026197       ??_C@_0BP@BKAGFAMI@Crt3?4toInteger?$CI?$CJ?5test?5was?5bad?4?$AA@ 0000000140087197     Rsa-b22f78.o
 0002:000261b6       ??_C@_0BD@GOGFEKNJ@Finished?5makeKeys?4?$AA@ 00000001400871b6     Rsa-b22f78.o
 0002:000261c9       ??_C@_0BP@GBNAOCED@Rsa?5multInverse?5was?5false?4?5?$CI1?$CJ?$AA@ 00000001400871c9     Rsa-b22f78.o
 0002:000261e8       ??_C@_0BP@GDJGFMBK@Rsa?5multInverse?5was?5false?4?5?$CI2?$CJ?$AA@ 00000001400871e8     Rsa-b22f78.o
 0002:00026207       ??_C@_0CA@OIFLPEAN@Rsa?5Bad?5privKInverseExponentDP?4?$AA@ 0000000140087207     Rsa-b22f78.o
 0002:00026227       ??_C@_0BP@GCFEDGCN@Rsa?5multInverse?5was?5false?4?5?$CI3?$CJ?$AA@ 0000000140087227     Rsa-b22f78.o
 0002:00026246       ??_C@_0BN@FEPIMDEF@Bad?5privKInverseExponentDQ?4?6?$AA@ 0000000140087246     Rsa-b22f78.o
 0002:00026263       ??_C@_0BE@GMIDMNHA@testEncryption?5top?4?$AA@ 0000000140087263     Rsa-b22f78.o
 0002:00026277       ??_C@_0P@EEALOIPD@testIndex?5?$DM?50?4?$AA@ 0000000140087277     Rsa-b22f78.o
 0002:00026286       ??_C@_0CG@CJIJNGCG@Error?5making?5toEncrypt?5random?5nu@ 0000000140087286     Rsa-b22f78.o
 0002:000262ac       ??_C@_0BM@KIMDLKJG@PlainTextNumber?5not?5equal?4?6?$AA@ 00000001400872ac     Rsa-b22f78.o
 0002:000262c8       ??_C@_0BN@NPLEDJHM@Garner?5test?51?5was?5not?5right?4?$AA@ 00000001400872c8     Rsa-b22f78.o
 0002:000262e5       ??_C@_0BN@IMCOGCPI@Garner?5test?52?5was?5not?5right?4?$AA@ 00000001400872e5     Rsa-b22f78.o
 0002:000278d8       ??_C@_0BE@PAGPDPPM@Garner?5constructor?4?$AA@ 00000001400888d8     Rsa-b22f78.o
 0002:000278ec       ??_C@_0BB@CHEMHFII@Top?5of?5RSA?5test?4?$AA@ 00000001400888ec     RsaTest-551fee.o
 0002:000278fd       ??_C@_0BF@CNFKEMLI@Before?5RSA?5makeKeys?4?$AA@ 00000001400888fd     RsaTest-551fee.o
 0002:00027912       ??_C@_09OAIGABEM@Seconds?3?5?$AA@ 0000000140088912     RsaTest-551fee.o
 0002:0002791c       ??_C@_0P@GLEEPBPB@Finished?5test?4?$AA@ 000000014008891c     RsaTest-551fee.o
 0002:00028f00       ??_C@_0CE@PIPPMGMK@SHA?5padding?5finalSize?5is?5not?5rig@ 0000000140089f00     Sha256-a07749.o
 0002:00028f24       ??_C@_0CB@GDLGOEKO@processAllBlocks?5?$CImax?5?$CF?564?$CJ?5?$CB?$DN?50@ 0000000140089f24     Sha256-a07749.o
 0002:00028f45       ??_C@_0CC@NADLONDP@Sha256?4processMessageBlock?$CI?5last@ 0000000140089f45     Sha256-a07749.o
 0002:00028f70       ?K@Sha256@@0QBIB           0000000140089f70     Sha256-a07749.o
 0002:00029070       ??_C@_0BL@LBPJKOBL@Inner?5key?5padding?5was?5bad?4?$AA@ 000000014008a070     Sha256-a07749.o
 0002:0002908b       ??_C@_0BO@KGFIDHCK@The?5hash?5length?5is?5not?5right?4?$AA@ 000000014008a08b     Sha256-a07749.o
 0002:000290a9       ??_C@_0BM@DGAAIGKP@Uint32Array?4setVal?$CI?$CJ?5range?4?$AA@ 000000014008a0a9     Sha256-a07749.o
 0002:000290c5       ??_C@_0BM@EBGPELG@Uint32Array?4getVal?$CI?$CJ?5range?4?$AA@ 000000014008a0c5     Sha256-a07749.o
 0002:00029124       ??_C@_0CC@HCMLNLEH@SPrimes?4getFirstFactor?5Max?5range@ 000000014008a124     SPrimes-ef540f.o
 0002:00029146       ??_C@_0BF@DPOALLE@SPrimes?4makeArray?$CI?$CJ?4?$AA@ 000000014008a146     SPrimes-ef540f.o
 0002:0002915b       ??_C@_0BN@LOAFPCKB@Floating?5point?5error?5signal?4?$AA@ 000000014008a15b     Signals-d659c2.o
 0002:00029178       ??_C@_0BN@MBCDCGAP@This?5is?5not?5going?5to?5happen?4?$AA@ 000000014008a178     Signals-d659c2.o
 0002:00029195       ??_C@_0BH@JOOEDPNK@Got?5illegal?5op?5signal?4?$AA@ 000000014008a195     Signals-d659c2.o
 0002:000291ac       ??_C@_0BH@NDKKOGA@Got?5bad?5memory?5signal?4?$AA@ 000000014008a1ac     Signals-d659c2.o
 0002:000291c3       ??_C@_0CG@LKBJFCNF@Error?5setting?5the?5Fpe?5signal?5han@ 000000014008a1c3     Signals-d659c2.o
 0002:000291e9       ??_C@_0CM@ELHLGCHK@Error?5setting?5the?5Control?5C?5sign@ 000000014008a1e9     Signals-d659c2.o
 0002:00029215       ??_C@_0CN@LPBIAJIL@Error?5setting?5the?5illegal?5op?5sig@ 000000014008a215     Signals-d659c2.o
 0002:00029242       ??_C@_0CK@BBABBOC@Error?5setting?5the?5bad?5mem?5signal@ 000000014008a242     Signals-d659c2.o
 0002:0002926c       ??_C@_0BI@IJKEMLLD@Error?5with?5time?5set?5up?4?$AA@ 000000014008a26c     TimeApiWin-c4ae35.o
 0002:00029284       ??_C@_01JLIPDDHJ@?3?$AA@   000000014008a284     TimeApiWin-c4ae35.o
 0002:00029286       ??_C@_01GBGANLPD@0?$AA@    000000014008a286     TimeApiWin-c4ae35.o
 0002:00029290       ??_7type_info@@6B@         000000014008a290     libcmt:std_type_info_static.obj
 0002:000292a0       __xmm@ffffffffffffffffffffffffffffffff 000000014008a2a0     libcmt:utility.obj
 0002:000292b0       ??_C@_0P@GHFPNOJB@bad?5allocation@ 000000014008a2b0     libcmt:throw_bad_alloc.obj
 0002:000292c0       ??_C@_0BF@KINCDENJ@bad?5array?5new?5length@ 000000014008a2c0     libcmt:throw_bad_alloc.obj
 0002:000292d8       ?_BADOFF@std@@3_JB         000000014008a2d8     libcpmt:ios.obj
 0002:000292e8       ??_7_Locimp@locale@std@@6B@ 000000014008a2e8     libcpmt:locale0.obj
 0002:00029300       ??_C@_01NBENCBCI@?$CK@     000000014008a300     libcpmt:locale0.obj
 0002:00029304       ??_C@_01GFHCPBMG@C@        000000014008a304     libcpmt:locale0.obj
 0002:00029306       ??_C@_00CNPNBAHC@@         000000014008a306     libcpmt:locale0.obj
 0002:00029310       ??_7logic_error@std@@6B@   000000014008a310     libcpmt:xthrow.obj
 0002:00029328       ??_7length_error@std@@6B@  000000014008a328     libcpmt:xthrow.obj
 0002:00029340       ??_7out_of_range@std@@6B@  000000014008a340     libcpmt:xthrow.obj
 0002:000293f8       ??_C@_01KDCPPGHE@r@        000000014008a3f8     libcpmt:fiopen.obj
 0002:000293fc       ??_C@_01NOFIACDB@w@        000000014008a3fc     libcpmt:fiopen.obj
 0002:00029400       ??_C@_01MCMALHOG@a@        000000014008a400     libcpmt:fiopen.obj
 0002:00029404       ??_C@_02JDPG@rb@           000000014008a404     libcpmt:fiopen.obj
 0002:00029408       ??_C@_02GMLFBBN@wb@        000000014008a408     libcpmt:fiopen.obj
 0002:0002940c       ??_C@_02BOGAIONP@ab@       000000014008a40c     libcpmt:fiopen.obj
 0002:00029410       ??_C@_02CBLLGHLK@r?$CL@    000000014008a410     libcpmt:fiopen.obj
 0002:00029414       ??_C@_02CHHAKFFB@w?$CL@    000000014008a414     libcpmt:fiopen.obj
 0002:00029418       ??_C@_02DPNLHKJD@a?$CL@    000000014008a418     libcpmt:fiopen.obj
 0002:0002941c       ??_C@_03HMFOOINA@r?$CLb@   000000014008a41c     libcpmt:fiopen.obj
 0002:00029420       ??_C@_03ELIABIOC@w?$CLb@   000000014008a420     libcpmt:fiopen.obj
 0002:00029424       ??_C@_03DOPCBAKB@a?$CLb@   000000014008a424     libcpmt:fiopen.obj
 0002:00029428       ??_C@_02LGOGKLMG@wx@       000000014008a428     libcpmt:fiopen.obj
 0002:0002942c       ??_C@_03PLKNOCDJ@w?$CLx@   000000014008a42c     libcpmt:fiopen.obj
 0002:00029430       ??_C@_03IEOGFEHG@wbx@      000000014008a430     libcpmt:fiopen.obj
 0002:00029434       ??_C@_04KJKJPALC@w?$CLbx@  000000014008a434     libcpmt:fiopen.obj
 0002:00029bd0       ??_C@_07IPNMCAN@success@   000000014008abd0     libcpmt:syserror.obj
 0002:00029bd8       ??_C@_0BN@LKKBCCDB@address?5family?5not?5supported@ 000000014008abd8     libcpmt:syserror.obj
 0002:00029bf8       ??_C@_0P@LDMLAFHI@address?5in?5use@ 000000014008abf8     libcpmt:syserror.obj
 0002:00029c08       ??_C@_0BG@DHPCNBJB@address?5not?5available@ 000000014008ac08     libcpmt:syserror.obj
 0002:00029c20       ??_C@_0BC@DFIBIBIL@already?5connected@ 000000014008ac20     libcpmt:syserror.obj
 0002:00029c38       ??_C@_0BH@CAKOHOMI@argument?5list?5too?5long@ 000000014008ac38     libcpmt:syserror.obj
 0002:00029c50       ??_C@_0BH@CGIMPKIM@argument?5out?5of?5domain@ 000000014008ac50     libcpmt:syserror.obj
 0002:00029c68       ??_C@_0M@KGHGGJGL@bad?5address@ 000000014008ac68     libcpmt:syserror.obj
 0002:00029c78       ??_C@_0BE@MPJPGCEO@bad?5file?5descriptor@ 000000014008ac78     libcpmt:syserror.obj
 0002:00029c90       ??_C@_0M@PMMIEFCP@bad?5message@ 000000014008ac90     libcpmt:syserror.obj
 0002:00029ca0       ??_C@_0M@KPHOFDBE@broken?5pipe@ 000000014008aca0     libcpmt:syserror.obj
 0002:00029cb0       ??_C@_0BD@MGNDDEGM@connection?5aborted@ 000000014008acb0     libcpmt:syserror.obj
 0002:00029cc8       ??_C@_0BP@KAIHPOGN@connection?5already?5in?5progress@ 000000014008acc8     libcpmt:syserror.obj
 0002:00029ce8       ??_C@_0BD@PJLIIJEL@connection?5refused@ 000000014008ace8     libcpmt:syserror.obj
 0002:00029d00       ??_C@_0BB@IECNJNOI@connection?5reset@ 000000014008ad00     libcpmt:syserror.obj
 0002:00029d18       ??_C@_0BC@PPHBOELF@cross?5device?5link@ 000000014008ad18     libcpmt:syserror.obj
 0002:00029d30       ??_C@_0BN@KDMIFEIP@destination?5address?5required@ 000000014008ad30     libcpmt:syserror.obj
 0002:00029d50       ??_C@_0BI@NGCEHDD@device?5or?5resource?5busy@ 000000014008ad50     libcpmt:syserror.obj
 0002:00029d68       ??_C@_0BE@JIDOCPHM@directory?5not?5empty@ 000000014008ad68     libcpmt:syserror.obj
 0002:00029d80       ??_C@_0BI@BNCLIGPB@executable?5format?5error@ 000000014008ad80     libcpmt:syserror.obj
 0002:00029d98       ??_C@_0M@MIDIAGJP@file?5exists@ 000000014008ad98     libcpmt:syserror.obj
 0002:00029da8       ??_C@_0P@DNAJLBJK@file?5too?5large@ 000000014008ada8     libcpmt:syserror.obj
 0002:00029db8       ??_C@_0BC@EJHOMAAK@filename?5too?5long@ 000000014008adb8     libcpmt:syserror.obj
 0002:00029dd0       ??_C@_0BH@KEFGLDAF@function?5not?5supported@ 000000014008add0     libcpmt:syserror.obj
 0002:00029de8       ??_C@_0BB@DHFDFGDM@host?5unreachable@ 000000014008ade8     libcpmt:syserror.obj
 0002:00029e00       ??_C@_0BD@JPHBMONG@identifier?5removed@ 000000014008ae00     libcpmt:syserror.obj
 0002:00029e18       ??_C@_0BG@CDNPAGJK@illegal?5byte?5sequence@ 000000014008ae18     libcpmt:syserror.obj
 0002:00029e30       ??_C@_0CD@BNPLBMNA@inappropriate?5io?5control?5operat@ 000000014008ae30     libcpmt:syserror.obj
 0002:00029e58       ??_C@_0M@EGEKIIMP@interrupted@ 000000014008ae58     libcpmt:syserror.obj
 0002:00029e68       ??_C@_0BB@FCMFBGOM@invalid?5argument@ 000000014008ae68     libcpmt:syserror.obj
 0002:00029e80       ??_C@_0N@OHAFKDEK@invalid?5seek@ 000000014008ae80     libcpmt:syserror.obj
 0002:00029e90       ??_C@_08GLNPIFBN@io?5error@ 000000014008ae90     libcpmt:syserror.obj
 0002:00029ea0       ??_C@_0P@FLLDBIDK@is?5a?5directory@ 000000014008aea0     libcpmt:syserror.obj
 0002:00029eb0       ??_C@_0N@IFLPBIOP@message?5size@ 000000014008aeb0     libcpmt:syserror.obj
 0002:00029ec0       ??_C@_0N@KIIEAAIO@network?5down@ 000000014008aec0     libcpmt:syserror.obj
 0002:00029ed0       ??_C@_0O@FNPDBHEE@network?5reset@ 000000014008aed0     libcpmt:syserror.obj
 0002:00029ee0       ??_C@_0BE@IFNCKGE@network?5unreachable@ 000000014008aee0     libcpmt:syserror.obj
 0002:00029ef8       ??_C@_0BA@PFFCAOFK@no?5buffer?5space@ 000000014008aef8     libcpmt:syserror.obj
 0002:00029f08       ??_C@_0BB@IEPBLJHK@no?5child?5process@ 000000014008af08     libcpmt:syserror.obj
 0002:00029f20       ??_C@_07PLECNNKG@no?5link@ 000000014008af20     libcpmt:syserror.obj
 0002:00029f28       ??_C@_0BC@NJECKMKE@no?5lock?5available@ 000000014008af28     libcpmt:syserror.obj
 0002:00029f40       ??_C@_0BF@PBGGPKKE@no?5message?5available@ 000000014008af40     libcpmt:syserror.obj
 0002:00029f58       ??_C@_0L@EDOLMPAK@no?5message@ 000000014008af58     libcpmt:syserror.obj
 0002:00029f68       ??_C@_0BD@EAMBFIDF@no?5protocol?5option@ 000000014008af68     libcpmt:syserror.obj
 0002:00029f80       ??_C@_0BD@IJDJKDEA@no?5space?5on?5device@ 000000014008af80     libcpmt:syserror.obj
 0002:00029f98       ??_C@_0BE@MKFDAFMP@no?5stream?5resources@ 000000014008af98     libcpmt:syserror.obj
 0002:00029fb0       ??_C@_0BK@IMCPHCBI@no?5such?5device?5or?5address@ 000000014008afb0     libcpmt:syserror.obj
 0002:00029fd0       ??_C@_0P@FDINDDOK@no?5such?5device@ 000000014008afd0     libcpmt:syserror.obj
 0002:00029fe0       ??_C@_0BK@NDOCBPGE@no?5such?5file?5or?5directory@ 000000014008afe0     libcpmt:syserror.obj
 0002:0002a000       ??_C@_0BA@ENLPPKBN@no?5such?5process@ 000000014008b000     libcpmt:syserror.obj
 0002:0002a010       ??_C@_0BA@DOCPFFJG@not?5a?5directory@ 000000014008b010     libcpmt:syserror.obj
 0002:0002a020       ??_C@_0N@POEIPGGF@not?5a?5socket@ 000000014008b020     libcpmt:syserror.obj
 0002:0002a030       ??_C@_0N@LGAPMMPI@not?5a?5stream@ 000000014008b030     libcpmt:syserror.obj
 0002:0002a040       ??_C@_0O@GLMIBBEG@not?5connected@ 000000014008b040     libcpmt:syserror.obj
 0002:0002a050       ??_C@_0BC@ENOOLCNF@not?5enough?5memory@ 000000014008b050     libcpmt:syserror.obj
 0002:0002a068       ??_C@_0O@NHEDABJP@not?5supported@ 000000014008b068     libcpmt:syserror.obj
 0002:0002a078       ??_C@_0BD@MOLBPMEA@operation?5canceled@ 000000014008b078     libcpmt:syserror.obj
 0002:0002a090       ??_C@_0BG@KDKHOPCO@operation?5in?5progress@ 000000014008b090     libcpmt:syserror.obj
 0002:0002a0a8       ??_C@_0BI@OHIEJAAB@operation?5not?5permitted@ 000000014008b0a8     libcpmt:syserror.obj
 0002:0002a0c0       ??_C@_0BI@LNEGIFLN@operation?5not?5supported@ 000000014008b0c0     libcpmt:syserror.obj
 0002:0002a0d8       ??_C@_0BG@OEMDKMEE@operation?5would?5block@ 000000014008b0d8     libcpmt:syserror.obj
 0002:0002a0f0       ??_C@_0L@BLPOFLNJ@owner?5dead@ 000000014008b0f0     libcpmt:syserror.obj
 0002:0002a100       ??_C@_0BC@CIJDGCDI@permission?5denied@ 000000014008b100     libcpmt:syserror.obj
 0002:0002a118       ??_C@_0P@FNPOCJBE@protocol?5error@ 000000014008b118     libcpmt:syserror.obj
 0002:0002a128       ??_C@_0BH@JPPPLHJB@protocol?5not?5supported@ 000000014008b128     libcpmt:syserror.obj
 0002:0002a140       ??_C@_0BG@EICBIHDP@read?5only?5file?5system@ 000000014008b140     libcpmt:syserror.obj
 0002:0002a158       ??_C@_0BO@BJBOMOEJ@resource?5deadlock?5would?5occur@ 000000014008b158     libcpmt:syserror.obj
 0002:0002a178       ??_C@_0BP@LKNGHENJ@resource?5unavailable?5try?5again@ 000000014008b178     libcpmt:syserror.obj
 0002:0002a198       ??_C@_0BE@GOIPJJHG@result?5out?5of?5range@ 000000014008b198     libcpmt:syserror.obj
 0002:0002a1b0       ??_C@_0BG@MPLKFPAE@state?5not?5recoverable@ 000000014008b1b0     libcpmt:syserror.obj
 0002:0002a1c8       ??_C@_0P@DIIFGFCG@stream?5timeout@ 000000014008b1c8     libcpmt:syserror.obj
 0002:0002a1d8       ??_C@_0P@IPFDMIFL@text?5file?5busy@ 000000014008b1d8     libcpmt:syserror.obj
 0002:0002a1e8       ??_C@_09KJPPMAOI@timed?5out@ 000000014008b1e8     libcpmt:syserror.obj
 0002:0002a1f8       ??_C@_0BO@HACHBEKI@too?5many?5files?5open?5in?5system@ 000000014008b1f8     libcpmt:syserror.obj
 0002:0002a218       ??_C@_0BE@GHAFMPAH@too?5many?5files?5open@ 000000014008b218     libcpmt:syserror.obj
 0002:0002a230       ??_C@_0P@HCOMKFCC@too?5many?5links@ 000000014008b230     libcpmt:syserror.obj
 0002:0002a240       ??_C@_0BO@EFGOJEF@too?5many?5symbolic?5link?5levels@ 000000014008b240     libcpmt:syserror.obj
 0002:0002a260       ??_C@_0BA@KGKGOOJA@value?5too?5large@ 000000014008b260     libcpmt:syserror.obj
 0002:0002a270       ??_C@_0BE@MIEJDDNH@wrong?5protocol?5type@ 000000014008b270     libcpmt:syserror.obj
 0002:0002a288       ??_C@_0O@BFJCFAAK@unknown?5error@ 000000014008b288     libcpmt:syserror.obj
 0002:0002a298       ??_C@_0BM@EEBBMCOD@invalid?5random_device?5value@ 000000014008b298     libcpmt:xrngdev.obj
 0002:0002a3c0       ??_C@_1BK@MGMFAEKH@?$AAk?$AAe?$AAr?$AAn?$AAe?$AAl?$AA3?$AA2?$AA?4?$AAd?$AAl?$AAl@ 000000014008b3c0     libcpmt:winapisupp.obj
 0002:0002a3e0       ??_C@_0BE@JOGNEJCI@GetCurrentPackageId@ 000000014008b3e0     libcpmt:winapisupp.obj
 0002:0002a3f8       ??_C@_0BP@FPNJPEJC@GetSystemTimePreciseAsFileTime@ 000000014008b3f8     libcpmt:winapisupp.obj
 0002:0002a418       ??_C@_0O@NNMIPI@GetTempPath2W@ 000000014008b418     libcpmt:winapisupp.obj
 0002:0002a428       ??_C@_11LOCGONAA@@         000000014008b428     libcpmt:wlocale.obj
 0002:0002a42c       ??_C@_13IMODFHAA@?$AA?9@   000000014008b42c     libcpmt:wlocale.obj
 0002:0002a430       ??_C@_01JOAMLHOP@?9@       000000014008b430     libcpmt:wlocale.obj
 0002:0002a4d8       ?s_negLengthTab@FH4@@3QBCB 000000014008b4d8     libvcruntime:risctrnsctrl.obj
 0002:0002a4e8       ?s_shiftTab@FH4@@3QBEB     000000014008b4e8     libvcruntime:risctrnsctrl.obj
 0002:0002a638       _pDestructExceptionObject  000000014008b638     libvcruntime:ehhelpers.obj
 0002:0002a648       ??_7bad_exception@std@@6B@ 000000014008b648     libvcruntime:frame.obj
 0002:0002a658       ??_C@_0O@DPKOEFFH@bad?5exception@ 000000014008b658     libvcruntime:frame.obj
 0002:0002ad80       ??_C@_08EHJDFFNH@__based?$CI@ 000000014008bd80     libvcruntime:undname.obj
 0002:0002ad90       ??_C@_07KOLFKCDI@__cdecl@  000000014008bd90     libvcruntime:undname.obj
 0002:0002ad98       ??_C@_08GHMPAG@__pascal@   000000014008bd98     libvcruntime:undname.obj
 0002:0002ada8       ??_C@_09IFJBGAPI@__stdcall@ 000000014008bda8     libvcruntime:undname.obj
 0002:0002adb8       ??_C@_0L@NPHFGOKO@__thiscall@ 000000014008bdb8     libvcruntime:undname.obj
 0002:0002adc8       ??_C@_0L@JMKHOMEK@__fastcall@ 000000014008bdc8     libvcruntime:undname.obj
 0002:0002add8       ??_C@_0N@BCKKPABJ@__vectorcall@ 000000014008bdd8     libvcruntime:undname.obj
 0002:0002ade8       ??_C@_09HIJEGCPM@__clrcall@ 000000014008bde8     libvcruntime:undname.obj
 0002:0002adf4       ??_C@_06GHPCKEAG@__eabi@   000000014008bdf4     libvcruntime:undname.obj
 0002:0002ae00       ??_C@_09IOPIDJLG@__swift_1@ 000000014008be00     libvcruntime:undname.obj
 0002:0002ae10       ??_C@_09KFNFGKHF@__swift_2@ 000000014008be10     libvcruntime:undname.obj
 0002:0002ae20       ??_C@_09LMMOFLDE@__swift_3@ 000000014008be20     libvcruntime:undname.obj
 0002:0002ae30       ??_C@_07JOMMBBKO@__ptr64@  000000014008be30     libvcruntime:undname.obj
 0002:0002ae38       ??_C@_0L@PILCLIHE@__restrict@ 000000014008be38     libvcruntime:undname.obj
 0002:0002ae48       ??_C@_0M@GFIIJFMG@__unaligned@ 000000014008be48     libvcruntime:undname.obj
 0002:0002ae58       ??_C@_09DHDLOLLB@restrict?$CI@ 000000014008be58     libvcruntime:undname.obj
 0002:0002ae64       ??_C@_04NIHEBCM@?5new@     000000014008be64     libvcruntime:undname.obj
 0002:0002ae70       ??_C@_07FPCDHGMM@?5delete@ 000000014008be70     libvcruntime:undname.obj
 0002:0002ae78       ??_C@_01NEMOKFLO@?$DN@     000000014008be78     libvcruntime:undname.obj
 0002:0002ae7c       ??_C@_02GPIOPFAK@?$DO?$DO@ 000000014008be7c     libvcruntime:undname.obj
 0002:0002ae80       ??_C@_02FODMEDOG@?$DM?$DM@ 000000014008be80     libvcruntime:undname.obj
 0002:0002ae84       ??_C@_01DCLJPIOD@?$CB@     000000014008be84     libvcruntime:undname.obj
 0002:0002ae88       ??_C@_02EGOFBIJA@?$DN?$DN@ 000000014008be88     libvcruntime:undname.obj
 0002:0002ae8c       ??_C@_02FDNJECIE@?$CB?$DN@ 000000014008be8c     libvcruntime:undname.obj
 0002:0002ae90       ??_C@_02GPECMEKF@?$FL?$FN@ 000000014008be90     libvcruntime:undname.obj
 0002:0002ae98       ??_C@_08LHJFAFGD@operator@ 000000014008be98     libvcruntime:undname.obj
 0002:0002aea4       ??_C@_02HBOOOICD@?9?$DO@   000000014008bea4     libvcruntime:undname.obj
 0002:0002aea8       ??_C@_02ECNGHCIF@?$CL?$CL@ 000000014008bea8     libvcruntime:undname.obj
 0002:0002aeac       ??_C@_02BAABKJLB@?9?9@     000000014008beac     libvcruntime:undname.obj
 0002:0002aeb0       ??_C@_01MIFGBAGJ@?$CL@     000000014008beb0     libvcruntime:undname.obj
 0002:0002aeb4       ??_C@_01HNPIGOCE@?$CG@     000000014008beb4     libvcruntime:undname.obj
 0002:0002aeb8       ??_C@_03MNHNFDLC@?9?$DO?$CK@ 000000014008beb8     libvcruntime:undname.obj
 0002:0002aebc       ??_C@_01KMDKNFGN@?1@       000000014008bebc     libvcruntime:undname.obj
 0002:0002aec0       ??_C@_01FGNFDNOH@?$CF@     000000014008bec0     libvcruntime:undname.obj
 0002:0002aec4       ??_C@_01MNNFJEPP@?$DM@     000000014008bec4     libvcruntime:undname.obj
 0002:0002aec8       ??_C@_02EHCHHCKH@?$DM?$DN@ 000000014008bec8     libvcruntime:undname.obj
 0002:0002aecc       ??_C@_01PPODPGHN@?$DO@     000000014008becc     libvcruntime:undname.obj
 0002:0002aed0       ??_C@_02EEKDKGMJ@?$DO?$DN@ 000000014008bed0     libvcruntime:undname.obj
 0002:0002aed4       ??_C@_01IHBHIGKO@?0@       000000014008bed4     libvcruntime:undname.obj
 0002:0002aed8       ??_C@_02HCKGKOFO@?$CI?$CJ@ 000000014008bed8     libvcruntime:undname.obj
 0002:0002aedc       ??_C@_01PJKLJHI@?$HO@      000000014008bedc     libvcruntime:undname.obj
 0002:0002aee0       ??_C@_01JKBOJNNK@?$FO@     000000014008bee0     libvcruntime:undname.obj
 0002:0002aee4       ??_C@_01DNKMNLPK@?$HM@     000000014008bee4     libvcruntime:undname.obj
 0002:0002aee8       ??_C@_02PPKAJPJL@?$CG?$CG@ 000000014008bee8     libvcruntime:undname.obj
 0002:0002aeec       ??_C@_02NONPIBCD@?$HM?$HM@ 000000014008beec     libvcruntime:undname.obj
 0002:0002aef0       ??_C@_02FPIMKNGF@?$CK?$DN@ 000000014008bef0     libvcruntime:undname.obj
 0002:0002aef4       ??_C@_02FOEOMHFC@?$CL?$DN@ 000000014008bef4     libvcruntime:undname.obj
 0002:0002aef8       ??_C@_02FKMDLLOA@?9?$DN@   000000014008bef8     libvcruntime:undname.obj
 0002:0002aefc       ??_C@_02FJEHGPIO@?1?$DN@   000000014008befc     libvcruntime:undname.obj
 0002:0002af00       ??_C@_02FENAOKFI@?$CF?$DN@ 000000014008bf00     libvcruntime:undname.obj
 0002:0002af04       ??_C@_03IKFCCPFF@?$DO?$DO?$DN@ 000000014008bf04     libvcruntime:undname.obj
 0002:0002af08       ??_C@_03CDNPDDLA@?$DM?$DM?$DN@ 000000014008bf08     libvcruntime:undname.obj
 0002:0002af0c       ??_C@_02FGJGFEAB@?$CG?$DN@ 000000014008bf0c     libvcruntime:undname.obj
 0002:0002af10       ??_C@_02DHLNPPGH@?$HM?$DN@ 000000014008bf10     libvcruntime:undname.obj
 0002:0002af14       ??_C@_02MHEGNOJ@?$FO?$DN@  000000014008bf14     libvcruntime:undname.obj
 0002:0002af18       ??_C@_09IFPLHPGF@?$GAvftable?8@ 000000014008bf18     libvcruntime:undname.obj
 0002:0002af28       ??_C@_09BLBHBJP@?$GAvbtable?8@ 000000014008bf28     libvcruntime:undname.obj
 0002:0002af38       ??_C@_07FEEIOKP@?$GAvcall?8@ 000000014008bf38     libvcruntime:undname.obj
 0002:0002af40       ??_C@_08LLFFHHDJ@?$GAtypeof?8@ 000000014008bf40     libvcruntime:undname.obj
 0002:0002af50       ??_C@_0BF@KDPPACIK@?$GAlocal?5static?5guard?8@ 000000014008bf50     libvcruntime:undname.obj
 0002:0002af68       ??_C@_08OBABFOLI@?$GAstring?8@ 000000014008bf68     libvcruntime:undname.obj
 0002:0002af78       ??_C@_0BD@JDLKDPAB@?$GAvbase?5destructor?8@ 000000014008bf78     libvcruntime:undname.obj
 0002:0002af90       ??_C@_0BN@DEGPLNFK@?$GAvector?5deleting?5destructor?8@ 000000014008bf90     libvcruntime:undname.obj
 0002:0002afb0       ??_C@_0BO@OBMKPJIG@?$GAdefault?5constructor?5closure?8@ 000000014008bfb0     libvcruntime:undname.obj
 0002:0002afd0       ??_C@_0BN@IMDCHIKM@?$GAscalar?5deleting?5destructor?8@ 000000014008bfd0     libvcruntime:undname.obj
 0002:0002aff0       ??_C@_0BO@PFGOCPJJ@?$GAvector?5constructor?5iterator?8@ 000000014008bff0     libvcruntime:undname.obj
 0002:0002b010       ??_C@_0BN@LFPFMEDL@?$GAvector?5destructor?5iterator?8@ 000000014008c010     libvcruntime:undname.obj
 0002:0002b030       ??_C@_0CE@IKBNEHA@?$GAvector?5vbase?5constructor?5itera@ 000000014008c030     libvcruntime:undname.obj
 0002:0002b058       ??_C@_0BL@NILFHHPC@?$GAvirtual?5displacement?5map?8@ 000000014008c058     libvcruntime:undname.obj
 0002:0002b078       ??_C@_0CB@JONCMFFK@?$GAeh?5vector?5constructor?5iterator@ 000000014008c078     libvcruntime:undname.obj
 0002:0002b0a0       ??_C@_0CA@GCEOPDGL@?$GAeh?5vector?5destructor?5iterator?8@ 000000014008c0a0     libvcruntime:undname.obj
 0002:0002b0c0       ??_C@_0CH@OOJPLCPH@?$GAeh?5vector?5vbase?5constructor?5it@ 000000014008c0c0     libvcruntime:undname.obj
 0002:0002b0e8       ??_C@_0BL@LLKPOHJI@?$GAcopy?5constructor?5closure?8@ 000000014008c0e8     libvcruntime:undname.obj
 0002:0002b108       ??_C@_0BA@KBCDOMBN@?$GAudt?5returning?8@ 000000014008c108     libvcruntime:undname.obj
 0002:0002b118       ??_C@_03KLGMFNMG@?$GAEH@   000000014008c118     libvcruntime:undname.obj
 0002:0002b11c       ??_C@_05KHLCHHI@?$GARTTI@  000000014008c11c     libvcruntime:undname.obj
 0002:0002b128       ??_C@_0BA@KKLDJDLB@?$GAlocal?5vftable?8@ 000000014008c128     libvcruntime:undname.obj
 0002:0002b138       ??_C@_0CE@IIHCMGGL@?$GAlocal?5vftable?5constructor?5clos@ 000000014008c138     libvcruntime:undname.obj
 0002:0002b15c       ??_C@_06FHBGPFGH@?5new?$FL?$FN@ 000000014008c15c     libvcruntime:undname.obj
 0002:0002b168       ??_C@_09LBNFPBCA@?5delete?$FL?$FN@ 000000014008c168     libvcruntime:undname.obj
 0002:0002b178       ??_C@_0P@HJKNJFNN@?$GAomni?5callsig?8@ 000000014008c178     libvcruntime:undname.obj
 0002:0002b188       ??_C@_0BL@CNOONJFP@?$GAplacement?5delete?5closure?8@ 000000014008c188     libvcruntime:undname.obj
 0002:0002b1a8       ??_C@_0BN@CKNJLHMB@?$GAplacement?5delete?$FL?$FN?5closure?8@ 000000014008c1a8     libvcruntime:undname.obj
 0002:0002b1c8       ??_C@_0CG@CFDHKGGD@?$GAmanaged?5vector?5constructor?5ite@ 000000014008c1c8     libvcruntime:undname.obj
 0002:0002b1f0       ??_C@_0CF@IMGKMJNO@?$GAmanaged?5vector?5destructor?5iter@ 000000014008c1f0     libvcruntime:undname.obj
 0002:0002b218       ??_C@_0CG@HLDDJMAG@?$GAeh?5vector?5copy?5constructor?5ite@ 000000014008c218     libvcruntime:undname.obj
 0002:0002b240       ??_C@_0CM@FCBBDIGB@?$GAeh?5vector?5vbase?5copy?5construct@ 000000014008c240     libvcruntime:undname.obj
 0002:0002b270       ??_C@_0BL@CLIPGLGB@?$GAdynamic?5initializer?5for?5?8@ 000000014008c270     libvcruntime:undname.obj
 0002:0002b290       ??_C@_0CB@PDBIFEP@?$GAdynamic?5atexit?5destructor?5for?5@ 000000014008c290     libvcruntime:undname.obj
 0002:0002b2b8       ??_C@_0CD@CGAJBKEJ@?$GAvector?5copy?5constructor?5iterat@ 000000014008c2b8     libvcruntime:undname.obj
 0002:0002b2e0       ??_C@_0CJ@GJELGAMM@?$GAvector?5vbase?5copy?5constructor?5@ 000000014008c2e0     libvcruntime:undname.obj
 0002:0002b310       ??_C@_0CL@FGIJHLCE@?$GAmanaged?5vector?5copy?5constructo@ 000000014008c310     libvcruntime:undname.obj
 0002:0002b340       ??_C@_0BM@PMGGMLDN@?$GAlocal?5static?5thread?5guard?8@ 000000014008c340     libvcruntime:undname.obj
 0002:0002b360       ??_C@_0N@BDNMDMOL@operator?5?$CC?$CC?5@ 000000014008c360     libvcruntime:undname.obj
 0002:0002b370       ??_C@_0BC@GGEBGALA@operator?5co_await@ 000000014008c370     libvcruntime:undname.obj
 0002:0002b388       ??_C@_0M@GAAIMMOH@operator?$DM?$DN?$DO@ 000000014008c388     libvcruntime:undname.obj
 0002:0002b398       ??_C@_0BC@DAFEJGAK@?5Type?5Descriptor?8@ 000000014008c398     libvcruntime:undname.obj
 0002:0002b3b0       ??_C@_0BM@LDKODKLH@?5Base?5Class?5Descriptor?5at?5?$CI@ 000000014008c3b0     libvcruntime:undname.obj
 0002:0002b3d0       ??_C@_0BD@LGICGFMM@?5Base?5Class?5Array?8@ 000000014008c3d0     libvcruntime:undname.obj
 0002:0002b3e8       ??_C@_0BN@MECKDCOJ@?5Class?5Hierarchy?5Descriptor?8@ 000000014008c3e8     libvcruntime:undname.obj
 0002:0002b408       ??_C@_0BK@CFCOFLF@?5Complete?5Object?5Locator?8@ 000000014008c408     libvcruntime:undname.obj
 0002:0002b428       ??_C@_0BG@JNJLAMPM@?$GAanonymous?5namespace?8@ 000000014008c428     libvcruntime:undname.obj
 0002:0002b458       ??_C@_1DM@KHCHBNEB@?$AAa?$AAp?$AAi?$AA?9?$AAm?$AAs?$AA?9?$AAw?$AAi?$AAn?$AA?9?$AAc?$AAo?$AAr?$AAe@ 000000014008c458     libvcruntime:winapi_downlevel.obj
 0002:0002b498       ??_C@_1DK@LPPGFMPP@?$AAa?$AAp?$AAi?$AA?9?$AAm?$AAs?$AA?9?$AAw?$AAi?$AAn?$AA?9?$AAc?$AAo?$AAr?$AAe@ 000000014008c498     libvcruntime:winapi_downlevel.obj
 0002:0002b4d8       ??_C@_1BC@GDMECMAK@?$AAk?$AAe?$AAr?$AAn?$AAe?$AAl?$AA3?$AA2@ 000000014008c4d8     libvcruntime:winapi_downlevel.obj
 0002:0002b4f0       ??_C@_1BA@PFFKHIOG@?$AAa?$AAp?$AAi?$AA?9?$AAm?$AAs?$AA?9@ 000000014008c4f0     libvcruntime:winapi_downlevel.obj
 0002:0002b508       ??_C@_08KNHFBNJ@FlsAlloc@  000000014008c508     libvcruntime:winapi_downlevel.obj
 0002:0002b520       ??_C@_07PEJMOBNF@FlsFree@  000000014008c520     libvcruntime:winapi_downlevel.obj
 0002:0002b530       ??_C@_0M@GDNOONDI@FlsGetValue@ 000000014008c530     libvcruntime:winapi_downlevel.obj
 0002:0002b548       ??_C@_0M@JCPCPOEF@FlsSetValue@ 000000014008c548     libvcruntime:winapi_downlevel.obj
 0002:0002b560       ??_C@_0BM@HCFOFFN@InitializeCriticalSectionEx@ 000000014008c560     libvcruntime:winapi_downlevel.obj
 0002:0002b580       ?standard_lookup_table_spectre@__crt_stdio_output@@3V?$spectre_mitigated_lookup_table@Ustate_transition_pair@__crt_stdio_output@@$0IA@@1@B 000000014008c580     libucrt:output.obj
 0002:0002b680       ??_C@_1O@CEDCILHN@?$AA?$CI?$AAn?$AAu?$AAl?$AAl?$AA?$CJ@ 000000014008c680     libucrt:output.obj
 0002:0002b690       ??_C@_06OJHGLDPL@?$CInull?$CJ@ 000000014008c690     libucrt:output.obj
 0002:0002b698       __real@3ff0000000000000    000000014008c698     libucrt:round.obj
 0002:0002b6a0       __real@bff0000000000000    000000014008c6a0     libucrt:round.obj
 0002:0002b6a8       __real@41dfffffffc00000    000000014008c6a8     libucrt:lround.obj
 0002:0002b6b0       __real@c1e0000000000000    000000014008c6b0     libucrt:lround.obj
 0002:0002b6c0       __acrt_exception_action_table 000000014008c6c0     libucrt:exception_filter.obj
 0002:0002b780       __acrt_signal_action_table_count 000000014008c780     libucrt:exception_filter.obj
 0002:0002b788       __acrt_signal_action_table_size 000000014008c788     libucrt:exception_filter.obj
 0002:0002b790       __acrt_signal_action_first_fpe_index 000000014008c790     libucrt:exception_filter.obj
 0002:0002b798       __acrt_signal_action_fpe_count 000000014008c798     libucrt:exception_filter.obj
 0002:0002b7f0       ??_C@_1BI@BGOHAHKC@?$AAm?$AAs?$AAc?$AAo?$AAr?$AAe?$AAe?$AA?4?$AAd?$AAl?$AAl@ 000000014008c7f0     libucrt:exit.obj
 0002:0002b808       ??_C@_0P@MIGLKIOC@CorExitProcess@ 000000014008c808     libucrt:exit.obj
 0002:0002b9f0       __lc_category              000000014008c9f0     libucrt:wsetlocale.obj
 0002:0002ba80       ??_C@_1O@GIFLHMA@?$AAL?$AAC?$AA_?$AAA?$AAL?$AAL@ 000000014008ca80     libucrt:wsetlocale.obj
 0002:0002ba90       ??_C@_1BG@PPOMIBNJ@?$AAL?$AAC?$AA_?$AAC?$AAO?$AAL?$AAL?$AAA?$AAT?$AAE@ 000000014008ca90     libucrt:wsetlocale.obj
 0002:0002baa8       ??_C@_1BC@FFJGAPJM@?$AAL?$AAC?$AA_?$AAC?$AAT?$AAY?$AAP?$AAE@ 000000014008caa8     libucrt:wsetlocale.obj
 0002:0002bac0       ??_C@_1BI@PCKFNJFB@?$AAL?$AAC?$AA_?$AAM?$AAO?$AAN?$AAE?$AAT?$AAA?$AAR?$AAY@ 000000014008cac0     libucrt:wsetlocale.obj
 0002:0002bad8       ??_C@_1BG@ENIEDKID@?$AAL?$AAC?$AA_?$AAN?$AAU?$AAM?$AAE?$AAR?$AAI?$AAC@ 000000014008cad8     libucrt:wsetlocale.obj
 0002:0002baf0       ??_C@_1BA@HAAOMIIG@?$AAL?$AAC?$AA_?$AAT?$AAI?$AAM?$AAE@ 000000014008caf0     libucrt:wsetlocale.obj
 0002:0002bb00       ??_C@_15NBPDDFIP@?$AA?$DN?$AA?$DL@ 000000014008cb00     libucrt:wsetlocale.obj
 0002:0002bb08       ??_C@_13PJJBFPED@?$AA?$DL@ 000000014008cb08     libucrt:wsetlocale.obj
 0002:0002bb0c       ??_C@_13NMPKAAJP@?$AA?$DN@ 000000014008cb0c     libucrt:wsetlocale.obj
 0002:0002bb10       ??_C@_17EFJLDFDO@?$AA?9?$AA_?$AA?4@ 000000014008cb10     libucrt:wsetlocale.obj
 0002:0002bb18       ??_C@_13FHBKNHDA@?$AAC@    000000014008cb18     libucrt:wsetlocale.obj
 0002:0002bb20       ??_C@_17MBJJLFDM@?$AA_?$AA?4?$AA?0@ 000000014008cb20     libucrt:wsetlocale.obj
 0002:0002bb28       ??_C@_13ENNFDPBH@?$AA_@    000000014008cb28     libucrt:wsetlocale.obj
 0002:0002bb2c       ??_C@_13JOFGPIOO@?$AA?4@   000000014008cb2c     libucrt:wsetlocale.obj
 0002:0002bb30       __newctype                 000000014008cb30     libucrt:ctype.obj
 0002:0002be30       __newclmap                 000000014008ce30     libucrt:ctype.obj
 0002:0002bfb0       __newcumap                 000000014008cfb0     libucrt:ctype.obj
 0002:0002c130       _wctype                    000000014008d130     libucrt:ctype.obj
 0002:0002c4b0       ?large_power_data@?1??multiply_by_power_of_ten@__crt_strtox@@YA_NAEAUbig_integer@2@I@Z@4QBIB 000000014008d4b0     libucrt:strtod.obj
 0002:0002cdc0       ?large_power_indices@?1??multiply_by_power_of_ten@__crt_strtox@@YA_NAEAUbig_integer@2@I@Z@4QBUunpack_index@?1??12@YA_N0I@Z@B 000000014008ddc0     libucrt:strtod.obj
 0002:0002ce58       ?small_powers_of_ten@?1??multiply_by_power_of_ten@__crt_strtox@@YA_NAEAUbig_integer@2@I@Z@4QBIB 000000014008de58     libucrt:strtod.obj
 0002:0002ceb0       __lc_time_c                000000014008deb0     libucrt:nlsdata.obj
 0002:0002d170       ??_C@_03KOEHGMDN@Sun@      000000014008e170     libucrt:nlsdata.obj
 0002:0002d174       ??_C@_03PDAGKDH@Mon@       000000014008e174     libucrt:nlsdata.obj
 0002:0002d178       ??_C@_03NAGEINEP@Tue@      000000014008e178     libucrt:nlsdata.obj
 0002:0002d17c       ??_C@_03MHOMLAJA@Wed@      000000014008e17c     libucrt:nlsdata.obj
 0002:0002d180       ??_C@_03IOFIKPDN@Thu@      000000014008e180     libucrt:nlsdata.obj
 0002:0002d184       ??_C@_03IDIOELNC@Fri@      000000014008e184     libucrt:nlsdata.obj
 0002:0002d188       ??_C@_03FEFJNEK@Sat@       000000014008e188     libucrt:nlsdata.obj
 0002:0002d18c       ??_C@_06OOPIFAJ@Sunday@    000000014008e18c     libucrt:nlsdata.obj
 0002:0002d194       ??_C@_06JLEDEDGH@Monday@   000000014008e194     libucrt:nlsdata.obj
 0002:0002d1a0       ??_C@_07BAAGCFCM@Tuesday@  000000014008e1a0     libucrt:nlsdata.obj
 0002:0002d1a8       ??_C@_09DLIGFAKA@Wednesday@ 000000014008e1a8     libucrt:nlsdata.obj
 0002:0002d1b8       ??_C@_08HACCIKIA@Thursday@ 000000014008e1b8     libucrt:nlsdata.obj
 0002:0002d1c4       ??_C@_06JECMNKMI@Friday@   000000014008e1c4     libucrt:nlsdata.obj
 0002:0002d1d0       ??_C@_08INBOOONO@Saturday@ 000000014008e1d0     libucrt:nlsdata.obj
 0002:0002d1dc       ??_C@_03JIHJHPIE@Jan@      000000014008e1dc     libucrt:nlsdata.obj
 0002:0002d1e0       ??_C@_03HJBDCHOM@Feb@      000000014008e1e0     libucrt:nlsdata.obj
 0002:0002d1e4       ??_C@_03ODNJBKGA@Mar@      000000014008e1e4     libucrt:nlsdata.obj
 0002:0002d1e8       ??_C@_03LEOLGMJP@Apr@      000000014008e1e8     libucrt:nlsdata.obj
 0002:0002d1ec       ??_C@_03CNMDKL@May@        000000014008e1ec     libucrt:nlsdata.obj
 0002:0002d1f0       ??_C@_03IDFGHECI@Jun@      000000014008e1f0     libucrt:nlsdata.obj
 0002:0002d1f4       ??_C@_03LBGABGKK@Jul@      000000014008e1f4     libucrt:nlsdata.obj
 0002:0002d1f8       ??_C@_03IFJFEIGA@Aug@      000000014008e1f8     libucrt:nlsdata.obj
 0002:0002d1fc       ??_C@_03GGCAPAJC@Sep@      000000014008e1fc     libucrt:nlsdata.obj
 0002:0002d200       ??_C@_03BMAOKBAD@Oct@      000000014008e200     libucrt:nlsdata.obj
 0002:0002d204       ??_C@_03JPJOFNIA@Nov@      000000014008e204     libucrt:nlsdata.obj
 0002:0002d208       ??_C@_03MKABNOCG@Dec@      000000014008e208     libucrt:nlsdata.obj
 0002:0002d210       ??_C@_07CGJPFGJA@January@  000000014008e210     libucrt:nlsdata.obj
 0002:0002d218       ??_C@_08GNJGEPFN@February@ 000000014008e218     libucrt:nlsdata.obj
 0002:0002d224       ??_C@_05HPCKOFNC@March@    000000014008e224     libucrt:nlsdata.obj
 0002:0002d22c       ??_C@_05DMJDNLEJ@April@    000000014008e22c     libucrt:nlsdata.obj
 0002:0002d234       ??_C@_04CNLMGBGM@June@     000000014008e234     libucrt:nlsdata.obj
 0002:0002d23c       ??_C@_04MIEPOIFP@July@     000000014008e23c     libucrt:nlsdata.obj
 0002:0002d244       ??_C@_06LBBHFDDG@August@   000000014008e244     libucrt:nlsdata.obj
 0002:0002d250       ??_C@_09BHHEALKD@September@ 000000014008e250     libucrt:nlsdata.obj
 0002:0002d260       ??_C@_07JJNFCEND@October@  000000014008e260     libucrt:nlsdata.obj
 0002:0002d268       ??_C@_08HCHEGEOA@November@ 000000014008e268     libucrt:nlsdata.obj
 0002:0002d278       ??_C@_08EDHMEBNP@December@ 000000014008e278     libucrt:nlsdata.obj
 0002:0002d284       ??_C@_02DEDBPAFC@AM@       000000014008e284     libucrt:nlsdata.obj
 0002:0002d288       ??_C@_02CJNFDJBF@PM@       000000014008e288     libucrt:nlsdata.obj
 0002:0002d290       ??_C@_08BPBNCDIB@MM?1dd?1yy@ 000000014008e290     libucrt:nlsdata.obj
 0002:0002d2a0       ??_C@_0BE@CKGJFCPC@dddd?0?5MMMM?5dd?0?5yyyy@ 000000014008e2a0     libucrt:nlsdata.obj
 0002:0002d2b8       ??_C@_08JCCMCCIL@HH?3mm?3ss@ 000000014008e2b8     libucrt:nlsdata.obj
 0002:0002d2c8       ??_C@_17MBGCMIPB@?$AAS?$AAu?$AAn@ 000000014008e2c8     libucrt:nlsdata.obj
 0002:0002d2d0       ??_C@_17KBOMKBF@?$AAM?$AAo?$AAn@ 000000014008e2d0     libucrt:nlsdata.obj
 0002:0002d2d8       ??_C@_17BMKGEGOJ@?$AAT?$AAu?$AAe@ 000000014008e2d8     libucrt:nlsdata.obj
 0002:0002d2e0       ??_C@_17CJEDCEPE@?$AAW?$AAe?$AAd@ 000000014008e2e0     libucrt:nlsdata.obj
 0002:0002d2e8       ??_C@_17PDPHAADD@?$AAT?$AAh?$AAu@ 000000014008e2e8     libucrt:nlsdata.obj
 0002:0002d2f0       ??_C@_17HFOLPPLP@?$AAF?$AAr?$AAi@ 000000014008e2f0     libucrt:nlsdata.obj
 0002:0002d2f8       ??_C@_17GGIBDPIH@?$AAS?$AAa?$AAt@ 000000014008e2f8     libucrt:nlsdata.obj
 0002:0002d300       ??_C@_1O@IHNHDHPB@?$AAS?$AAu?$AAn?$AAd?$AAa?$AAy@ 000000014008e300     libucrt:nlsdata.obj
 0002:0002d310       ??_C@_1O@MMNBFLIA@?$AAM?$AAo?$AAn?$AAd?$AAa?$AAy@ 000000014008e310     libucrt:nlsdata.obj
 0002:0002d320       ??_C@_1BA@ENFBFFEK@?$AAT?$AAu?$AAe?$AAs?$AAd?$AAa?$AAy@ 000000014008e320     libucrt:nlsdata.obj
 0002:0002d330       ??_C@_1BE@EBOGMDOH@?$AAW?$AAe?$AAd?$AAn?$AAe?$AAs?$AAd?$AAa?$AAy@ 000000014008e330     libucrt:nlsdata.obj
 0002:0002d348       ??_C@_1BC@HHMNLIHE@?$AAT?$AAh?$AAu?$AAr?$AAs?$AAd?$AAa?$AAy@ 000000014008e348     libucrt:nlsdata.obj
 0002:0002d360       ??_C@_1O@PDICJHAG@?$AAF?$AAr?$AAi?$AAd?$AAa?$AAy@ 000000014008e360     libucrt:nlsdata.obj
 0002:0002d370       ??_C@_1BC@ENMNNPAJ@?$AAS?$AAa?$AAt?$AAu?$AAr?$AAd?$AAa?$AAy@ 000000014008e370     libucrt:nlsdata.obj
 0002:0002d388       ??_C@_17DKNBKCHM@?$AAJ?$AAa?$AAn@ 000000014008e388     libucrt:nlsdata.obj
 0002:0002d390       ??_C@_17LMDJEKJN@?$AAF?$AAe?$AAb@ 000000014008e390     libucrt:nlsdata.obj
 0002:0002d398       ??_C@_17CKNLEDEC@?$AAM?$AAa?$AAr@ 000000014008e398     libucrt:nlsdata.obj
 0002:0002d3a0       ??_C@_17LFPOIHDD@?$AAA?$AAp?$AAr@ 000000014008e3a0     libucrt:nlsdata.obj
 0002:0002d3a8       ??_C@_17PNNKMEED@?$AAM?$AAa?$AAy@ 000000014008e3a8     libucrt:nlsdata.obj
 0002:0002d3b0       ??_C@_17KCJGOCPB@?$AAJ?$AAu?$AAn@ 000000014008e3b0     libucrt:nlsdata.obj
 0002:0002d3b8       ??_C@_17IJPCKHK@?$AAJ?$AAu?$AAl@ 000000014008e3b8     libucrt:nlsdata.obj
 0002:0002d3c0       ??_C@_17ICPELBCN@?$AAA?$AAu?$AAg@ 000000014008e3c0     libucrt:nlsdata.obj
 0002:0002d3c8       ??_C@_17HCHCOKMG@?$AAS?$AAe?$AAp@ 000000014008e3c8     libucrt:nlsdata.obj
 0002:0002d3d0       ??_C@_17FNLKOI@?$AAO?$AAc?$AAt@ 000000014008e3d0     libucrt:nlsdata.obj
 0002:0002d3d8       ??_C@_17BBDMLCIG@?$AAN?$AAo?$AAv@ 000000014008e3d8     libucrt:nlsdata.obj
 0002:0002d3e0       ??_C@_17EGKACKIF@?$AAD?$AAe?$AAc@ 000000014008e3e0     libucrt:nlsdata.obj
 0002:0002d3e8       ??_C@_1BA@EFMEIEBA@?$AAJ?$AAa?$AAn?$AAu?$AAa?$AAr?$AAy@ 000000014008e3e8     libucrt:nlsdata.obj
 0002:0002d3f8       ??_C@_1BC@JGDDFFAM@?$AAF?$AAe?$AAb?$AAr?$AAu?$AAa?$AAr?$AAy@ 000000014008e3f8     libucrt:nlsdata.obj
 0002:0002d410       ??_C@_1M@IKEENEDF@?$AAM?$AAa?$AAr?$AAc?$AAh@ 000000014008e410     libucrt:nlsdata.obj
 0002:0002d420       ??_C@_1M@GJNLMHFD@?$AAA?$AAp?$AAr?$AAi?$AAl@ 000000014008e420     libucrt:nlsdata.obj
 0002:0002d430       ??_C@_19EPFLPGAP@?$AAJ?$AAu?$AAn?$AAe@ 000000014008e430     libucrt:nlsdata.obj
 0002:0002d440       ??_C@_19BIFMLPCD@?$AAJ?$AAu?$AAl?$AAy@ 000000014008e440     libucrt:nlsdata.obj
 0002:0002d450       ??_C@_1O@PAHLKOAC@?$AAA?$AAu?$AAg?$AAu?$AAs?$AAt@ 000000014008e450     libucrt:nlsdata.obj
 0002:0002d460       ??_C@_1BE@DKAAMBJL@?$AAS?$AAe?$AAp?$AAt?$AAe?$AAm?$AAb?$AAe?$AAr@ 000000014008e460     libucrt:nlsdata.obj
 0002:0002d478       ??_C@_1BA@EPANDLNG@?$AAO?$AAc?$AAt?$AAo?$AAb?$AAe?$AAr@ 000000014008e478     libucrt:nlsdata.obj
 0002:0002d488       ??_C@_1BC@BGLIFPF@?$AAN?$AAo?$AAv?$AAe?$AAm?$AAb?$AAe?$AAr@ 000000014008e488     libucrt:nlsdata.obj
 0002:0002d4a0       ??_C@_1BC@FEMKIFH@?$AAD?$AAe?$AAc?$AAe?$AAm?$AAb?$AAe?$AAr@ 000000014008e4a0     libucrt:nlsdata.obj
 0002:0002d4b4       ??_C@_15ODEHAHHF@?$AAA?$AAM@ 000000014008e4b4     libucrt:nlsdata.obj
 0002:0002d4bc       ??_C@_15CLMNNGEL@?$AAP?$AAM@ 000000014008e4bc     libucrt:nlsdata.obj
 0002:0002d4c8       ??_C@_1BC@IEBCMHCM@?$AAM?$AAM?$AA?1?$AAd?$AAd?$AA?1?$AAy?$AAy@ 000000014008e4c8     libucrt:nlsdata.obj
 0002:0002d4e0       ??_C@_1CI@KNAKOEBC@?$AAd?$AAd?$AAd?$AAd?$AA?0?$AA?5?$AAM?$AAM?$AAM?$AAM?$AA?5?$AAd?$AAd?$AA?0?$AA?5@ 000000014008e4e0     libucrt:nlsdata.obj
 0002:0002d508       ??_C@_1BC@GDGBMEMK@?$AAH?$AAH?$AA?3?$AAm?$AAm?$AA?3?$AAs?$AAs@ 000000014008e508     libucrt:nlsdata.obj
 0002:0002d520       ??_C@_1M@BMHNFIME@?$AAe?$AAn?$AA?9?$AAU?$AAS@ 000000014008e520     libucrt:nlsdata.obj
 0002:0002d5e0       ??_C@_1EA@JGEFHKEI@?$AAa?$AAp?$AAi?$AA?9?$AAm?$AAs?$AA?9?$AAw?$AAi?$AAn?$AA?9?$AAc?$AAo?$AAr?$AAe@ 000000014008e5e0     libucrt:winapi_thunks.obj
 0002:0002d620       ??_C@_1DI@KMEPCBPN@?$AAa?$AAp?$AAi?$AA?9?$AAm?$AAs?$AA?9?$AAw?$AAi?$AAn?$AA?9?$AAc?$AAo?$AAr?$AAe@ 000000014008e620     libucrt:winapi_thunks.obj
 0002:0002d658       ??_C@_1DI@IJCEHOCB@?$AAa?$AAp?$AAi?$AA?9?$AAm?$AAs?$AA?9?$AAw?$AAi?$AAn?$AA?9?$AAc?$AAo?$AAr?$AAe@ 000000014008e658     libucrt:winapi_thunks.obj
 0002:0002d690       ??_C@_1EI@MPIAOHOC@?$AAa?$AAp?$AAi?$AA?9?$AAm?$AAs?$AA?9?$AAw?$AAi?$AAn?$AA?9?$AAc?$AAo?$AAr?$AAe@ 000000014008e690     libucrt:winapi_thunks.obj
 0002:0002d6e0       ??_C@_1FK@FPHCKFIE@?$AAa?$AAp?$AAi?$AA?9?$AAm?$AAs?$AA?9?$AAw?$AAi?$AAn?$AA?9?$AAc?$AAo?$AAr?$AAe@ 000000014008e6e0     libucrt:winapi_thunks.obj
 0002:0002d740       ??_C@_1EM@DILCGIIO@?$AAa?$AAp?$AAi?$AA?9?$AAm?$AAs?$AA?9?$AAw?$AAi?$AAn?$AA?9?$AAc?$AAo?$AAr?$AAe@ 000000014008e740     libucrt:winapi_thunks.obj
 0002:0002d790       ??_C@_1DM@LNCGDDPN@?$AAa?$AAp?$AAi?$AA?9?$AAm?$AAs?$AA?9?$AAw?$AAi?$AAn?$AA?9?$AAc?$AAo?$AAr?$AAe@ 000000014008e790     libucrt:winapi_thunks.obj
 0002:0002d7d0       ??_C@_1DO@FPAPJEMD@?$AAa?$AAp?$AAi?$AA?9?$AAm?$AAs?$AA?9?$AAw?$AAi?$AAn?$AA?9?$AAc?$AAo?$AAr?$AAe@ 000000014008e7d0     libucrt:winapi_thunks.obj
 0002:0002d810       ??_C@_1DK@NDHNAHIO@?$AAa?$AAp?$AAi?$AA?9?$AAm?$AAs?$AA?9?$AAw?$AAi?$AAn?$AA?9?$AAc?$AAo?$AAr?$AAe@ 000000014008e810     libucrt:winapi_thunks.obj
 0002:0002d850       ??_C@_1DM@KGHDGBCM@?$AAa?$AAp?$AAi?$AA?9?$AAm?$AAs?$AA?9?$AAw?$AAi?$AAn?$AA?9?$AAc?$AAo?$AAr?$AAe@ 000000014008e850     libucrt:winapi_thunks.obj
 0002:0002d890       ??_C@_1EO@IJIOEFOH@?$AAa?$AAp?$AAi?$AA?9?$AAm?$AAs?$AA?9?$AAw?$AAi?$AAn?$AA?9?$AAr?$AAt?$AAc?$AAo@ 000000014008e890     libucrt:winapi_thunks.obj
 0002:0002d8e0       ??_C@_1FG@HHGEKANL@?$AAa?$AAp?$AAi?$AA?9?$AAm?$AAs?$AA?9?$AAw?$AAi?$AAn?$AA?9?$AAs?$AAe?$AAc?$AAu@ 000000014008e8e0     libucrt:winapi_thunks.obj
 0002:0002d940       ??_C@_1EG@DBIOJECG@?$AAe?$AAx?$AAt?$AA?9?$AAm?$AAs?$AA?9?$AAw?$AAi?$AAn?$AA?9?$AAn?$AAt?$AAu?$AAs@ 000000014008e940     libucrt:winapi_thunks.obj
 0002:0002d990       ??_C@_1EO@FIHMJCLF@?$AAe?$AAx?$AAt?$AA?9?$AAm?$AAs?$AA?9?$AAw?$AAi?$AAn?$AA?9?$AAn?$AAt?$AAu?$AAs@ 000000014008e990     libucrt:winapi_thunks.obj
 0002:0002d9e0       ??_C@_1BC@DNHGCMLG@?$AAa?$AAd?$AAv?$AAa?$AAp?$AAi?$AA3?$AA2@ 000000014008e9e0     libucrt:winapi_thunks.obj
 0002:0002d9f8       ??_C@_1BG@CJPGBMEF@?$AAk?$AAe?$AAr?$AAn?$AAe?$AAl?$AAb?$AAa?$AAs?$AAe@ 000000014008e9f8     libucrt:winapi_thunks.obj
 0002:0002da10       ??_C@_1M@OAIMIKLP@?$AAn?$AAt?$AAd?$AAl?$AAl@ 000000014008ea10     libucrt:winapi_thunks.obj
 0002:0002da20       ??_C@_1EG@DPGNFKGC@?$AAa?$AAp?$AAi?$AA?9?$AAm?$AAs?$AA?9?$AAw?$AAi?$AAn?$AA?9?$AAa?$AAp?$AAp?$AAm@ 000000014008ea20     libucrt:winapi_thunks.obj
 0002:0002da68       ??_C@_1O@BCCLBEOE@?$AAu?$AAs?$AAe?$AAr?$AA3?$AA2@ 000000014008ea68     libucrt:winapi_thunks.obj
 0002:0002da78       ??_C@_1BA@IAIFMGEF@?$AAe?$AAx?$AAt?$AA?9?$AAm?$AAs?$AA?9@ 000000014008ea78     libucrt:winapi_thunks.obj
 0002:0002da90       ??_C@_0BA@FHFNEAED@AreFileApisANSI@ 000000014008ea90     libucrt:winapi_thunks.obj
 0002:0002daa8       ??_C@_0BA@IHGNDAEB@CompareStringEx@ 000000014008eaa8     libucrt:winapi_thunks.obj
 0002:0002dac0       ??_C@_0BE@LJANKFHF@EnumSystemLocalesEx@ 000000014008eac0     libucrt:winapi_thunks.obj
 0002:0002dae0       ??_C@_0BA@EPCJIIPD@GetDateFormatEx@ 000000014008eae0     libucrt:winapi_thunks.obj
 0002:0002daf8       ??_C@_0BA@ONOKGCMP@GetLocaleInfoEx@ 000000014008eaf8     libucrt:winapi_thunks.obj
 0002:0002db10       ??_C@_0BA@CIJJKCJJ@GetTimeFormatEx@ 000000014008eb10     libucrt:winapi_thunks.obj
 0002:0002db28       ??_C@_0BJ@PBCCBIPI@GetUserDefaultLocaleName@ 000000014008eb28     libucrt:winapi_thunks.obj
 0002:0002db58       ??_C@_0BC@CELBKLLA@IsValidLocaleName@ 000000014008eb58     libucrt:winapi_thunks.obj
 0002:0002db78       ??_C@_0O@KKBNKAPF@LCMapStringEx@ 000000014008eb78     libucrt:winapi_thunks.obj
 0002:0002db90       ??_C@_0BB@CDHDDLLP@LCIDToLocaleName@ 000000014008eb90     libucrt:winapi_thunks.obj
 0002:0002dbb0       ??_C@_0BB@HBDEELFH@LocaleNameToLCID@ 000000014008ebb0     libucrt:winapi_thunks.obj
 0002:0002dbc8       ??_C@_0CF@OJOFEIGO@AppPolicyGetProcessTerminationM@ 000000014008ebc8     libucrt:winapi_thunks.obj
 0002:0002dbf8       ??_C@_0BC@JEAENNKH@SystemFunction036@ 000000014008ebf8     libucrt:winapi_thunks.obj
 0002:0002dc90       ??_C@_03OEIAHPBN@INF@      000000014008ec90     libucrt:cvt.obj
 0002:0002dc94       ??_C@_03OJHLLCGB@inf@      000000014008ec94     libucrt:cvt.obj
 0002:0002dc98       ??_C@_03LKNCIKJB@NAN@      000000014008ec98     libucrt:cvt.obj
 0002:0002dc9c       ??_C@_03LHCJEHON@nan@      000000014008ec9c     libucrt:cvt.obj
 0002:0002dca0       ??_C@_09OFJJIMPC@NAN?$CISNAN?$CJ@ 000000014008eca0     libucrt:cvt.obj
 0002:0002dcb0       ??_C@_09IPFBKMDL@nan?$CIsnan?$CJ@ 000000014008ecb0     libucrt:cvt.obj
 0002:0002dcc0       ??_C@_08IKHNHAJ@NAN?$CIIND?$CJ@ 000000014008ecc0     libucrt:cvt.obj
 0002:0002dcd0       ??_C@_08OFCDMILK@nan?$CIind?$CJ@ 000000014008ecd0     libucrt:cvt.obj
 0002:0002dcdc       ??_C@_05KLBDPFGC@e?$CL000@ 000000014008ecdc     libucrt:cvt.obj
 0002:0002dd28       ??_C@_15HNJCPLHL@?$AAT?$AAZ@ 000000014008ed28     libucrt:tzset.obj
 0002:0002dd50       ??_C@_1M@HPNHIDJI@?$AAj?$AAa?$AA?9?$AAJ?$AAP@ 000000014008ed50     libucrt:mbctype.obj
 0002:0002dd60       ??_C@_1M@BIBDDEMK@?$AAz?$AAh?$AA?9?$AAC?$AAN@ 000000014008ed60     libucrt:mbctype.obj
 0002:0002dd70       ??_C@_1M@JLOOOEGK@?$AAk?$AAo?$AA?9?$AAK?$AAR@ 000000014008ed70     libucrt:mbctype.obj
 0002:0002dd80       ??_C@_1M@CLNBBOPM@?$AAz?$AAh?$AA?9?$AAT?$AAW@ 000000014008ed80     libucrt:mbctype.obj
 0002:0002dd90       __acrt_rg_language         000000014008ed90     libucrt:get_qualified_locale.obj
 0002:0002e1a0       __acrt_rg_language_count   000000014008f1a0     libucrt:get_qualified_locale.obj
 0002:0002e1b0       __acrt_rg_country          000000014008f1b0     libucrt:get_qualified_locale.obj
 0002:0002e320       __acrt_rg_country_count    000000014008f320     libucrt:get_qualified_locale.obj
 0002:0002e328       ??_C@_1BC@LLOKLNP@?$AAa?$AAm?$AAe?$AAr?$AAi?$AAc?$AAa?$AAn@ 000000014008f328     libucrt:get_qualified_locale.obj
 0002:0002e340       ??_C@_1CC@HEIGCDGG@?$AAa?$AAm?$AAe?$AAr?$AAi?$AAc?$AAa?$AAn?$AA?5?$AAe?$AAn?$AAg?$AAl?$AAi?$AAs@ 000000014008f340     libucrt:get_qualified_locale.obj
 0002:0002e368       ??_C@_1CC@IHCNOMIN@?$AAa?$AAm?$AAe?$AAr?$AAi?$AAc?$AAa?$AAn?$AA?9?$AAe?$AAn?$AAg?$AAl?$AAi?$AAs@ 000000014008f368     libucrt:get_qualified_locale.obj
 0002:0002e390       ??_C@_1BG@GKAGPCGG@?$AAa?$AAu?$AAs?$AAt?$AAr?$AAa?$AAl?$AAi?$AAa?$AAn@ 000000014008f390     libucrt:get_qualified_locale.obj
 0002:0002e3a8       ??_C@_1BA@GMENCENF@?$AAb?$AAe?$AAl?$AAg?$AAi?$AAa?$AAn@ 000000014008f3a8     libucrt:get_qualified_locale.obj
 0002:0002e3b8       ??_C@_1BC@PJMIIAAN@?$AAc?$AAa?$AAn?$AAa?$AAd?$AAi?$AAa?$AAn@ 000000014008f3b8     libucrt:get_qualified_locale.obj
 0002:0002e3d0       ??_C@_17NOIMNFBF@?$AAc?$AAh?$AAh@ 000000014008f3d0     libucrt:get_qualified_locale.obj
 0002:0002e3d8       ??_C@_17GGDALCHA@?$AAc?$AAh?$AAi@ 000000014008f3d8     libucrt:get_qualified_locale.obj
 0002:0002e3e0       ??_C@_1BA@NPNJKIBL@?$AAc?$AAh?$AAi?$AAn?$AAe?$AAs?$AAe@ 000000014008f3e0     libucrt:get_qualified_locale.obj
 0002:0002e3f0       ??_C@_1CC@DINBAMMJ@?$AAc?$AAh?$AAi?$AAn?$AAe?$AAs?$AAe?$AA?9?$AAh?$AAo?$AAn?$AAg?$AAk?$AAo?$AAn@ 000000014008f3f0     libucrt:get_qualified_locale.obj
 0002:0002e418       ??_C@_1CG@IOBJPACO@?$AAc?$AAh?$AAi?$AAn?$AAe?$AAs?$AAe?$AA?9?$AAs?$AAi?$AAm?$AAp?$AAl?$AAi?$AAf@ 000000014008f418     libucrt:get_qualified_locale.obj
 0002:0002e440       ??_C@_1CE@GAJNDCKG@?$AAc?$AAh?$AAi?$AAn?$AAe?$AAs?$AAe?$AA?9?$AAs?$AAi?$AAn?$AAg?$AAa?$AAp?$AAo@ 000000014008f440     libucrt:get_qualified_locale.obj
 0002:0002e468       ??_C@_1CI@PAJPIOOD@?$AAc?$AAh?$AAi?$AAn?$AAe?$AAs?$AAe?$AA?9?$AAt?$AAr?$AAa?$AAd?$AAi?$AAt?$AAi@ 000000014008f468     libucrt:get_qualified_locale.obj
 0002:0002e490       ??_C@_1BM@NILJBMMD@?$AAd?$AAu?$AAt?$AAc?$AAh?$AA?9?$AAb?$AAe?$AAl?$AAg?$AAi?$AAa?$AAn@ 000000014008f490     libucrt:get_qualified_locale.obj
 0002:0002e4b0       ??_C@_1CC@OOJPJNEJ@?$AAe?$AAn?$AAg?$AAl?$AAi?$AAs?$AAh?$AA?9?$AAa?$AAm?$AAe?$AAr?$AAi?$AAc?$AAa@ 000000014008f4b0     libucrt:get_qualified_locale.obj
 0002:0002e4d8       ??_C@_1BI@IOLFEEM@?$AAe?$AAn?$AAg?$AAl?$AAi?$AAs?$AAh?$AA?9?$AAa?$AAu?$AAs@ 000000014008f4d8     libucrt:get_qualified_locale.obj
 0002:0002e4f0       ??_C@_1BO@HFFNLENJ@?$AAe?$AAn?$AAg?$AAl?$AAi?$AAs?$AAh?$AA?9?$AAb?$AAe?$AAl?$AAi?$AAz?$AAe@ 000000014008f4f0     libucrt:get_qualified_locale.obj
 0002:0002e510       ??_C@_1BI@HAPKJMPO@?$AAe?$AAn?$AAg?$AAl?$AAi?$AAs?$AAh?$AA?9?$AAc?$AAa?$AAn@ 000000014008f510     libucrt:get_qualified_locale.obj
 0002:0002e528       ??_C@_1CE@HLNDMIOJ@?$AAe?$AAn?$AAg?$AAl?$AAi?$AAs?$AAh?$AA?9?$AAc?$AAa?$AAr?$AAi?$AAb?$AAb?$AAe@ 000000014008f528     libucrt:get_qualified_locale.obj
 0002:0002e550       ??_C@_1BI@LDHJHHAC@?$AAe?$AAn?$AAg?$AAl?$AAi?$AAs?$AAh?$AA?9?$AAi?$AAr?$AAe@ 000000014008f550     libucrt:get_qualified_locale.obj
 0002:0002e568       ??_C@_1CA@NJMMCFOC@?$AAe?$AAn?$AAg?$AAl?$AAi?$AAs?$AAh?$AA?9?$AAj?$AAa?$AAm?$AAa?$AAi?$AAc?$AAa@ 000000014008f568     libucrt:get_qualified_locale.obj
 0002:0002e588       ??_C@_1BG@BHJEBBGG@?$AAe?$AAn?$AAg?$AAl?$AAi?$AAs?$AAh?$AA?9?$AAn?$AAz@ 000000014008f588     libucrt:get_qualified_locale.obj
 0002:0002e5a0       ??_C@_1CK@FGOEJJCO@?$AAe?$AAn?$AAg?$AAl?$AAi?$AAs?$AAh?$AA?9?$AAs?$AAo?$AAu?$AAt?$AAh?$AA?5?$AAa@ 000000014008f5a0     libucrt:get_qualified_locale.obj
 0002:0002e5d0       ??_C@_1DE@PDBJPCJ@?$AAe?$AAn?$AAg?$AAl?$AAi?$AAs?$AAh?$AA?9?$AAt?$AAr?$AAi?$AAn?$AAi?$AAd?$AAa@ 000000014008f5d0     libucrt:get_qualified_locale.obj
 0002:0002e608       ??_C@_1BG@JGCANDME@?$AAe?$AAn?$AAg?$AAl?$AAi?$AAs?$AAh?$AA?9?$AAu?$AAk@ 000000014008f608     libucrt:get_qualified_locale.obj
 0002:0002e620       ??_C@_1BG@DINKMLE@?$AAe?$AAn?$AAg?$AAl?$AAi?$AAs?$AAh?$AA?9?$AAu?$AAs@ 000000014008f620     libucrt:get_qualified_locale.obj
 0002:0002e638       ??_C@_1BI@NMFDBHJE@?$AAe?$AAn?$AAg?$AAl?$AAi?$AAs?$AAh?$AA?9?$AAu?$AAs?$AAa@ 000000014008f638     libucrt:get_qualified_locale.obj
 0002:0002e650       ??_C@_1BO@OIHKJKII@?$AAf?$AAr?$AAe?$AAn?$AAc?$AAh?$AA?9?$AAb?$AAe?$AAl?$AAg?$AAi?$AAa?$AAn@ 000000014008f650     libucrt:get_qualified_locale.obj
 0002:0002e670       ??_C@_1CA@NKAELJKI@?$AAf?$AAr?$AAe?$AAn?$AAc?$AAh?$AA?9?$AAc?$AAa?$AAn?$AAa?$AAd?$AAi?$AAa?$AAn@ 000000014008f670     libucrt:get_qualified_locale.obj
 0002:0002e690       ??_C@_1CE@MGKCNLGN@?$AAf?$AAr?$AAe?$AAn?$AAc?$AAh?$AA?9?$AAl?$AAu?$AAx?$AAe?$AAm?$AAb?$AAo?$AAu@ 000000014008f690     libucrt:get_qualified_locale.obj
 0002:0002e6b8       ??_C@_1BK@CEGEAILM@?$AAf?$AAr?$AAe?$AAn?$AAc?$AAh?$AA?9?$AAs?$AAw?$AAi?$AAs?$AAs@ 000000014008f6b8     libucrt:get_qualified_locale.obj
 0002:0002e6d8       ??_C@_1CA@PAFKEOCC@?$AAg?$AAe?$AAr?$AAm?$AAa?$AAn?$AA?9?$AAa?$AAu?$AAs?$AAt?$AAr?$AAi?$AAa?$AAn@ 000000014008f6d8     libucrt:get_qualified_locale.obj
 0002:0002e6f8       ??_C@_1CI@HCFHGOFD@?$AAg?$AAe?$AAr?$AAm?$AAa?$AAn?$AA?9?$AAl?$AAi?$AAc?$AAh?$AAt?$AAe?$AAn?$AAs@ 000000014008f6f8     libucrt:get_qualified_locale.obj
 0002:0002e720       ??_C@_1CE@FEDDNPDG@?$AAg?$AAe?$AAr?$AAm?$AAa?$AAn?$AA?9?$AAl?$AAu?$AAx?$AAe?$AAm?$AAb?$AAo?$AAu@ 000000014008f720     libucrt:get_qualified_locale.obj
 0002:0002e748       ??_C@_1BK@LIMINNMN@?$AAg?$AAe?$AAr?$AAm?$AAa?$AAn?$AA?9?$AAs?$AAw?$AAi?$AAs?$AAs@ 000000014008f748     libucrt:get_qualified_locale.obj
 0002:0002e768       ??_C@_1BM@LGMDBEPD@?$AAi?$AAr?$AAi?$AAs?$AAh?$AA?9?$AAe?$AAn?$AAg?$AAl?$AAi?$AAs?$AAh@ 000000014008f768     libucrt:get_qualified_locale.obj
 0002:0002e788       ??_C@_1BM@NNCFBAEE@?$AAi?$AAt?$AAa?$AAl?$AAi?$AAa?$AAn?$AA?9?$AAs?$AAw?$AAi?$AAs?$AAs@ 000000014008f788     libucrt:get_qualified_locale.obj
 0002:0002e7a8       ??_C@_1BE@FEDJNPIB@?$AAn?$AAo?$AAr?$AAw?$AAe?$AAg?$AAi?$AAa?$AAn@ 000000014008f7a8     libucrt:get_qualified_locale.obj
 0002:0002e7c0       ??_C@_1CC@CILKDEIE@?$AAn?$AAo?$AAr?$AAw?$AAe?$AAg?$AAi?$AAa?$AAn?$AA?9?$AAb?$AAo?$AAk?$AAm?$AAa@ 000000014008f7c0     libucrt:get_qualified_locale.obj
 0002:0002e7e8       ??_C@_1CE@DHMMHEPL@?$AAn?$AAo?$AAr?$AAw?$AAe?$AAg?$AAi?$AAa?$AAn?$AA?9?$AAn?$AAy?$AAn?$AAo?$AAr@ 000000014008f7e8     libucrt:get_qualified_locale.obj
 0002:0002e810       ??_C@_1CK@OPNMHECD@?$AAp?$AAo?$AAr?$AAt?$AAu?$AAg?$AAu?$AAe?$AAs?$AAe?$AA?9?$AAb?$AAr?$AAa?$AAz@ 000000014008f810     libucrt:get_qualified_locale.obj
 0002:0002e840       ??_C@_1CE@KEEHCDB@?$AAs?$AAp?$AAa?$AAn?$AAi?$AAs?$AAh?$AA?9?$AAa?$AAr?$AAg?$AAe?$AAn?$AAt?$AAi@ 000000014008f840     libucrt:get_qualified_locale.obj
 0002:0002e868       ??_C@_1CA@GIAOLHJD@?$AAs?$AAp?$AAa?$AAn?$AAi?$AAs?$AAh?$AA?9?$AAb?$AAo?$AAl?$AAi?$AAv?$AAi?$AAa@ 000000014008f868     libucrt:get_qualified_locale.obj
 0002:0002e888       ??_C@_1BM@OJNDFNPD@?$AAs?$AAp?$AAa?$AAn?$AAi?$AAs?$AAh?$AA?9?$AAc?$AAh?$AAi?$AAl?$AAe@ 000000014008f888     libucrt:get_qualified_locale.obj
 0002:0002e8a8       ??_C@_1CC@OCOLPALL@?$AAs?$AAp?$AAa?$AAn?$AAi?$AAs?$AAh?$AA?9?$AAc?$AAo?$AAl?$AAo?$AAm?$AAb?$AAi@ 000000014008f8a8     libucrt:get_qualified_locale.obj
 0002:0002e8d0       ??_C@_1CG@BPOFMKBB@?$AAs?$AAp?$AAa?$AAn?$AAi?$AAs?$AAh?$AA?9?$AAc?$AAo?$AAs?$AAt?$AAa?$AA?5?$AAr@ 000000014008f8d0     libucrt:get_qualified_locale.obj
 0002:0002e8f8       ??_C@_1DG@IGOBAPBB@?$AAs?$AAp?$AAa?$AAn?$AAi?$AAs?$AAh?$AA?9?$AAd?$AAo?$AAm?$AAi?$AAn?$AAi?$AAc@ 000000014008f8f8     libucrt:get_qualified_locale.obj
 0002:0002e930       ??_C@_1CA@JHAPGEGI@?$AAs?$AAp?$AAa?$AAn?$AAi?$AAs?$AAh?$AA?9?$AAe?$AAc?$AAu?$AAa?$AAd?$AAo?$AAr@ 000000014008f930     libucrt:get_qualified_locale.obj
 0002:0002e950       ??_C@_1CI@LAPALJPP@?$AAs?$AAp?$AAa?$AAn?$AAi?$AAs?$AAh?$AA?9?$AAe?$AAl?$AA?5?$AAs?$AAa?$AAl?$AAv@ 000000014008f950     libucrt:get_qualified_locale.obj
 0002:0002e978       ??_C@_1CE@PDGBOFOM@?$AAs?$AAp?$AAa?$AAn?$AAi?$AAs?$AAh?$AA?9?$AAg?$AAu?$AAa?$AAt?$AAe?$AAm?$AAa@ 000000014008f978     libucrt:get_qualified_locale.obj
 0002:0002e9a0       ??_C@_1CC@NBEBAODI@?$AAs?$AAp?$AAa?$AAn?$AAi?$AAs?$AAh?$AA?9?$AAh?$AAo?$AAn?$AAd?$AAu?$AAr?$AAa@ 000000014008f9a0     libucrt:get_qualified_locale.obj
 0002:0002e9c8       ??_C@_1CA@LLKGHBMF@?$AAs?$AAp?$AAa?$AAn?$AAi?$AAs?$AAh?$AA?9?$AAm?$AAe?$AAx?$AAi?$AAc?$AAa?$AAn@ 000000014008f9c8     libucrt:get_qualified_locale.obj
 0002:0002e9e8       ??_C@_1BO@LKNDOIGD@?$AAs?$AAp?$AAa?$AAn?$AAi?$AAs?$AAh?$AA?9?$AAm?$AAo?$AAd?$AAe?$AAr?$AAn@ 000000014008f9e8     libucrt:get_qualified_locale.obj
 0002:0002ea08       ??_C@_1CE@NMDMOEEB@?$AAs?$AAp?$AAa?$AAn?$AAi?$AAs?$AAh?$AA?9?$AAn?$AAi?$AAc?$AAa?$AAr?$AAa?$AAg@ 000000014008fa08     libucrt:get_qualified_locale.obj
 0002:0002ea30       ??_C@_1BO@LLCBEJGB@?$AAs?$AAp?$AAa?$AAn?$AAi?$AAs?$AAh?$AA?9?$AAp?$AAa?$AAn?$AAa?$AAm?$AAa@ 000000014008fa30     libucrt:get_qualified_locale.obj
 0002:0002ea50       ??_C@_1CC@FKPGGIHO@?$AAs?$AAp?$AAa?$AAn?$AAi?$AAs?$AAh?$AA?9?$AAp?$AAa?$AAr?$AAa?$AAg?$AAu?$AAa@ 000000014008fa50     libucrt:get_qualified_locale.obj
 0002:0002ea78       ??_C@_1BK@CDEIHOOP@?$AAs?$AAp?$AAa?$AAn?$AAi?$AAs?$AAh?$AA?9?$AAp?$AAe?$AAr?$AAu@ 000000014008fa78     libucrt:get_qualified_locale.obj
 0002:0002ea98       ??_C@_1CI@GAHAKKGP@?$AAs?$AAp?$AAa?$AAn?$AAi?$AAs?$AAh?$AA?9?$AAp?$AAu?$AAe?$AAr?$AAt?$AAo?$AA?5@ 000000014008fa98     libucrt:get_qualified_locale.obj
 0002:0002eac0       ??_C@_1CA@NKJBCAGP@?$AAs?$AAp?$AAa?$AAn?$AAi?$AAs?$AAh?$AA?9?$AAu?$AAr?$AAu?$AAg?$AAu?$AAa?$AAy@ 000000014008fac0     libucrt:get_qualified_locale.obj
 0002:0002eae0       ??_C@_1CE@ODILCONM@?$AAs?$AAp?$AAa?$AAn?$AAi?$AAs?$AAh?$AA?9?$AAv?$AAe?$AAn?$AAe?$AAz?$AAu?$AAe@ 000000014008fae0     libucrt:get_qualified_locale.obj
 0002:0002eb08       ??_C@_1CA@OBNMCGFO@?$AAs?$AAw?$AAe?$AAd?$AAi?$AAs?$AAh?$AA?9?$AAf?$AAi?$AAn?$AAl?$AAa?$AAn?$AAd@ 000000014008fb08     libucrt:get_qualified_locale.obj
 0002:0002eb28       ??_C@_1M@PIPDDPPI@?$AAs?$AAw?$AAi?$AAs?$AAs@ 000000014008fb28     libucrt:get_qualified_locale.obj
 0002:0002eb34       ??_C@_15PJPFLCCM@?$AAu?$AAk@ 000000014008fb34     libucrt:get_qualified_locale.obj
 0002:0002eb3c       ??_C@_15GMFIMNFM@?$AAu?$AAs@ 000000014008fb3c     libucrt:get_qualified_locale.obj
 0002:0002eb48       ??_C@_17HAEBFAGL@?$AAu?$AAs?$AAa@ 000000014008fb48     libucrt:get_qualified_locale.obj
 0002:0002eb50       ??_C@_1BA@DPFJEPHB@?$AAa?$AAm?$AAe?$AAr?$AAi?$AAc?$AAa@ 000000014008fb50     libucrt:get_qualified_locale.obj
 0002:0002eb60       ??_C@_1BA@ELOGGFK@?$AAb?$AAr?$AAi?$AAt?$AAa?$AAi?$AAn@ 000000014008fb60     libucrt:get_qualified_locale.obj
 0002:0002eb70       ??_C@_1M@GHBGIGDA@?$AAc?$AAh?$AAi?$AAn?$AAa@ 000000014008fb70     libucrt:get_qualified_locale.obj
 0002:0002eb80       ??_C@_1M@NCHEJOPO@?$AAc?$AAz?$AAe?$AAc?$AAh@ 000000014008fb80     libucrt:get_qualified_locale.obj
 0002:0002eb90       ??_C@_1BA@BKPAPBLA@?$AAe?$AAn?$AAg?$AAl?$AAa?$AAn?$AAd@ 000000014008fb90     libucrt:get_qualified_locale.obj
 0002:0002eba0       ??_C@_1BM@HKBCKIPC@?$AAg?$AAr?$AAe?$AAa?$AAt?$AA?5?$AAb?$AAr?$AAi?$AAt?$AAa?$AAi?$AAn@ 000000014008fba0     libucrt:get_qualified_locale.obj
 0002:0002ebc0       ??_C@_1BA@PPCHPGJB@?$AAh?$AAo?$AAl?$AAl?$AAa?$AAn?$AAd@ 000000014008fbc0     libucrt:get_qualified_locale.obj
 0002:0002ebd0       ??_C@_1BE@JBMPEGDG@?$AAh?$AAo?$AAn?$AAg?$AA?9?$AAk?$AAo?$AAn?$AAg@ 000000014008fbd0     libucrt:get_qualified_locale.obj
 0002:0002ebe8       ??_C@_1BI@KOELBBPJ@?$AAn?$AAe?$AAw?$AA?9?$AAz?$AAe?$AAa?$AAl?$AAa?$AAn?$AAd@ 000000014008fbe8     libucrt:get_qualified_locale.obj
 0002:0002ec00       ??_C@_15HIEBHAIO@?$AAn?$AAz@ 000000014008fc00     libucrt:get_qualified_locale.obj
 0002:0002ec08       ??_C@_1BC@CHBCPFPI@?$AAp?$AAr?$AA?5?$AAc?$AAh?$AAi?$AAn?$AAa@ 000000014008fc08     libucrt:get_qualified_locale.obj
 0002:0002ec20       ??_C@_1BC@JAOIIFKD@?$AAp?$AAr?$AA?9?$AAc?$AAh?$AAi?$AAn?$AAa@ 000000014008fc20     libucrt:get_qualified_locale.obj
 0002:0002ec38       ??_C@_1BI@BEHPPHKC@?$AAp?$AAu?$AAe?$AAr?$AAt?$AAo?$AA?9?$AAr?$AAi?$AAc?$AAo@ 000000014008fc38     libucrt:get_qualified_locale.obj
 0002:0002ec50       ??_C@_1O@PAEOFKDI@?$AAs?$AAl?$AAo?$AAv?$AAa?$AAk@ 000000014008fc50     libucrt:get_qualified_locale.obj
 0002:0002ec60       ??_C@_1BK@FIHMCKAM@?$AAs?$AAo?$AAu?$AAt?$AAh?$AA?5?$AAa?$AAf?$AAr?$AAi?$AAc?$AAa@ 000000014008fc60     libucrt:get_qualified_locale.obj
 0002:0002ec80       ??_C@_1BI@NAEOODKB@?$AAs?$AAo?$AAu?$AAt?$AAh?$AA?5?$AAk?$AAo?$AAr?$AAe?$AAa@ 000000014008fc80     libucrt:get_qualified_locale.obj
 0002:0002ec98       ??_C@_1BK@FBDGGIFF@?$AAs?$AAo?$AAu?$AAt?$AAh?$AA?9?$AAa?$AAf?$AAr?$AAi?$AAc?$AAa@ 000000014008fc98     libucrt:get_qualified_locale.obj
 0002:0002ecb8       ??_C@_1BI@GHLEJDPK@?$AAs?$AAo?$AAu?$AAt?$AAh?$AA?9?$AAk?$AAo?$AAr?$AAe?$AAa@ 000000014008fcb8     libucrt:get_qualified_locale.obj
 0002:0002ecd0       ??_C@_1CE@PLHLOMJF@?$AAt?$AAr?$AAi?$AAn?$AAi?$AAd?$AAa?$AAd?$AA?5?$AA?$CG?$AA?5?$AAt?$AAo?$AAb?$AAa@ 000000014008fcd0     libucrt:get_qualified_locale.obj
 0002:0002ecf8       ??_C@_1BO@MODIMHHI@?$AAu?$AAn?$AAi?$AAt?$AAe?$AAd?$AA?9?$AAk?$AAi?$AAn?$AAg?$AAd?$AAo?$AAm@ 000000014008fcf8     libucrt:get_qualified_locale.obj
 0002:0002ed18       ??_C@_1BM@FFHJONBJ@?$AAu?$AAn?$AAi?$AAt?$AAe?$AAd?$AA?9?$AAs?$AAt?$AAa?$AAt?$AAe?$AAs@ 000000014008fd18     libucrt:get_qualified_locale.obj
 0002:0002ed38       ??_C@_19MPDNHKDG@?$AAu?$AAt?$AAf?$AA8@ 000000014008fd38     libucrt:get_qualified_locale.obj
 0002:0002ed48       ??_C@_17DNCLJFIF@?$AAA?$AAC?$AAP@ 000000014008fd48     libucrt:get_qualified_locale.obj
 0002:0002ed50       ??_C@_1M@FPEIIFAM@?$AAu?$AAt?$AAf?$AA?9?$AA8@ 000000014008fd50     libucrt:get_qualified_locale.obj
 0002:0002ed60       ??_C@_17CIKBIHLH@?$AAO?$AAC?$AAP@ 000000014008fd60     libucrt:get_qualified_locale.obj
 0002:0002ed68       __rglangidNotDefault       000000014008fd68     libucrt:getqloc_downlevel.obj
 0002:0002eda8       ?ccs@?1???$__acrt_stdio_parse_mode@D@@YA?AU__acrt_stdio_stream_mode@@QEBD@Z@4QBDB 000000014008fda8     libucrt:openfile.obj
 0002:0002edac       ?utf8_encoding@?1???$__acrt_stdio_parse_mode@D@@YA?AU__acrt_stdio_stream_mode@@QEBD@Z@4QBDB 000000014008fdac     libucrt:openfile.obj
 0002:0002edb8       ?utf16_encoding@?1???$__acrt_stdio_parse_mode@D@@YA?AU__acrt_stdio_stream_mode@@QEBD@Z@4QBDB 000000014008fdb8     libucrt:openfile.obj
 0002:0002edc0       ?unicode_encoding@?1???$__acrt_stdio_parse_mode@D@@YA?AU__acrt_stdio_stream_mode@@QEBD@Z@4QBDB 000000014008fdc0     libucrt:openfile.obj
 0002:0002edc8       ??_C@_05HGHHAHAP@log10@    000000014008fdc8     libucrt:fpexcept.obj
 0002:0002fc10       ??_C@_15EMKDOKLE@?$AAa?$AAr@ 0000000140090c10     libucrt:lcidtoname_downlevel.obj
 0002:0002fc18       ??_C@_15KNPADPLH@?$AAb?$AAg@ 0000000140090c18     libucrt:lcidtoname_downlevel.obj
 0002:0002fc20       ??_C@_15EDMHLDMO@?$AAc?$AAa@ 0000000140090c20     libucrt:lcidtoname_downlevel.obj
 0002:0002fc28       ??_C@_1O@BPEAJADD@?$AAz?$AAh?$AA?9?$AAC?$AAH?$AAS@ 0000000140090c28     libucrt:lcidtoname_downlevel.obj
 0002:0002fc38       ??_C@_15LJNHCMNK@?$AAc?$AAs@ 0000000140090c38     libucrt:lcidtoname_downlevel.obj
 0002:0002fc40       ??_C@_15FOMCIDHG@?$AAd?$AAa@ 0000000140090c40     libucrt:lcidtoname_downlevel.obj
 0002:0002fc48       ??_C@_15NBKABECB@?$AAd?$AAe@ 0000000140090c48     libucrt:lcidtoname_downlevel.obj
 0002:0002fc50       ??_C@_15GHPEIIAO@?$AAe?$AAl@ 0000000140090c50     libucrt:lcidtoname_downlevel.obj
 0002:0002fc58       ??_C@_15MNPNEAIF@?$AAe?$AAn@ 0000000140090c58     libucrt:lcidtoname_downlevel.obj
 0002:0002fc60       ??_C@_15GPIOMPMH@?$AAe?$AAs@ 0000000140090c60     libucrt:lcidtoname_downlevel.obj
 0002:0002fc68       ??_C@_15NGLOAKJC@?$AAf?$AAi@ 0000000140090c68     libucrt:lcidtoname_downlevel.obj
 0002:0002fc70       ??_C@_15FBKGNKAM@?$AAf?$AAr@ 0000000140090c70     libucrt:lcidtoname_downlevel.obj
 0002:0002fc78       ??_C@_15KGGCNEFK@?$AAh?$AAe@ 0000000140090c78     libucrt:lcidtoname_downlevel.obj
 0002:0002fc80       ??_C@_15PGHLIDMF@?$AAh?$AAu@ 0000000140090c80     libucrt:lcidtoname_downlevel.obj
 0002:0002fc88       ??_C@_15BIEMAPLM@?$AAi?$AAs@ 0000000140090c88     libucrt:lcidtoname_downlevel.obj
 0002:0002fc90       ??_C@_15IFJLDHAF@?$AAi?$AAt@ 0000000140090c90     libucrt:lcidtoname_downlevel.obj
 0002:0002fc98       ??_C@_15GEMIOCAG@?$AAj?$AAa@ 0000000140090c98     libucrt:lcidtoname_downlevel.obj
 0002:0002fca0       ??_C@_15EPELEGJA@?$AAk?$AAo@ 0000000140090ca0     libucrt:lcidtoname_downlevel.obj
 0002:0002fca8       ??_C@_15NDDHIMN@?$AAn?$AAl@ 0000000140090ca8     libucrt:lcidtoname_downlevel.obj
 0002:0002fcb0       ??_C@_15BPIGNHCD@?$AAn?$AAo@ 0000000140090cb0     libucrt:lcidtoname_downlevel.obj
 0002:0002fcb8       ??_C@_15DEOPBLCG@?$AAp?$AAl@ 0000000140090cb8     libucrt:lcidtoname_downlevel.obj
 0002:0002fcc0       ??_C@_15KBECGEFG@?$AAp?$AAt@ 0000000140090cc0     libucrt:lcidtoname_downlevel.obj
 0002:0002fcc8       ??_C@_15GLJCBFMD@?$AAr?$AAo@ 0000000140090cc8     libucrt:lcidtoname_downlevel.obj
 0002:0002fcd0       ??_C@_15FEDGKCDI@?$AAr?$AAu@ 0000000140090cd0     libucrt:lcidtoname_downlevel.obj
 0002:0002fcd8       ??_C@_15GLKMLLHM@?$AAh?$AAr@ 0000000140090cd8     libucrt:lcidtoname_downlevel.obj
 0002:0002fce0       ??_C@_15CPKMFBDB@?$AAs?$AAk@ 0000000140090ce0     libucrt:lcidtoname_downlevel.obj
 0002:0002fce8       ??_C@_15BAAIOGMK@?$AAs?$AAq@ 0000000140090ce8     libucrt:lcidtoname_downlevel.obj
 0002:0002fcf0       ??_C@_15INNPNOHD@?$AAs?$AAv@ 0000000140090cf0     libucrt:lcidtoname_downlevel.obj
 0002:0002fcf8       ??_C@_15CABMMOGH@?$AAt?$AAh@ 0000000140090cf8     libucrt:lcidtoname_downlevel.obj
 0002:0002fd00       ??_C@_15BPLIHJJM@?$AAt?$AAr@ 0000000140090d00     libucrt:lcidtoname_downlevel.obj
 0002:0002fd08       ??_C@_15NEOEKKDJ@?$AAu?$AAr@ 0000000140090d08     libucrt:lcidtoname_downlevel.obj
 0002:0002fd10       ??_C@_15NFICGAJK@?$AAi?$AAd@ 0000000140090d10     libucrt:lcidtoname_downlevel.obj
 0002:0002fd18       ??_C@_15HPJPHDM@?$AAb?$AAe@ 0000000140090d18     libucrt:lcidtoname_downlevel.obj
 0002:0002fd20       ??_C@_15LCHLGJII@?$AAs?$AAl@ 0000000140090d20     libucrt:lcidtoname_downlevel.obj
 0002:0002fd28       ??_C@_15PCFJPHHO@?$AAe?$AAt@ 0000000140090d28     libucrt:lcidtoname_downlevel.obj
 0002:0002fd30       ??_C@_15HPFPGODN@?$AAl?$AAv@ 0000000140090d30     libucrt:lcidtoname_downlevel.obj
 0002:0002fd38       ??_C@_15NFFGKGLG@?$AAl?$AAt@ 0000000140090d38     libucrt:lcidtoname_downlevel.obj
 0002:0002fd40       ??_C@_15BDAKCCHN@?$AAf?$AAa@ 0000000140090d40     libucrt:lcidtoname_downlevel.obj
 0002:0002fd48       ??_C@_15NFGIAIAJ@?$AAv?$AAi@ 0000000140090d48     libucrt:lcidtoname_downlevel.obj
 0002:0002fd50       ??_C@_15LMKNDMHN@?$AAh?$AAy@ 0000000140090d50     libucrt:lcidtoname_downlevel.obj
 0002:0002fd58       ??_C@_15IJBHMCFL@?$AAa?$AAz@ 0000000140090d58     libucrt:lcidtoname_downlevel.obj
 0002:0002fd60       ??_C@_15EKOFJABL@?$AAe?$AAu@ 0000000140090d60     libucrt:lcidtoname_downlevel.obj
 0002:0002fd68       ??_C@_15BGHADCNK@?$AAm?$AAk@ 0000000140090d68     libucrt:lcidtoname_downlevel.obj
 0002:0002fd70       ??_C@_15JDNICKHM@?$AAa?$AAf@ 0000000140090d70     libucrt:lcidtoname_downlevel.obj
 0002:0002fd78       ??_C@_15KPJEDBKD@?$AAk?$AAa@ 0000000140090d78     libucrt:lcidtoname_downlevel.obj
 0002:0002fd80       ??_C@_15PDNFFFEO@?$AAf?$AAo@ 0000000140090d80     libucrt:lcidtoname_downlevel.obj
 0002:0002fd88       ??_C@_15OMLEGLOC@?$AAh?$AAi@ 0000000140090d88     libucrt:lcidtoname_downlevel.obj
 0002:0002fd90       ??_C@_15IDNNENKK@?$AAm?$AAs@ 0000000140090d90     libucrt:lcidtoname_downlevel.obj
 0002:0002fd98       ??_C@_15MACJNBMH@?$AAk?$AAk@ 0000000140090d98     libucrt:lcidtoname_downlevel.obj
 0002:0002fda0       ??_C@_15DKDJEOND@?$AAk?$AAy@ 0000000140090da0     libucrt:lcidtoname_downlevel.obj
 0002:0002fda8       ??_C@_15DFGDLJBG@?$AAs?$AAw@ 0000000140090da8     libucrt:lcidtoname_downlevel.obj
 0002:0002fdb0       ??_C@_15BBFAICNG@?$AAu?$AAz@ 0000000140090db0     libucrt:lcidtoname_downlevel.obj
 0002:0002fdb8       ??_C@_15DKNDCGEA@?$AAt?$AAt@ 0000000140090db8     libucrt:lcidtoname_downlevel.obj
 0002:0002fdc0       ??_C@_15MGIFMDPL@?$AAp?$AAa@ 0000000140090dc0     libucrt:lcidtoname_downlevel.obj
 0002:0002fdc8       ??_C@_15HCNDBBA@?$AAg?$AAu@ 0000000140090dc8     libucrt:lcidtoname_downlevel.obj
 0002:0002fdd0       ??_C@_15FNBEIBON@?$AAt?$AAa@ 0000000140090dd0     libucrt:lcidtoname_downlevel.obj
 0002:0002fdd8       ??_C@_15NCHGBGLK@?$AAt?$AAe@ 0000000140090dd8     libucrt:lcidtoname_downlevel.obj
 0002:0002fde0       ??_C@_15PHPHCBPF@?$AAk?$AAn@ 0000000140090de0     libucrt:lcidtoname_downlevel.obj
 0002:0002fde8       ??_C@_15DLGBCKMP@?$AAm?$AAr@ 0000000140090de8     libucrt:lcidtoname_downlevel.obj
 0002:0002fdf0       ??_C@_15EABBLBFF@?$AAs?$AAa@ 0000000140090df0     libucrt:lcidtoname_downlevel.obj
 0002:0002fdf8       ??_C@_15CBKOMCOI@?$AAm?$AAn@ 0000000140090df8     libucrt:lcidtoname_downlevel.obj
 0002:0002fe00       ??_C@_15CKDMCJAF@?$AAg?$AAl@ 0000000140090e00     libucrt:lcidtoname_downlevel.obj
 0002:0002fe08       ??_C@_17CNJFBPG@?$AAk?$AAo?$AAk@ 0000000140090e08     libucrt:lcidtoname_downlevel.obj
 0002:0002fe10       ??_C@_17FFBJICPL@?$AAs?$AAy?$AAr@ 0000000140090e10     libucrt:lcidtoname_downlevel.obj
 0002:0002fe18       ??_C@_17KPNDCPAF@?$AAd?$AAi?$AAv@ 0000000140090e18     libucrt:lcidtoname_downlevel.obj
 0002:0002fe20       ??_C@_1M@OKAHONE@?$AAa?$AAr?$AA?9?$AAS?$AAA@ 0000000140090e20     libucrt:lcidtoname_downlevel.obj
 0002:0002fe30       ??_C@_1M@FFFIGIGK@?$AAb?$AAg?$AA?9?$AAB?$AAG@ 0000000140090e30     libucrt:lcidtoname_downlevel.obj
 0002:0002fe40       ??_C@_1M@BJNKEDC@?$AAc?$AAa?$AA?9?$AAE?$AAS@ 0000000140090e40     libucrt:lcidtoname_downlevel.obj
 0002:0002fe50       ??_C@_1M@IJJHFJHA@?$AAc?$AAs?$AA?9?$AAC?$AAZ@ 0000000140090e50     libucrt:lcidtoname_downlevel.obj
 0002:0002fe60       ??_C@_1M@CLPEOBGI@?$AAd?$AAa?$AA?9?$AAD?$AAK@ 0000000140090e60     libucrt:lcidtoname_downlevel.obj
 0002:0002fe70       ??_C@_1M@MCMADGCB@?$AAd?$AAe?$AA?9?$AAD?$AAE@ 0000000140090e70     libucrt:lcidtoname_downlevel.obj
 0002:0002fe80       ??_C@_1M@OOCKEMAM@?$AAe?$AAl?$AA?9?$AAG?$AAR@ 0000000140090e80     libucrt:lcidtoname_downlevel.obj
 0002:0002fe90       ??_C@_1M@DDNJFGID@?$AAf?$AAi?$AA?9?$AAF?$AAI@ 0000000140090e90     libucrt:lcidtoname_downlevel.obj
 0002:0002fea0       ??_C@_1M@GLIPPMAC@?$AAf?$AAr?$AA?9?$AAF?$AAR@ 0000000140090ea0     libucrt:lcidtoname_downlevel.obj
 0002:0002feb0       ??_C@_1M@GFMCHPE@?$AAh?$AAe?$AA?9?$AAI?$AAL@ 0000000140090eb0     libucrt:lcidtoname_downlevel.obj
 0002:0002fec0       ??_C@_1M@MHLPGNKM@?$AAh?$AAu?$AA?9?$AAH?$AAU@ 0000000140090ec0     libucrt:lcidtoname_downlevel.obj
 0002:0002fed0       ??_C@_1M@LPDDNNPN@?$AAi?$AAs?$AA?9?$AAI?$AAS@ 0000000140090ed0     libucrt:lcidtoname_downlevel.obj
 0002:0002fee0       ??_C@_1M@MADIPODN@?$AAi?$AAt?$AA?9?$AAI?$AAT@ 0000000140090ee0     libucrt:lcidtoname_downlevel.obj
 0002:0002fef0       ??_C@_1M@IHBJJGG@?$AAn?$AAl?$AA?9?$AAN?$AAL@ 0000000140090ef0     libucrt:lcidtoname_downlevel.obj
 0002:0002ff00       ??_C@_1M@EANAGDL@?$AAn?$AAb?$AA?9?$AAN?$AAO@ 0000000140090f00     libucrt:lcidtoname_downlevel.obj
 0002:0002ff10       ??_C@_1M@NEIEMEGP@?$AAp?$AAl?$AA?9?$AAP?$AAL@ 0000000140090f10     libucrt:lcidtoname_downlevel.obj
 0002:0002ff20       ??_C@_1M@BOCFIGEP@?$AAp?$AAt?$AA?9?$AAB?$AAR@ 0000000140090f20     libucrt:lcidtoname_downlevel.obj
 0002:0002ff30       ??_C@_1M@IMPFOPBG@?$AAr?$AAo?$AA?9?$AAR?$AAO@ 0000000140090f30     libucrt:lcidtoname_downlevel.obj
 0002:0002ff40       ??_C@_1M@IDNNEJMM@?$AAr?$AAu?$AA?9?$AAR?$AAU@ 0000000140090f40     libucrt:lcidtoname_downlevel.obj
 0002:0002ff50       ??_C@_1M@LILEEOGM@?$AAh?$AAr?$AA?9?$AAH?$AAR@ 0000000140090f50     libucrt:lcidtoname_downlevel.obj
 0002:0002ff60       ??_C@_1M@FKIFEHPB@?$AAs?$AAk?$AA?9?$AAS?$AAK@ 0000000140090f60     libucrt:lcidtoname_downlevel.obj
 0002:0002ff70       ??_C@_1M@LJMAMNPJ@?$AAs?$AAq?$AA?9?$AAA?$AAL@ 0000000140090f70     libucrt:lcidtoname_downlevel.obj
 0002:0002ff80       ??_C@_1M@GIAKDKJK@?$AAs?$AAv?$AA?9?$AAS?$AAE@ 0000000140090f80     libucrt:lcidtoname_downlevel.obj
 0002:0002ff90       ??_C@_1M@MKJKIKCL@?$AAt?$AAh?$AA?9?$AAT?$AAH@ 0000000140090f90     libucrt:lcidtoname_downlevel.obj
 0002:0002ffa0       ??_C@_1M@MFLCCMPB@?$AAt?$AAr?$AA?9?$AAT?$AAR@ 0000000140090fa0     libucrt:lcidtoname_downlevel.obj
 0002:0002ffb0       ??_C@_1M@OIJHDKJN@?$AAu?$AAr?$AA?9?$AAP?$AAK@ 0000000140090fb0     libucrt:lcidtoname_downlevel.obj
 0002:0002ffc0       ??_C@_1M@LHIPCIEK@?$AAi?$AAd?$AA?9?$AAI?$AAD@ 0000000140090fc0     libucrt:lcidtoname_downlevel.obj
 0002:0002ffd0       ??_C@_1M@MFMOBGI@?$AAu?$AAk?$AA?9?$AAU?$AAA@ 0000000140090fd0     libucrt:lcidtoname_downlevel.obj
 0002:0002ffe0       ??_C@_1M@OBGLJIPL@?$AAb?$AAe?$AA?9?$AAB?$AAY@ 0000000140090fe0     libucrt:lcidtoname_downlevel.obj
 0002:0002fff0       ??_C@_1M@BCFAJEAD@?$AAs?$AAl?$AA?9?$AAS?$AAI@ 0000000140090ff0     libucrt:lcidtoname_downlevel.obj
 0002:00030000       ??_C@_1M@FKFFEDDN@?$AAe?$AAt?$AA?9?$AAE?$AAE@ 0000000140091000     libucrt:lcidtoname_downlevel.obj
 0002:00030010       ??_C@_1M@KGKKAACI@?$AAl?$AAv?$AA?9?$AAL?$AAV@ 0000000140091010     libucrt:lcidtoname_downlevel.obj
 0002:00030020       ??_C@_1M@IFGBIJO@?$AAl?$AAt?$AA?9?$AAL?$AAT@ 0000000140091020     libucrt:lcidtoname_downlevel.obj
 0002:00030030       ??_C@_1M@FGEAHEDM@?$AAf?$AAa?$AA?9?$AAI?$AAR@ 0000000140091030     libucrt:lcidtoname_downlevel.obj
 0002:00030040       ??_C@_1M@KBMAIBFN@?$AAv?$AAi?$AA?9?$AAV?$AAN@ 0000000140091040     libucrt:lcidtoname_downlevel.obj
 0002:00030050       ??_C@_1M@GPCBKDJK@?$AAh?$AAy?$AA?9?$AAA?$AAM@ 0000000140091050     libucrt:lcidtoname_downlevel.obj
 0002:00030060       ??_C@_1BG@BECMDDJB@?$AAa?$AAz?$AA?9?$AAA?$AAZ?$AA?9?$AAL?$AAa?$AAt?$AAn@ 0000000140091060     libucrt:lcidtoname_downlevel.obj
 0002:00030078       ??_C@_1M@MAOFCAEA@?$AAe?$AAu?$AA?9?$AAE?$AAS@ 0000000140091078     libucrt:lcidtoname_downlevel.obj
 0002:00030088       ??_C@_1M@IGHABKPI@?$AAm?$AAk?$AA?9?$AAM?$AAK@ 0000000140091088     libucrt:lcidtoname_downlevel.obj
 0002:00030098       ??_C@_1M@IAIGNEJG@?$AAt?$AAn?$AA?9?$AAZ?$AAA@ 0000000140091098     libucrt:lcidtoname_downlevel.obj
 0002:000300a8       ??_C@_1M@IIJCOJFA@?$AAx?$AAh?$AA?9?$AAZ?$AAA@ 00000001400910a8     libucrt:lcidtoname_downlevel.obj
 0002:000300b8       ??_C@_1M@LGPJHNJH@?$AAz?$AAu?$AA?9?$AAZ?$AAA@ 00000001400910b8     libucrt:lcidtoname_downlevel.obj
 0002:000300c8       ??_C@_1M@HOKAOIO@?$AAa?$AAf?$AA?9?$AAZ?$AAA@ 00000001400910c8     libucrt:lcidtoname_downlevel.obj
 0002:000300d8       ??_C@_1M@DPCLHLIE@?$AAk?$AAa?$AA?9?$AAG?$AAE@ 00000001400910d8     libucrt:lcidtoname_downlevel.obj
 0002:000300e8       ??_C@_1M@BLKMHJBI@?$AAf?$AAo?$AA?9?$AAF?$AAO@ 00000001400910e8     libucrt:lcidtoname_downlevel.obj
 0002:000300f8       ??_C@_1M@LGGJAPPB@?$AAh?$AAi?$AA?9?$AAI?$AAN@ 00000001400910f8     libucrt:lcidtoname_downlevel.obj
 0002:00030108       ??_C@_1M@FIKPIHFE@?$AAm?$AAt?$AA?9?$AAM?$AAT@ 0000000140091108     libucrt:lcidtoname_downlevel.obj
 0002:00030118       ??_C@_1M@HEGGPBFA@?$AAs?$AAe?$AA?9?$AAN?$AAO@ 0000000140091118     libucrt:lcidtoname_downlevel.obj
 0002:00030128       ??_C@_1M@EIBJEEPA@?$AAm?$AAs?$AA?9?$AAM?$AAY@ 0000000140091128     libucrt:lcidtoname_downlevel.obj
 0002:00030138       ??_C@_1M@FHLBGMPP@?$AAk?$AAk?$AA?9?$AAK?$AAZ@ 0000000140091138     libucrt:lcidtoname_downlevel.obj
 0002:00030148       ??_C@_1M@NGJJLCGI@?$AAk?$AAy?$AA?9?$AAK?$AAG@ 0000000140091148     libucrt:lcidtoname_downlevel.obj
 0002:00030158       ??_C@_1M@GIENNBFC@?$AAs?$AAw?$AA?9?$AAK?$AAE@ 0000000140091158     libucrt:lcidtoname_downlevel.obj
 0002:00030168       ??_C@_1BG@NDGMJIMJ@?$AAu?$AAz?$AA?9?$AAU?$AAZ?$AA?9?$AAL?$AAa?$AAt?$AAn@ 0000000140091168     libucrt:lcidtoname_downlevel.obj
 0002:00030180       ??_C@_1M@IDCCIHBC@?$AAt?$AAt?$AA?9?$AAR?$AAU@ 0000000140091180     libucrt:lcidtoname_downlevel.obj
 0002:00030190       ??_C@_1M@LOICPMOJ@?$AAb?$AAn?$AA?9?$AAI?$AAN@ 0000000140091190     libucrt:lcidtoname_downlevel.obj
 0002:000301a0       ??_C@_1M@KPKKNEAH@?$AAp?$AAa?$AA?9?$AAI?$AAN@ 00000001400911a0     libucrt:lcidtoname_downlevel.obj
 0002:000301b0       ??_C@_1M@PJGPPBOG@?$AAg?$AAu?$AA?9?$AAI?$AAN@ 00000001400911b0     libucrt:lcidtoname_downlevel.obj
 0002:000301c0       ??_C@_1M@KMKMOPHI@?$AAt?$AAa?$AA?9?$AAI?$AAN@ 00000001400911c0     libucrt:lcidtoname_downlevel.obj
 0002:000301d0       ??_C@_1M@KFEHEPAC@?$AAt?$AAe?$AA?9?$AAI?$AAN@ 00000001400911d0     libucrt:lcidtoname_downlevel.obj
 0002:000301e0       ??_C@_1M@CDCLMGHI@?$AAk?$AAn?$AA?9?$AAI?$AAN@ 00000001400911e0     libucrt:lcidtoname_downlevel.obj
 0002:000301f0       ??_C@_1M@MIODLDKF@?$AAm?$AAl?$AA?9?$AAI?$AAN@ 00000001400911f0     libucrt:lcidtoname_downlevel.obj
 0002:00030200       ??_C@_1M@PBIEACPO@?$AAm?$AAr?$AA?9?$AAI?$AAN@ 0000000140091200     libucrt:lcidtoname_downlevel.obj
 0002:00030210       ??_C@_1M@NIDEAGPH@?$AAs?$AAa?$AA?9?$AAI?$AAN@ 0000000140091210     libucrt:lcidtoname_downlevel.obj
 0002:00030220       ??_C@_1M@FHIHCBIO@?$AAm?$AAn?$AA?9?$AAM?$AAN@ 0000000140091220     libucrt:lcidtoname_downlevel.obj
 0002:00030230       ??_C@_1M@JAIJPENP@?$AAc?$AAy?$AA?9?$AAG?$AAB@ 0000000140091230     libucrt:lcidtoname_downlevel.obj
 0002:00030240       ??_C@_1M@PHGFBEPN@?$AAg?$AAl?$AA?9?$AAE?$AAS@ 0000000140091240     libucrt:lcidtoname_downlevel.obj
 0002:00030250       ??_C@_1O@KPIPDNCP@?$AAk?$AAo?$AAk?$AA?9?$AAI?$AAN@ 0000000140091250     libucrt:lcidtoname_downlevel.obj
 0002:00030260       ??_C@_1O@KNHJLDJA@?$AAs?$AAy?$AAr?$AA?9?$AAS?$AAY@ 0000000140091260     libucrt:lcidtoname_downlevel.obj
 0002:00030270       ??_C@_1O@MKEKBLAH@?$AAd?$AAi?$AAv?$AA?9?$AAM?$AAV@ 0000000140091270     libucrt:lcidtoname_downlevel.obj
 0002:00030280       ??_C@_1O@OHDCKDDF@?$AAq?$AAu?$AAz?$AA?9?$AAB?$AAO@ 0000000140091280     libucrt:lcidtoname_downlevel.obj
 0002:00030290       ??_C@_1M@LEPJNLFD@?$AAn?$AAs?$AA?9?$AAZ?$AAA@ 0000000140091290     libucrt:lcidtoname_downlevel.obj
 0002:000302a0       ??_C@_1M@OMLEIIJB@?$AAm?$AAi?$AA?9?$AAN?$AAZ@ 00000001400912a0     libucrt:lcidtoname_downlevel.obj
 0002:000302b0       ??_C@_1M@PMPEAILG@?$AAa?$AAr?$AA?9?$AAI?$AAQ@ 00000001400912b0     libucrt:lcidtoname_downlevel.obj
 0002:000302c0       ??_C@_1M@CNKPNOEE@?$AAd?$AAe?$AA?9?$AAC?$AAH@ 00000001400912c0     libucrt:lcidtoname_downlevel.obj
 0002:000302d0       ??_C@_1M@LKMGMLKO@?$AAe?$AAn?$AA?9?$AAG?$AAB@ 00000001400912d0     libucrt:lcidtoname_downlevel.obj
 0002:000302e0       ??_C@_1M@PGKJFFGL@?$AAe?$AAs?$AA?9?$AAM?$AAX@ 00000001400912e0     libucrt:lcidtoname_downlevel.obj
 0002:000302f0       ??_C@_1M@DNNANBDC@?$AAf?$AAr?$AA?9?$AAB?$AAE@ 00000001400912f0     libucrt:lcidtoname_downlevel.obj
 0002:00030300       ??_C@_1M@HLGMDFHM@?$AAi?$AAt?$AA?9?$AAC?$AAH@ 0000000140091300     libucrt:lcidtoname_downlevel.obj
 0002:00030310       ??_C@_1M@CLLBGJH@?$AAn?$AAl?$AA?9?$AAB?$AAE@ 0000000140091310     libucrt:lcidtoname_downlevel.obj
 0002:00030320       ??_C@_1M@BODBOGLF@?$AAn?$AAn?$AA?9?$AAN?$AAO@ 0000000140091320     libucrt:lcidtoname_downlevel.obj
 0002:00030330       ??_C@_1M@HFFAHKAD@?$AAp?$AAt?$AA?9?$AAP?$AAT@ 0000000140091330     libucrt:lcidtoname_downlevel.obj
 0002:00030340       ??_C@_1BG@LNOAKHIE@?$AAs?$AAr?$AA?9?$AAS?$AAP?$AA?9?$AAL?$AAa?$AAt?$AAn@ 0000000140091340     libucrt:lcidtoname_downlevel.obj
 0002:00030358       ??_C@_1M@HBMHBGAK@?$AAs?$AAv?$AA?9?$AAF?$AAI@ 0000000140091358     libucrt:lcidtoname_downlevel.obj
 0002:00030368       ??_C@_1BG@DGCJGJBE@?$AAa?$AAz?$AA?9?$AAA?$AAZ?$AA?9?$AAC?$AAy?$AAr?$AAl@ 0000000140091368     libucrt:lcidtoname_downlevel.obj
 0002:00030380       ??_C@_1M@KEJDAAHB@?$AAs?$AAe?$AA?9?$AAS?$AAE@ 0000000140091380     libucrt:lcidtoname_downlevel.obj
 0002:00030390       ??_C@_1M@HEIBJJAD@?$AAm?$AAs?$AA?9?$AAB?$AAN@ 0000000140091390     libucrt:lcidtoname_downlevel.obj
 0002:000303a0       ??_C@_1BG@PBGJMCEM@?$AAu?$AAz?$AA?9?$AAU?$AAZ?$AA?9?$AAC?$AAy?$AAr?$AAl@ 00000001400913a0     libucrt:lcidtoname_downlevel.obj
 0002:000303b8       ??_C@_1O@LAOBCMDF@?$AAq?$AAu?$AAz?$AA?9?$AAE?$AAC@ 00000001400913b8     libucrt:lcidtoname_downlevel.obj
 0002:000303c8       ??_C@_1M@POEEMAIO@?$AAa?$AAr?$AA?9?$AAE?$AAG@ 00000001400913c8     libucrt:lcidtoname_downlevel.obj
 0002:000303d8       ??_C@_1M@EFAKDEDL@?$AAz?$AAh?$AA?9?$AAH?$AAK@ 00000001400913d8     libucrt:lcidtoname_downlevel.obj
 0002:000303e8       ??_C@_1M@HKKIJHGI@?$AAd?$AAe?$AA?9?$AAA?$AAT@ 00000001400913e8     libucrt:lcidtoname_downlevel.obj
 0002:000303f8       ??_C@_1M@KBFBEHJF@?$AAe?$AAn?$AA?9?$AAA?$AAU@ 00000001400913f8     libucrt:lcidtoname_downlevel.obj
 0002:00030408       ??_C@_1M@MNPLFAAH@?$AAe?$AAs?$AA?9?$AAE?$AAS@ 0000000140091408     libucrt:lcidtoname_downlevel.obj
 0002:00030418       ??_C@_1M@HJOOJFMA@?$AAf?$AAr?$AA?9?$AAC?$AAA@ 0000000140091418     libucrt:lcidtoname_downlevel.obj
 0002:00030428       ??_C@_1BG@JPOFPNAB@?$AAs?$AAr?$AA?9?$AAS?$AAP?$AA?9?$AAC?$AAy?$AAr?$AAl@ 0000000140091428     libucrt:lcidtoname_downlevel.obj
 0002:00030440       ??_C@_1M@LNFOCMOB@?$AAs?$AAe?$AA?9?$AAF?$AAI@ 0000000140091440     libucrt:lcidtoname_downlevel.obj
 0002:00030450       ??_C@_1O@MGJBOAMB@?$AAq?$AAu?$AAz?$AA?9?$AAP?$AAE@ 0000000140091450     libucrt:lcidtoname_downlevel.obj
 0002:00030460       ??_C@_1M@GJINLBOK@?$AAa?$AAr?$AA?9?$AAL?$AAY@ 0000000140091460     libucrt:lcidtoname_downlevel.obj
 0002:00030470       ??_C@_1M@GGMNHJNL@?$AAz?$AAh?$AA?9?$AAS?$AAG@ 0000000140091470     libucrt:lcidtoname_downlevel.obj
 0002:00030480       ??_C@_1M@HOIKODND@?$AAd?$AAe?$AA?9?$AAL?$AAU@ 0000000140091480     libucrt:lcidtoname_downlevel.obj
 0002:00030490       ??_C@_1M@DDOCCGFG@?$AAe?$AAn?$AA?9?$AAC?$AAA@ 0000000140091490     libucrt:lcidtoname_downlevel.obj
 0002:000304a0       ??_C@_1M@BNOEMJLF@?$AAe?$AAs?$AA?9?$AAG?$AAT@ 00000001400914a0     libucrt:lcidtoname_downlevel.obj
 0002:000304b0       ??_C@_1M@EOGNKEK@?$AAf?$AAr?$AA?9?$AAC?$AAH@ 00000001400914b0     libucrt:lcidtoname_downlevel.obj
 0002:000304c0       ??_C@_1M@FLIDJFHL@?$AAh?$AAr?$AA?9?$AAB?$AAA@ 00000001400914c0     libucrt:lcidtoname_downlevel.obj
 0002:000304d0       ??_C@_1O@FMCELNAJ@?$AAs?$AAm?$AAj?$AA?9?$AAN?$AAO@ 00000001400914d0     libucrt:lcidtoname_downlevel.obj
 0002:000304e0       ??_C@_1M@JHGLJMGJ@?$AAa?$AAr?$AA?9?$AAD?$AAZ@ 00000001400914e0     libucrt:lcidtoname_downlevel.obj
 0002:000304f0       ??_C@_1M@JKKFDCNP@?$AAz?$AAh?$AA?9?$AAM?$AAO@ 00000001400914f0     libucrt:lcidtoname_downlevel.obj
 0002:00030500       ??_C@_1M@GEEFALPE@?$AAd?$AAe?$AA?9?$AAL?$AAI@ 0000000140091500     libucrt:lcidtoname_downlevel.obj
 0002:00030510       ??_C@_1M@IGEOFBG@?$AAe?$AAn?$AA?9?$AAN?$AAZ@ 0000000140091510     libucrt:lcidtoname_downlevel.obj
 0002:00030520       ??_C@_1M@KDBONEHP@?$AAe?$AAs?$AA?9?$AAC?$AAR@ 0000000140091520     libucrt:lcidtoname_downlevel.obj
 0002:00030530       ??_C@_1M@FHMDOHNN@?$AAf?$AAr?$AA?9?$AAL?$AAU@ 0000000140091530     libucrt:lcidtoname_downlevel.obj
 0002:00030540       ??_C@_1BG@NFKKMAFG@?$AAb?$AAs?$AA?9?$AAB?$AAA?$AA?9?$AAL?$AAa?$AAt?$AAn@ 0000000140091540     libucrt:lcidtoname_downlevel.obj
 0002:00030558       ??_C@_1O@IMNBEMCI@?$AAs?$AAm?$AAj?$AA?9?$AAS?$AAE@ 0000000140091558     libucrt:lcidtoname_downlevel.obj
 0002:00030568       ??_C@_1M@DHHMBNDP@?$AAa?$AAr?$AA?9?$AAM?$AAA@ 0000000140091568     libucrt:lcidtoname_downlevel.obj
 0002:00030578       ??_C@_1M@BNBLJCGH@?$AAe?$AAn?$AA?9?$AAI?$AAE@ 0000000140091578     libucrt:lcidtoname_downlevel.obj
 0002:00030588       ??_C@_1M@GEPAFMDL@?$AAe?$AAs?$AA?9?$AAP?$AAA@ 0000000140091588     libucrt:lcidtoname_downlevel.obj
 0002:00030598       ??_C@_1M@OJONDMDL@?$AAf?$AAr?$AA?9?$AAM?$AAC@ 0000000140091598     libucrt:lcidtoname_downlevel.obj
 0002:000305a8       ??_C@_1BG@OBCNFJB@?$AAs?$AAr?$AA?9?$AAB?$AAA?$AA?9?$AAL?$AAa?$AAt?$AAn@ 00000001400915a8     libucrt:lcidtoname_downlevel.obj
 0002:000305c0       ??_C@_1O@KEMEEGPO@?$AAs?$AAm?$AAa?$AA?9?$AAN?$AAO@ 00000001400915c0     libucrt:lcidtoname_downlevel.obj
 0002:000305d0       ??_C@_1M@ELMGFODK@?$AAa?$AAr?$AA?9?$AAT?$AAN@ 00000001400915d0     libucrt:lcidtoname_downlevel.obj
 0002:000305e0       ??_C@_1M@BHDLHFAF@?$AAe?$AAn?$AA?9?$AAZ?$AAA@ 00000001400915e0     libucrt:lcidtoname_downlevel.obj
 0002:000305f0       ??_C@_1M@BMGIGLIF@?$AAe?$AAs?$AA?9?$AAD?$AAO@ 00000001400915f0     libucrt:lcidtoname_downlevel.obj
 0002:00030600       ??_C@_1BG@CMBHIPBE@?$AAs?$AAr?$AA?9?$AAB?$AAA?$AA?9?$AAC?$AAy?$AAr?$AAl@ 0000000140091600     libucrt:lcidtoname_downlevel.obj
 0002:00030618       ??_C@_1O@HEDBLHNP@?$AAs?$AAm?$AAa?$AA?9?$AAS?$AAE@ 0000000140091618     libucrt:lcidtoname_downlevel.obj
 0002:00030628       ??_C@_1M@DAGCADIM@?$AAa?$AAr?$AA?9?$AAO?$AAM@ 0000000140091628     libucrt:lcidtoname_downlevel.obj
 0002:00030638       ??_C@_1M@FODLMICG@?$AAe?$AAn?$AA?9?$AAJ?$AAM@ 0000000140091638     libucrt:lcidtoname_downlevel.obj
 0002:00030648       ??_C@_1M@DNMLCIHB@?$AAe?$AAs?$AA?9?$AAV?$AAE@ 0000000140091648     libucrt:lcidtoname_downlevel.obj
 0002:00030658       ??_C@_1O@EOKHMKJK@?$AAs?$AAm?$AAs?$AA?9?$AAF?$AAI@ 0000000140091658     libucrt:lcidtoname_downlevel.obj
 0002:00030668       ??_C@_1M@CAFJMKOF@?$AAa?$AAr?$AA?9?$AAY?$AAE@ 0000000140091668     libucrt:lcidtoname_downlevel.obj
 0002:00030678       ??_C@_1M@CBFHIJLI@?$AAe?$AAn?$AA?9?$AAC?$AAB@ 0000000140091678     libucrt:lcidtoname_downlevel.obj
 0002:00030688       ??_C@_1M@BGNFLDN@?$AAe?$AAs?$AA?9?$AAC?$AAO@ 0000000140091688     libucrt:lcidtoname_downlevel.obj
 0002:00030698       ??_C@_1O@JMPHMAMC@?$AAs?$AAm?$AAn?$AA?9?$AAF?$AAI@ 0000000140091698     libucrt:lcidtoname_downlevel.obj
 0002:000306a8       ??_C@_1M@JLANABKE@?$AAa?$AAr?$AA?9?$AAS?$AAY@ 00000001400916a8     libucrt:lcidtoname_downlevel.obj
 0002:000306b8       ??_C@_1M@HPKGCFGN@?$AAe?$AAn?$AA?9?$AAB?$AAZ@ 00000001400916b8     libucrt:lcidtoname_downlevel.obj
 0002:000306c8       ??_C@_1M@OLJCMLGM@?$AAe?$AAs?$AA?9?$AAP?$AAE@ 00000001400916c8     libucrt:lcidtoname_downlevel.obj
 0002:000306d8       ??_C@_1M@MKKGFKLE@?$AAa?$AAr?$AA?9?$AAJ?$AAO@ 00000001400916d8     libucrt:lcidtoname_downlevel.obj
 0002:000306e8       ??_C@_1M@EKPGLDNI@?$AAe?$AAn?$AA?9?$AAT?$AAT@ 00000001400916e8     libucrt:lcidtoname_downlevel.obj
 0002:000306f8       ??_C@_1M@OONGHFHE@?$AAe?$AAs?$AA?9?$AAA?$AAR@ 00000001400916f8     libucrt:lcidtoname_downlevel.obj
 0002:00030708       ??_C@_1M@OOJFGBHE@?$AAa?$AAr?$AA?9?$AAL?$AAB@ 0000000140091708     libucrt:lcidtoname_downlevel.obj
 0002:00030718       ??_C@_1M@GCEJHNEG@?$AAe?$AAn?$AA?9?$AAZ?$AAW@ 0000000140091718     libucrt:lcidtoname_downlevel.obj
 0002:00030728       ??_C@_1M@JNOCAHJI@?$AAe?$AAs?$AA?9?$AAE?$AAC@ 0000000140091728     libucrt:lcidtoname_downlevel.obj
 0002:00030738       ??_C@_1M@JEFHPGGB@?$AAa?$AAr?$AA?9?$AAK?$AAW@ 0000000140091738     libucrt:lcidtoname_downlevel.obj
 0002:00030748       ??_C@_1M@MLKIBJOJ@?$AAe?$AAn?$AA?9?$AAP?$AAH@ 0000000140091748     libucrt:lcidtoname_downlevel.obj
 0002:00030758       ??_C@_1M@BDNIPEND@?$AAe?$AAs?$AA?9?$AAC?$AAL@ 0000000140091758     libucrt:lcidtoname_downlevel.obj
 0002:00030768       ??_C@_1M@MPNMEKBD@?$AAa?$AAr?$AA?9?$AAA?$AAE@ 0000000140091768     libucrt:lcidtoname_downlevel.obj
 0002:00030778       ??_C@_1M@KBJALCPI@?$AAe?$AAs?$AA?9?$AAU?$AAY@ 0000000140091778     libucrt:lcidtoname_downlevel.obj
 0002:00030788       ??_C@_1M@LLCCOAGA@?$AAa?$AAr?$AA?9?$AAB?$AAH@ 0000000140091788     libucrt:lcidtoname_downlevel.obj
 0002:00030798       ??_C@_1M@PBFNCDEL@?$AAe?$AAs?$AA?9?$AAP?$AAY@ 0000000140091798     libucrt:lcidtoname_downlevel.obj
 0002:000307a8       ??_C@_1M@EDGINPNP@?$AAa?$AAr?$AA?9?$AAQ?$AAA@ 00000001400917a8     libucrt:lcidtoname_downlevel.obj
 0002:000307b8       ??_C@_1M@MKDBIIJI@?$AAe?$AAs?$AA?9?$AAB?$AAO@ 00000001400917b8     libucrt:lcidtoname_downlevel.obj
 0002:000307c8       ??_C@_1M@CPKKEBLD@?$AAe?$AAs?$AA?9?$AAS?$AAV@ 00000001400917c8     libucrt:lcidtoname_downlevel.obj
 0002:000307d8       ??_C@_1M@NDBGMMJL@?$AAe?$AAs?$AA?9?$AAH?$AAN@ 00000001400917d8     libucrt:lcidtoname_downlevel.obj
 0002:000307e8       ??_C@_1M@JIJIBHDP@?$AAe?$AAs?$AA?9?$AAN?$AAI@ 00000001400917e8     libucrt:lcidtoname_downlevel.obj
 0002:000307f8       ??_C@_1M@CGFMKEEK@?$AAe?$AAs?$AA?9?$AAP?$AAR@ 00000001400917f8     libucrt:lcidtoname_downlevel.obj
 0002:00030808       ??_C@_1O@ICJHKIIK@?$AAz?$AAh?$AA?9?$AAC?$AAH?$AAT@ 0000000140091808     libucrt:lcidtoname_downlevel.obj
 0002:00030818       ??_C@_15CLNEJCE@?$AAs?$AAr@ 0000000140091818     libucrt:lcidtoname_downlevel.obj
 0002:00031660       ??_C@_1M@KAHEKEIG@?$AAa?$AAf?$AA?9?$AAz?$AAa@ 0000000140092660     libucrt:lcidtoname_downlevel.obj
 0002:00031670       ??_C@_1M@GIECOABL@?$AAa?$AAr?$AA?9?$AAa?$AAe@ 0000000140092670     libucrt:lcidtoname_downlevel.obj
 0002:00031680       ??_C@_1M@BMLMEKGI@?$AAa?$AAr?$AA?9?$AAb?$AAh@ 0000000140092680     libucrt:lcidtoname_downlevel.obj
 0002:00031690       ??_C@_1M@DAPFDGGB@?$AAa?$AAr?$AA?9?$AAd?$AAz@ 0000000140092690     libucrt:lcidtoname_downlevel.obj
 0002:000316a0       ??_C@_1M@FJNKGKIG@?$AAa?$AAr?$AA?9?$AAe?$AAg@ 00000001400926a0     libucrt:lcidtoname_downlevel.obj
 0002:000316b0       ??_C@_1M@FLGKKCLO@?$AAa?$AAr?$AA?9?$AAi?$AAq@ 00000001400926b0     libucrt:lcidtoname_downlevel.obj
 0002:000316c0       ??_C@_1M@GNDIPALM@?$AAa?$AAr?$AA?9?$AAj?$AAo@ 00000001400926c0     libucrt:lcidtoname_downlevel.obj
 0002:000316d0       ??_C@_1M@DDMJFMGJ@?$AAa?$AAr?$AA?9?$AAk?$AAw@ 00000001400926d0     libucrt:lcidtoname_downlevel.obj
 0002:000316e0       ??_C@_1M@EJALMLHM@?$AAa?$AAr?$AA?9?$AAl?$AAb@ 00000001400926e0     libucrt:lcidtoname_downlevel.obj
 0002:000316f0       ??_C@_1M@MOBDBLOC@?$AAa?$AAr?$AA?9?$AAl?$AAy@ 00000001400926f0     libucrt:lcidtoname_downlevel.obj
 0002:00031700       ??_C@_1M@JAOCLHDH@?$AAa?$AAr?$AA?9?$AAm?$AAa@ 0000000140092700     libucrt:lcidtoname_downlevel.obj
 0002:00031710       ??_C@_1M@JHPMKJIE@?$AAa?$AAr?$AA?9?$AAo?$AAm@ 0000000140092710     libucrt:lcidtoname_downlevel.obj
 0002:00031720       ??_C@_1M@OEPGHFNH@?$AAa?$AAr?$AA?9?$AAq?$AAa@ 0000000140092720     libucrt:lcidtoname_downlevel.obj
 0002:00031730       ??_C@_1M@KJDONENM@?$AAa?$AAr?$AA?9?$AAs?$AAa@ 0000000140092730     libucrt:lcidtoname_downlevel.obj
 0002:00031740       ??_C@_1M@DMJDKLKM@?$AAa?$AAr?$AA?9?$AAs?$AAy@ 0000000140092740     libucrt:lcidtoname_downlevel.obj
 0002:00031750       ??_C@_1M@OMFIPEDC@?$AAa?$AAr?$AA?9?$AAt?$AAn@ 0000000140092750     libucrt:lcidtoname_downlevel.obj
 0002:00031760       ??_C@_1M@IHMHGAON@?$AAa?$AAr?$AA?9?$AAy?$AAe@ 0000000140092760     libucrt:lcidtoname_downlevel.obj
 0002:00031770       ??_C@_1BG@KDCPGJGB@?$AAa?$AAz?$AA?9?$AAa?$AAz?$AA?9?$AAc?$AAy?$AAr?$AAl@ 0000000140092770     libucrt:lcidtoname_downlevel.obj
 0002:00031788       ??_C@_1BG@IBCKDDOE@?$AAa?$AAz?$AA?9?$AAa?$AAz?$AA?9?$AAl?$AAa?$AAt?$AAn@ 0000000140092788     libucrt:lcidtoname_downlevel.obj
 0002:000317a0       ??_C@_1M@EGPFDCPD@?$AAb?$AAe?$AA?9?$AAb?$AAy@ 00000001400927a0     libucrt:lcidtoname_downlevel.obj
 0002:000317b0       ??_C@_1M@PCMGMCGC@?$AAb?$AAg?$AA?9?$AAb?$AAg@ 00000001400927b0     libucrt:lcidtoname_downlevel.obj
 0002:000317c0       ??_C@_1M@BJBMFGOB@?$AAb?$AAn?$AA?9?$AAi?$AAn@ 00000001400927c0     libucrt:lcidtoname_downlevel.obj
 0002:000317d0       ??_C@_1BG@EAKMMACD@?$AAb?$AAs?$AA?9?$AAb?$AAa?$AA?9?$AAl?$AAa?$AAt?$AAn@ 00000001400927d0     libucrt:lcidtoname_downlevel.obj
 0002:000317e8       ??_C@_1M@KGADAODK@?$AAc?$AAa?$AA?9?$AAe?$AAs@ 00000001400927e8     libucrt:lcidtoname_downlevel.obj
 0002:000317f8       ??_C@_1M@COAJPDHI@?$AAc?$AAs?$AA?9?$AAc?$AAz@ 00000001400927f8     libucrt:lcidtoname_downlevel.obj
 0002:00031808       ??_C@_1M@DHBHFONH@?$AAc?$AAy?$AA?9?$AAg?$AAb@ 0000000140092808     libucrt:lcidtoname_downlevel.obj
 0002:00031818       ??_C@_1M@IMGKELGA@?$AAd?$AAa?$AA?9?$AAd?$AAk@ 0000000140092818     libucrt:lcidtoname_downlevel.obj
 0002:00031828       ??_C@_1M@NNDGDNGA@?$AAd?$AAe?$AA?9?$AAa?$AAt@ 0000000140092828     libucrt:lcidtoname_downlevel.obj
 0002:00031838       ??_C@_1M@IKDBHEEM@?$AAd?$AAe?$AA?9?$AAc?$AAh@ 0000000140092838     libucrt:lcidtoname_downlevel.obj
 0002:00031848       ??_C@_1M@GFFOJMCJ@?$AAd?$AAe?$AA?9?$AAd?$AAe@ 0000000140092848     libucrt:lcidtoname_downlevel.obj
 0002:00031858       ??_C@_1M@MDNLKBPM@?$AAd?$AAe?$AA?9?$AAl?$AAi@ 0000000140092858     libucrt:lcidtoname_downlevel.obj
 0002:00031868       ??_C@_1M@NJBEEJNL@?$AAd?$AAe?$AA?9?$AAl?$AAu@ 0000000140092868     libucrt:lcidtoname_downlevel.obj
 0002:00031878       ??_C@_1O@GNNELBAP@?$AAd?$AAi?$AAv?$AA?9?$AAm?$AAv@ 0000000140092878     libucrt:lcidtoname_downlevel.obj
 0002:00031888       ??_C@_1M@EJLEOGAE@?$AAe?$AAl?$AA?9?$AAg?$AAr@ 0000000140092888     libucrt:lcidtoname_downlevel.obj
 0002:00031898       ??_C@_1M@GMPONJN@?$AAe?$AAn?$AA?9?$AAa?$AAu@ 0000000140092898     libucrt:lcidtoname_downlevel.obj
 0002:000318a8       ??_C@_1M@NIDIIPGF@?$AAe?$AAn?$AA?9?$AAb?$AAz@ 00000001400928a8     libucrt:lcidtoname_downlevel.obj
 0002:000318b8       ??_C@_1M@JEHMIMFO@?$AAe?$AAn?$AA?9?$AAc?$AAa@ 00000001400928b8     libucrt:lcidtoname_downlevel.obj
 0002:000318c8       ??_C@_1M@IGMJCDLA@?$AAe?$AAn?$AA?9?$AAc?$AAb@ 00000001400928c8     libucrt:lcidtoname_downlevel.obj
 0002:000318d8       ??_C@_1M@BNFIGBKG@?$AAe?$AAn?$AA?9?$AAg?$AAb@ 00000001400928d8     libucrt:lcidtoname_downlevel.obj
 0002:000318e8       ??_C@_1M@LKIFDIGP@?$AAe?$AAn?$AA?9?$AAi?$AAe@ 00000001400928e8     libucrt:lcidtoname_downlevel.obj
 0002:000318f8       ??_C@_1M@PJKFGCCO@?$AAe?$AAn?$AA?9?$AAj?$AAm@ 00000001400928f8     libucrt:lcidtoname_downlevel.obj
 0002:00031908       ??_C@_1M@KPPKEPBO@?$AAe?$AAn?$AA?9?$AAn?$AAz@ 0000000140092908     libucrt:lcidtoname_downlevel.obj
 0002:00031918       ??_C@_1M@GMDGLDOB@?$AAe?$AAn?$AA?9?$AAp?$AAh@ 0000000140092918     libucrt:lcidtoname_downlevel.obj
 0002:00031928       ??_C@_1M@ONGIBJNA@?$AAe?$AAn?$AA?9?$AAt?$AAt@ 0000000140092928     libucrt:lcidtoname_downlevel.obj
 0002:00031938       ??_C@_1M@LLODPCMM@?$AAe?$AAn?$AA?9?$AAu?$AAs@ 0000000140092938     libucrt:lcidtoname_downlevel.obj
 0002:00031948       ??_C@_1M@LAKFNPAN@?$AAe?$AAn?$AA?9?$AAz?$AAa@ 0000000140092948     libucrt:lcidtoname_downlevel.obj
 0002:00031958       ??_C@_1M@MFNHNHEO@?$AAe?$AAn?$AA?9?$AAz?$AAw@ 0000000140092958     libucrt:lcidtoname_downlevel.obj
 0002:00031968       ??_C@_1M@EJEINPHM@?$AAe?$AAs?$AA?9?$AAa?$AAr@ 0000000140092968     libucrt:lcidtoname_downlevel.obj
 0002:00031978       ??_C@_1M@GNKPCCJA@?$AAe?$AAs?$AA?9?$AAb?$AAo@ 0000000140092978     libucrt:lcidtoname_downlevel.obj
 0002:00031988       ??_C@_1M@LEEGFONL@?$AAe?$AAs?$AA?9?$AAc?$AAl@ 0000000140092988     libucrt:lcidtoname_downlevel.obj
 0002:00031998       ??_C@_1M@KGPDPBDF@?$AAe?$AAs?$AA?9?$AAc?$AAo@ 0000000140092998     libucrt:lcidtoname_downlevel.obj
 0002:000319a8       ??_C@_1M@EIAHOHH@?$AAe?$AAs?$AA?9?$AAc?$AAr@ 00000001400929a8     libucrt:lcidtoname_downlevel.obj
 0002:000319b8       ??_C@_1M@LLPGMBIN@?$AAe?$AAs?$AA?9?$AAd?$AAo@ 00000001400929b8     libucrt:lcidtoname_downlevel.obj
 0002:000319c8       ??_C@_1M@DKHMKNJA@?$AAe?$AAs?$AA?9?$AAe?$AAc@ 00000001400929c8     libucrt:lcidtoname_downlevel.obj
 0002:000319d8       ??_C@_1M@GKGFPKAP@?$AAe?$AAs?$AA?9?$AAe?$AAs@ 00000001400929d8     libucrt:lcidtoname_downlevel.obj
 0002:000319e8       ??_C@_1M@LKHKGDLN@?$AAe?$AAs?$AA?9?$AAg?$AAt@ 00000001400929e8     libucrt:lcidtoname_downlevel.obj
 0002:000319f8       ??_C@_1M@HEIIGGJD@?$AAe?$AAs?$AA?9?$AAh?$AAn@ 00000001400929f8     libucrt:lcidtoname_downlevel.obj
 0002:00031a08       ??_C@_1M@FBDHPPGD@?$AAe?$AAs?$AA?9?$AAm?$AAx@ 0000000140092a08     libucrt:lcidtoname_downlevel.obj
 0002:00031a18       ??_C@_1M@DPAGLNDH@?$AAe?$AAs?$AA?9?$AAn?$AAi@ 0000000140092a18     libucrt:lcidtoname_downlevel.obj
 0002:00031a28       ??_C@_1M@MDGOPGDD@?$AAe?$AAs?$AA?9?$AAp?$AAa@ 0000000140092a28     libucrt:lcidtoname_downlevel.obj
 0002:00031a38       ??_C@_1M@EMAMGBGE@?$AAe?$AAs?$AA?9?$AAp?$AAe@ 0000000140092a38     libucrt:lcidtoname_downlevel.obj
 0002:00031a48       ??_C@_1M@IBMCAOEC@?$AAe?$AAs?$AA?9?$AAp?$AAr@ 0000000140092a48     libucrt:lcidtoname_downlevel.obj
 0002:00031a58       ??_C@_1M@FGMDIJED@?$AAe?$AAs?$AA?9?$AAp?$AAy@ 0000000140092a58     libucrt:lcidtoname_downlevel.obj
 0002:00031a68       ??_C@_1M@IIDEOLLL@?$AAe?$AAs?$AA?9?$AAs?$AAv@ 0000000140092a68     libucrt:lcidtoname_downlevel.obj
 0002:00031a78       ??_C@_1M@GAOBIPA@?$AAe?$AAs?$AA?9?$AAu?$AAy@ 0000000140092a78     libucrt:lcidtoname_downlevel.obj
 0002:00031a88       ??_C@_1M@JKFFICHJ@?$AAe?$AAs?$AA?9?$AAv?$AAe@ 0000000140092a88     libucrt:lcidtoname_downlevel.obj
 0002:00031a98       ??_C@_1M@PNMLOJDF@?$AAe?$AAt?$AA?9?$AAe?$AAe@ 0000000140092a98     libucrt:lcidtoname_downlevel.obj
 0002:00031aa8       ??_C@_1M@GHHLIKEI@?$AAe?$AAu?$AA?9?$AAe?$AAs@ 0000000140092aa8     libucrt:lcidtoname_downlevel.obj
 0002:00031ab8       ??_C@_1M@PBNONODE@?$AAf?$AAa?$AA?9?$AAi?$AAr@ 0000000140092ab8     libucrt:lcidtoname_downlevel.obj
 0002:00031ac8       ??_C@_1M@JEEHPMIL@?$AAf?$AAi?$AA?9?$AAf?$AAi@ 0000000140092ac8     libucrt:lcidtoname_downlevel.obj
 0002:00031ad8       ??_C@_1M@LMDCNDBA@?$AAf?$AAo?$AA?9?$AAf?$AAo@ 0000000140092ad8     libucrt:lcidtoname_downlevel.obj
 0002:00031ae8       ??_C@_1M@JKEOHLDK@?$AAf?$AAr?$AA?9?$AAb?$AAe@ 0000000140092ae8     libucrt:lcidtoname_downlevel.obj
 0002:00031af8       ??_C@_1M@NOHADPMI@?$AAf?$AAr?$AA?9?$AAc?$AAa@ 0000000140092af8     libucrt:lcidtoname_downlevel.obj
 0002:00031b08       ??_C@_1M@KDHIHAEC@?$AAf?$AAr?$AA?9?$AAc?$AAh@ 0000000140092b08     libucrt:lcidtoname_downlevel.obj
 0002:00031b18       ??_C@_1M@MMBBFGAK@?$AAf?$AAr?$AA?9?$AAf?$AAr@ 0000000140092b18     libucrt:lcidtoname_downlevel.obj
 0002:00031b28       ??_C@_1M@PAFNENNF@?$AAf?$AAr?$AA?9?$AAl?$AAu@ 0000000140092b28     libucrt:lcidtoname_downlevel.obj
 0002:00031b38       ??_C@_1M@EOHDJGDD@?$AAf?$AAr?$AA?9?$AAm?$AAc@ 0000000140092b38     libucrt:lcidtoname_downlevel.obj
 0002:00031b48       ??_C@_1M@FAPLLOPF@?$AAg?$AAl?$AA?9?$AAe?$AAs@ 0000000140092b48     libucrt:lcidtoname_downlevel.obj
 0002:00031b58       ??_C@_1M@FOPBFLOO@?$AAg?$AAu?$AA?9?$AAi?$AAn@ 0000000140092b58     libucrt:lcidtoname_downlevel.obj
 0002:00031b68       ??_C@_1M@KBMCINPM@?$AAh?$AAe?$AA?9?$AAi?$AAl@ 0000000140092b68     libucrt:lcidtoname_downlevel.obj
 0002:00031b78       ??_C@_1M@BBPHKFPJ@?$AAh?$AAi?$AA?9?$AAi?$AAn@ 0000000140092b78     libucrt:lcidtoname_downlevel.obj
 0002:00031b88       ??_C@_1M@PMBNDPHD@?$AAh?$AAr?$AA?9?$AAb?$AAa@ 0000000140092b88     libucrt:lcidtoname_downlevel.obj
 0002:00031b98       ??_C@_1M@BPCKOEGE@?$AAh?$AAr?$AA?9?$AAh?$AAr@ 0000000140092b98     libucrt:lcidtoname_downlevel.obj
 0002:00031ba8       ??_C@_1M@GACBMHKE@?$AAh?$AAu?$AA?9?$AAh?$AAu@ 0000000140092ba8     libucrt:lcidtoname_downlevel.obj
 0002:00031bb8       ??_C@_1M@MILPAJJC@?$AAh?$AAy?$AA?9?$AAa?$AAm@ 0000000140092bb8     libucrt:lcidtoname_downlevel.obj
 0002:00031bc8       ??_C@_1M@BABBICEC@?$AAi?$AAd?$AA?9?$AAi?$AAd@ 0000000140092bc8     libucrt:lcidtoname_downlevel.obj
 0002:00031bd8       ??_C@_1M@BIKNHHPF@?$AAi?$AAs?$AA?9?$AAi?$AAs@ 0000000140092bd8     libucrt:lcidtoname_downlevel.obj
 0002:00031be8       ??_C@_1M@NMPCJPHE@?$AAi?$AAt?$AA?9?$AAc?$AAh@ 0000000140092be8     libucrt:lcidtoname_downlevel.obj
 0002:00031bf8       ??_C@_1M@GHKGFEDF@?$AAi?$AAt?$AA?9?$AAi?$AAt@ 0000000140092bf8     libucrt:lcidtoname_downlevel.obj
 0002:00031c08       ??_C@_1M@NIEJCJJA@?$AAj?$AAa?$AA?9?$AAj?$AAp@ 0000000140092c08     libucrt:lcidtoname_downlevel.obj
 0002:00031c18       ??_C@_1M@JILFNBIM@?$AAk?$AAa?$AA?9?$AAg?$AAe@ 0000000140092c18     libucrt:lcidtoname_downlevel.obj
 0002:00031c28       ??_C@_1M@PACPMGPH@?$AAk?$AAk?$AA?9?$AAk?$AAz@ 0000000140092c28     libucrt:lcidtoname_downlevel.obj
 0002:00031c38       ??_C@_1M@IELFGMHA@?$AAk?$AAn?$AA?9?$AAi?$AAn@ 0000000140092c38     libucrt:lcidtoname_downlevel.obj
 0002:00031c48       ??_C@_1O@IBBJHCH@?$AAk?$AAo?$AAk?$AA?9?$AAi?$AAn@ 0000000140092c48     libucrt:lcidtoname_downlevel.obj
 0002:00031c58       ??_C@_1M@DMHAEOGC@?$AAk?$AAo?$AA?9?$AAk?$AAr@ 0000000140092c58     libucrt:lcidtoname_downlevel.obj
 0002:00031c68       ??_C@_1M@HBAHBIGA@?$AAk?$AAy?$AA?9?$AAk?$AAg@ 0000000140092c68     libucrt:lcidtoname_downlevel.obj
 0002:00031c78       ??_C@_1M@KPMILCJG@?$AAl?$AAt?$AA?9?$AAl?$AAt@ 0000000140092c78     libucrt:lcidtoname_downlevel.obj
 0002:00031c88       ??_C@_1M@BDEKKCA@?$AAl?$AAv?$AA?9?$AAl?$AAv@ 0000000140092c88     libucrt:lcidtoname_downlevel.obj
 0002:00031c98       ??_C@_1M@ELCKCCJJ@?$AAm?$AAi?$AA?9?$AAn?$AAz@ 0000000140092c98     libucrt:lcidtoname_downlevel.obj
 0002:00031ca8       ??_C@_1M@CBOOLAPA@?$AAm?$AAk?$AA?9?$AAm?$AAk@ 0000000140092ca8     libucrt:lcidtoname_downlevel.obj
 0002:00031cb8       ??_C@_1M@GPHNBJKN@?$AAm?$AAl?$AA?9?$AAi?$AAn@ 0000000140092cb8     libucrt:lcidtoname_downlevel.obj
 0002:00031cc8       ??_C@_1M@PABJILIG@?$AAm?$AAn?$AA?9?$AAm?$AAn@ 0000000140092cc8     libucrt:lcidtoname_downlevel.obj
 0002:00031cd8       ??_C@_1M@FGBKKIPG@?$AAm?$AAr?$AA?9?$AAi?$AAn@ 0000000140092cd8     libucrt:lcidtoname_downlevel.obj
 0002:00031ce8       ??_C@_1M@NDBPDDAL@?$AAm?$AAs?$AA?9?$AAb?$AAn@ 0000000140092ce8     libucrt:lcidtoname_downlevel.obj
 0002:00031cf8       ??_C@_1M@OPIHOOPI@?$AAm?$AAs?$AA?9?$AAm?$AAy@ 0000000140092cf8     libucrt:lcidtoname_downlevel.obj
 0002:00031d08       ??_C@_1M@PPDBCNFM@?$AAm?$AAt?$AA?9?$AAm?$AAt@ 0000000140092d08     libucrt:lcidtoname_downlevel.obj
 0002:00031d18       ??_C@_1M@KDJDKMDD@?$AAn?$AAb?$AA?9?$AAn?$AAo@ 0000000140092d18     libucrt:lcidtoname_downlevel.obj
 0002:00031d28       ??_C@_1M@KFCFLMJP@?$AAn?$AAl?$AA?9?$AAb?$AAe@ 0000000140092d28     libucrt:lcidtoname_downlevel.obj
 0002:00031d38       ??_C@_1M@KPOPDDGO@?$AAn?$AAl?$AA?9?$AAn?$AAl@ 0000000140092d38     libucrt:lcidtoname_downlevel.obj
 0002:00031d48       ??_C@_1M@LJKPEMLN@?$AAn?$AAn?$AA?9?$AAn?$AAo@ 0000000140092d48     libucrt:lcidtoname_downlevel.obj
 0002:00031d58       ??_C@_1M@BDGHHBFL@?$AAn?$AAs?$AA?9?$AAz?$AAa@ 0000000140092d58     libucrt:lcidtoname_downlevel.obj
 0002:00031d68       ??_C@_1M@IDEHOAP@?$AAp?$AAa?$AA?9?$AAi?$AAn@ 0000000140092d68     libucrt:lcidtoname_downlevel.obj
 0002:00031d78       ??_C@_1M@HDBKGOGH@?$AAp?$AAl?$AA?9?$AAp?$AAl@ 0000000140092d78     libucrt:lcidtoname_downlevel.obj
 0002:00031d88       ??_C@_1M@LJLLCMEH@?$AAp?$AAt?$AA?9?$AAb?$AAr@ 0000000140092d88     libucrt:lcidtoname_downlevel.obj
 0002:00031d98       ??_C@_1M@NCMONAAL@?$AAp?$AAt?$AA?9?$AAp?$AAt@ 0000000140092d98     libucrt:lcidtoname_downlevel.obj
 0002:00031da8       ??_C@_1O@EAKMAJDN@?$AAq?$AAu?$AAz?$AA?9?$AAb?$AAo@ 0000000140092da8     libucrt:lcidtoname_downlevel.obj
 0002:00031db8       ??_C@_1O@BHHPIGDN@?$AAq?$AAu?$AAz?$AA?9?$AAe?$AAc@ 0000000140092db8     libucrt:lcidtoname_downlevel.obj
 0002:00031dc8       ??_C@_1O@GBAPEKMJ@?$AAq?$AAu?$AAz?$AA?9?$AAp?$AAe@ 0000000140092dc8     libucrt:lcidtoname_downlevel.obj
 0002:00031dd8       ??_C@_1M@CLGLEFBO@?$AAr?$AAo?$AA?9?$AAr?$AAo@ 0000000140092dd8     libucrt:lcidtoname_downlevel.obj
 0002:00031de8       ??_C@_1M@CEEDODME@?$AAr?$AAu?$AA?9?$AAr?$AAu@ 0000000140092de8     libucrt:lcidtoname_downlevel.obj
 0002:00031df8       ??_C@_1M@HPKKKMPP@?$AAs?$AAa?$AA?9?$AAi?$AAn@ 0000000140092df8     libucrt:lcidtoname_downlevel.obj
 0002:00031e08       ??_C@_1M@BKMAIGOJ@?$AAs?$AAe?$AA?9?$AAf?$AAi@ 0000000140092e08     libucrt:lcidtoname_downlevel.obj
 0002:00031e18       ??_C@_1M@NDPIFLFI@?$AAs?$AAe?$AA?9?$AAn?$AAo@ 0000000140092e18     libucrt:lcidtoname_downlevel.obj
 0002:00031e28       ??_C@_1M@DANKKHJ@?$AAs?$AAe?$AA?9?$AAs?$AAe@ 0000000140092e28     libucrt:lcidtoname_downlevel.obj
 0002:00031e38       ??_C@_1M@PNBLONPJ@?$AAs?$AAk?$AA?9?$AAs?$AAk@ 0000000140092e38     libucrt:lcidtoname_downlevel.obj
 0002:00031e48       ??_C@_1M@LFMODOAL@?$AAs?$AAl?$AA?9?$AAs?$AAi@ 0000000140092e48     libucrt:lcidtoname_downlevel.obj
 0002:00031e58       ??_C@_1O@DFKOMPG@?$AAs?$AAm?$AAa?$AA?9?$AAn?$AAo@ 0000000140092e58     libucrt:lcidtoname_downlevel.obj
 0002:00031e68       ??_C@_1O@NDKPBNNH@?$AAs?$AAm?$AAa?$AA?9?$AAs?$AAe@ 0000000140092e68     libucrt:lcidtoname_downlevel.obj
 0002:00031e78       ??_C@_1O@PLLKBHAB@?$AAs?$AAm?$AAj?$AA?9?$AAn?$AAo@ 0000000140092e78     libucrt:lcidtoname_downlevel.obj
 0002:00031e88       ??_C@_1O@CLEPOGCA@?$AAs?$AAm?$AAj?$AA?9?$AAs?$AAe@ 0000000140092e88     libucrt:lcidtoname_downlevel.obj
 0002:00031e98       ??_C@_1O@DLGJGKMK@?$AAs?$AAm?$AAn?$AA?9?$AAf?$AAi@ 0000000140092e98     libucrt:lcidtoname_downlevel.obj
 0002:00031ea8       ??_C@_1O@OJDJGAJC@?$AAs?$AAm?$AAs?$AA?9?$AAf?$AAi@ 0000000140092ea8     libucrt:lcidtoname_downlevel.obj
 0002:00031eb8       ??_C@_1M@BOFOGHPB@?$AAs?$AAq?$AA?9?$AAa?$AAl@ 0000000140092eb8     libucrt:lcidtoname_downlevel.obj
 0002:00031ec8       ??_C@_1BG@LJBBIPGB@?$AAs?$AAr?$AA?9?$AAb?$AAa?$AA?9?$AAc?$AAy?$AAr?$AAl@ 0000000140092ec8     libucrt:lcidtoname_downlevel.obj
 0002:00031ee0       ??_C@_1BG@JLBENFOE@?$AAs?$AAr?$AA?9?$AAb?$AAa?$AA?9?$AAl?$AAa?$AAt?$AAn@ 0000000140092ee0     libucrt:lcidtoname_downlevel.obj
 0002:00031ef8       ??_C@_1BG@KODPNHE@?$AAs?$AAr?$AA?9?$AAs?$AAp?$AA?9?$AAc?$AAy?$AAr?$AAl@ 0000000140092ef8     libucrt:lcidtoname_downlevel.obj
 0002:00031f10       ??_C@_1BG@CIOGKHPB@?$AAs?$AAr?$AA?9?$AAs?$AAp?$AA?9?$AAl?$AAa?$AAt?$AAn@ 0000000140092f10     libucrt:lcidtoname_downlevel.obj
 0002:00031f28       ??_C@_1M@NGFJLMAC@?$AAs?$AAv?$AA?9?$AAf?$AAi@ 0000000140092f28     libucrt:lcidtoname_downlevel.obj
 0002:00031f38       ??_C@_1M@MPJEJAJC@?$AAs?$AAv?$AA?9?$AAs?$AAe@ 0000000140092f38     libucrt:lcidtoname_downlevel.obj
 0002:00031f48       ??_C@_1M@MPNDHLFK@?$AAs?$AAw?$AA?9?$AAk?$AAe@ 0000000140092f48     libucrt:lcidtoname_downlevel.obj
 0002:00031f58       ??_C@_1O@KOHBJJI@?$AAs?$AAy?$AAr?$AA?9?$AAs?$AAy@ 0000000140092f58     libucrt:lcidtoname_downlevel.obj
 0002:00031f68       ??_C@_1M@LDCEFHA@?$AAt?$AAa?$AA?9?$AAi?$AAn@ 0000000140092f68     libucrt:lcidtoname_downlevel.obj
 0002:00031f78       ??_C@_1M@CNJOFAK@?$AAt?$AAe?$AA?9?$AAi?$AAn@ 0000000140092f78     libucrt:lcidtoname_downlevel.obj
 0002:00031f88       ??_C@_1M@GNAECACD@?$AAt?$AAh?$AA?9?$AAt?$AAh@ 0000000140092f88     libucrt:lcidtoname_downlevel.obj
 0002:00031f98       ??_C@_1M@CHBIHOJO@?$AAt?$AAn?$AA?9?$AAz?$AAa@ 0000000140092f98     libucrt:lcidtoname_downlevel.obj
 0002:00031fa8       ??_C@_1M@GCCMIGPJ@?$AAt?$AAr?$AA?9?$AAt?$AAr@ 0000000140092fa8     libucrt:lcidtoname_downlevel.obj
 0002:00031fb8       ??_C@_1M@CELMCNBK@?$AAt?$AAt?$AA?9?$AAr?$AAu@ 0000000140092fb8     libucrt:lcidtoname_downlevel.obj
 0002:00031fc8       ??_C@_1M@KLMCELGA@?$AAu?$AAk?$AA?9?$AAu?$AAa@ 0000000140092fc8     libucrt:lcidtoname_downlevel.obj
 0002:00031fd8       ??_C@_1M@EPAJJAJF@?$AAu?$AAr?$AA?9?$AAp?$AAk@ 0000000140092fd8     libucrt:lcidtoname_downlevel.obj
 0002:00031fe8       ??_C@_1BG@GEGPMCDJ@?$AAu?$AAz?$AA?9?$AAu?$AAz?$AA?9?$AAc?$AAy?$AAr?$AAl@ 0000000140092fe8     libucrt:lcidtoname_downlevel.obj
 0002:00032000       ??_C@_1BG@EGGKJILM@?$AAu?$AAz?$AA?9?$AAu?$AAz?$AA?9?$AAl?$AAa?$AAt?$AAn@ 0000000140093000     libucrt:lcidtoname_downlevel.obj
 0002:00032018       ??_C@_1M@GFOCLFF@?$AAv?$AAi?$AA?9?$AAv?$AAn@ 0000000140093018     libucrt:lcidtoname_downlevel.obj
 0002:00032028       ??_C@_1M@CPAMEDFI@?$AAx?$AAh?$AA?9?$AAz?$AAa@ 0000000140093028     libucrt:lcidtoname_downlevel.obj
 0002:00032038       ??_C@_1O@EBKIFIGN@?$AAz?$AAh?$AA?9?$AAc?$AAh?$AAs@ 0000000140093038     libucrt:lcidtoname_downlevel.obj
 0002:00032048       ??_C@_1O@NMHPGANE@?$AAz?$AAh?$AA?9?$AAc?$AAh?$AAt@ 0000000140093048     libucrt:lcidtoname_downlevel.obj
 0002:00032058       ??_C@_1M@LPINJOMC@?$AAz?$AAh?$AA?9?$AAc?$AAn@ 0000000140093058     libucrt:lcidtoname_downlevel.obj
 0002:00032068       ??_C@_1M@OCJEJODD@?$AAz?$AAh?$AA?9?$AAh?$AAk@ 0000000140093068     libucrt:lcidtoname_downlevel.obj
 0002:00032078       ??_C@_1M@DNDLJINH@?$AAz?$AAh?$AA?9?$AAm?$AAo@ 0000000140093078     libucrt:lcidtoname_downlevel.obj
 0002:00032088       ??_C@_1M@MBFDNDND@?$AAz?$AAh?$AA?9?$AAs?$AAg@ 0000000140093088     libucrt:lcidtoname_downlevel.obj
 0002:00032098       ??_C@_1M@IMEPLEPE@?$AAz?$AAh?$AA?9?$AAt?$AAw@ 0000000140093098     libucrt:lcidtoname_downlevel.obj
 0002:000320a8       ??_C@_1M@BBGHNHJP@?$AAz?$AAu?$AA?9?$AAz?$AAa@ 00000001400930a8     libucrt:lcidtoname_downlevel.obj
 0002:000320b4       ??_C@_01GBGANLPD@0@        00000001400930b4     libucrt:cfout.obj
 0002:000320b8       ??_C@_05DNEBIAHO@1?$CDINF@ 00000001400930b8     libucrt:cfout.obj
 0002:000320c0       ??_C@_06IMKFLFPG@1?$CDQNAN@ 00000001400930c0     libucrt:cfout.obj
 0002:000320c8       ??_C@_06PGGFOGJG@1?$CDSNAN@ 00000001400930c8     libucrt:cfout.obj
 0002:000320d0       ??_C@_05PHHOCPM@1?$CDIND@  00000001400930d0     libucrt:cfout.obj
 0002:000320d8       _days                      00000001400930d8     libucrt:days.obj
 0002:00032110       _lpdays                    0000000140093110     libucrt:days.obj
 0002:00032160       ??_C@_1BA@BALFACEM@?$AAC?$AAO?$AAN?$AAO?$AAU?$AAT?$AA$@ 0000000140093160     libucrt:initcon.obj
 0002:000323c0       __log10_256_lead           00000001400933c0     libucrt:log10_256_lead_tail_table.obj
 0002:00032bd0       __log10_256_tail           0000000140093bd0     libucrt:log10_256_lead_tail_table.obj
 0002:000333e0       __log_F_inv_qword          00000001400943e0     libucrt:log_f_inv_qword_table.obj
 0002:00033c00       _Asan_string_should_annotate 0000000140094c00     libcpmt:asan_noop.obj
 0002:00033c00       _Asan_string_should_annotate_default 0000000140094c00     libcpmt:asan_noop.obj
 0002:00033c01       _Asan_vector_should_annotate_default 0000000140094c01     libcpmt:asan_noop.obj
 0002:00033c10       _load_config_used          0000000140094c10     libcmt:loadcfg.obj
 0002:00033f00       _tls_used                  0000000140094f00     libcmt:tlssup.obj
 0002:00033f28       ??_R4type_info@@6B@        0000000140094f28     libcmt:std_type_info_static.obj
 0002:00033f50       ??_R3type_info@@8          0000000140094f50     libcmt:std_type_info_static.obj
 0002:00033f68       ??_R2type_info@@8          0000000140094f68     libcmt:std_type_info_static.obj
 0002:00033f78       ??_R1A@?0A@EA@type_info@@8 0000000140094f78     libcmt:std_type_info_static.obj
 0002:00033fa0       ??_R4_Locimp@locale@std@@6B@ 0000000140094fa0     libcpmt:locale0.obj
 0002:00033fc8       ??_R3_Locimp@locale@std@@8 0000000140094fc8     libcpmt:locale0.obj
 0002:00033fe0       ??_R2_Locimp@locale@std@@8 0000000140094fe0     libcpmt:locale0.obj
 0002:00034008       ??_R1A@?0A@EA@_Locimp@locale@std@@8 0000000140095008     libcpmt:locale0.obj
 0002:00034030       ??_R4logic_error@std@@6B@  0000000140095030     libcpmt:xthrow.obj
 0002:00034058       ??_R3logic_error@std@@8    0000000140095058     libcpmt:xthrow.obj
 0002:00034070       ??_R2logic_error@std@@8    0000000140095070     libcpmt:xthrow.obj
 0002:00034088       ??_R1A@?0A@EA@logic_error@std@@8 0000000140095088     libcpmt:xthrow.obj
 0002:000340b0       ??_R4length_error@std@@6B@ 00000001400950b0     libcpmt:xthrow.obj
 0002:000340d8       ??_R3length_error@std@@8   00000001400950d8     libcpmt:xthrow.obj
 0002:000340f0       ??_R2length_error@std@@8   00000001400950f0     libcpmt:xthrow.obj
 0002:00034110       ??_R1A@?0A@EA@length_error@std@@8 0000000140095110     libcpmt:xthrow.obj
 0002:00034138       ??_R4out_of_range@std@@6B@ 0000000140095138     libcpmt:xthrow.obj
 0002:00034160       ??_R3out_of_range@std@@8   0000000140095160     libcpmt:xthrow.obj
 0002:00034178       ??_R2out_of_range@std@@8   0000000140095178     libcpmt:xthrow.obj
 0002:00034198       ??_R1A@?0A@EA@out_of_range@std@@8 0000000140095198     libcpmt:xthrow.obj
 0002:000341c0       ??_R4bad_exception@std@@6B@ 00000001400951c0     libvcruntime:frame.obj
 0002:000341e8       ??_R3bad_exception@std@@8  00000001400951e8     libvcruntime:frame.obj
 0002:00034200       ??_R2bad_exception@std@@8  0000000140095200     libvcruntime:frame.obj
 0002:00034218       ??_R1A@?0A@EA@bad_exception@std@@8 0000000140095218     libvcruntime:frame.obj
 0002:0003423c       __volatile_metadata        000000014009523c     <linker-defined>
 0002:00034a90       __rtc_iaa                  0000000140095a90     libcmt:initsect.obj
 0002:00034a98       __rtc_izz                  0000000140095a98     libcmt:initsect.obj
 0002:00034aa0       __rtc_taa                  0000000140095aa0     libcmt:initsect.obj
 0002:00034aa8       __rtc_tzz                  0000000140095aa8     libcmt:initsect.obj
 0002:00034ab0       _tls_start                 0000000140095ab0     libcmt:tlssup.obj
 0002:00034ab4       _Init_thread_epoch         0000000140095ab4     libcmt:thread_safe_statics.obj
 0002:00034ab8       _tls_end                   0000000140095ab8     libcmt:tlssup.obj
 0002:00035120       _CT??_R0PEAD@88            0000000140096120     CharBuf-9d1648.o
 0002:00035140       _CT??_R0PEAX@88            0000000140096140     CharBuf-9d1648.o
 0002:00035160       _CTA2PEAD                  0000000140096160     CharBuf-9d1648.o
 0002:00035170       _TIC2PEAD                  0000000140096170     CharBuf-9d1648.o
 0002:00035520       _CT??_R0?AVbad_array_new_length@std@@@8??0bad_array_new_length@std@@QEAA@AEBV01@@Z24 0000000140096520     FileIO-72ff47.o
 0002:00035540       _CT??_R0?AVbad_alloc@std@@@8??0bad_alloc@std@@QEAA@AEBV01@@Z24 0000000140096540     FileIO-72ff47.o
 0002:00035560       _CT??_R0?AVexception@std@@@8??0exception@std@@QEAA@AEBV01@@Z24 0000000140096560     FileIO-72ff47.o
 0002:00035580       _CTA3?AVbad_array_new_length@std@@ 0000000140096580     FileIO-72ff47.o
 0002:00035590       _TI3?AVbad_array_new_length@std@@ 0000000140096590     FileIO-72ff47.o
 0002:000355a0       _CT??_R0?AVfailure@ios_base@std@@@8??0failure@ios_base@std@@QEAA@AEBV012@@Z40 00000001400965a0     FileIO-72ff47.o
 0002:000355c0       _CT??_R0?AVsystem_error@std@@@8??0system_error@std@@QEAA@AEBV01@@Z40 00000001400965c0     FileIO-72ff47.o
 0002:000355e0       _CT??_R0?AV_System_error@std@@@8??0_System_error@std@@QEAA@AEBV01@@Z40 00000001400965e0     FileIO-72ff47.o
 0002:00035600       _CT??_R0?AVruntime_error@std@@@8??0runtime_error@std@@QEAA@AEBV01@@Z24 0000000140096600     FileIO-72ff47.o
 0002:00035620       _CTA5?AVfailure@ios_base@std@@ 0000000140096620     FileIO-72ff47.o
 0002:00035638       _TI5?AVfailure@ios_base@std@@ 0000000140096638     FileIO-72ff47.o
 0002:00041b48       _TI2?AVbad_alloc@std@@     00000001400a2b48     libcmt:throw_bad_alloc.obj
 0002:00041b68       _CTA2?AVbad_alloc@std@@    00000001400a2b68     libcmt:throw_bad_alloc.obj
 0002:00041b80       _CT??_R0?AVlogic_error@std@@@8??0logic_error@std@@QEAA@AEBV01@@Z24 00000001400a2b80     libcpmt:xthrow.obj
 0002:00041ba8       _TI3?AVlength_error@std@@  00000001400a2ba8     libcpmt:xthrow.obj
 0002:00041bc8       _CTA3?AVlength_error@std@@ 00000001400a2bc8     libcpmt:xthrow.obj
 0002:00041be8       _CT??_R0?AVlength_error@std@@@8??0length_error@std@@QEAA@AEBV01@@Z24 00000001400a2be8     libcpmt:xthrow.obj
 0002:00041c10       _TI3?AVout_of_range@std@@  00000001400a2c10     libcpmt:xthrow.obj
 0002:00041c30       _CTA3?AVout_of_range@std@@ 00000001400a2c30     libcpmt:xthrow.obj
 0002:00041c50       _CT??_R0?AVout_of_range@std@@@8??0out_of_range@std@@QEAA@AEBV01@@Z24 00000001400a2c50     libcpmt:xthrow.obj
 0002:00041c78       _TI2?AVruntime_error@std@@ 00000001400a2c78     libcpmt:xthrow.obj
 0002:00041c98       _CTA2?AVruntime_error@std@@ 00000001400a2c98     libcpmt:xthrow.obj
 0002:00041cb0       _TI2?AVbad_exception@std@@ 00000001400a2cb0     libvcruntime:frame.obj
 0002:00041cd0       _CTA2?AVbad_exception@std@@ 00000001400a2cd0     libvcruntime:frame.obj
 0002:00041ce8       _CT??_R0?AVbad_exception@std@@@8??0bad_exception@std@@QEAA@AEBV01@@Z24 00000001400a2ce8     libvcruntime:frame.obj
 0002:00041d0c       __IMPORT_DESCRIPTOR_WS2_32 00000001400a2d0c     Ws2_32:WS2_32.dll
 0002:00041d20       __IMPORT_DESCRIPTOR_KERNEL32 00000001400a2d20     kernel32:KERNEL32.dll
 0002:00041d34       __NULL_IMPORT_DESCRIPTOR   00000001400a2d34     Ws2_32:WS2_32.dll
 0003:00000000       ??_R0PEAD@8                00000001400a4000     MainApp-c3b5ae.o
 0003:00000020       ??_R0PEAX@8                00000001400a4020     CharBuf-9d1648.o
 0003:00000040       ??_R0?AV?$basic_ofstream@DU?$char_traits@D@std@@@std@@@8 00000001400a4040     FileIO-72ff47.o
 0003:00000090       ??_R0?AV?$basic_ostream@DU?$char_traits@D@std@@@std@@@8 00000001400a4090     FileIO-72ff47.o
 0003:000000e0       ??_R0?AV?$basic_ios@DU?$char_traits@D@std@@@std@@@8 00000001400a40e0     FileIO-72ff47.o
 0003:00000120       ??_R0?AVios_base@std@@@8   00000001400a4120     FileIO-72ff47.o
 0003:00000150       ??_R0?AV?$_Iosb@H@std@@@8  00000001400a4150     FileIO-72ff47.o
 0003:00000180       ??_R0?AV?$basic_filebuf@DU?$char_traits@D@std@@@std@@@8 00000001400a4180     FileIO-72ff47.o
 0003:000001d0       ??_R0?AV?$basic_streambuf@DU?$char_traits@D@std@@@std@@@8 00000001400a41d0     FileIO-72ff47.o
 0003:00000220       ??_R0?AVbad_array_new_length@std@@@8 00000001400a4220     FileIO-72ff47.o
 0003:00000250       ??_R0?AVbad_alloc@std@@@8  00000001400a4250     FileIO-72ff47.o
 0003:00000280       ??_R0?AVexception@std@@@8  00000001400a4280     FileIO-72ff47.o
 0003:000002b0       ??_R0?AV?$codecvt@DDU_Mbstatet@@@std@@@8 00000001400a42b0     FileIO-72ff47.o
 0003:000002f0       ??_R0?AVcodecvt_base@std@@@8 00000001400a42f0     FileIO-72ff47.o
 0003:00000320       ??_R0?AVfacet@locale@std@@@8 00000001400a4320     FileIO-72ff47.o
 0003:00000350       ??_R0?AV_Facet_base@std@@@8 00000001400a4350     FileIO-72ff47.o
 0003:00000380       ??_R0?AU_Crt_new_delete@std@@@8 00000001400a4380     FileIO-72ff47.o
 0003:000003b0       ??_R0?AV?$basic_ifstream@DU?$char_traits@D@std@@@std@@@8 00000001400a43b0     FileIO-72ff47.o
 0003:00000400       ??_R0?AV?$basic_istream@DU?$char_traits@D@std@@@std@@@8 00000001400a4400     FileIO-72ff47.o
 0003:00000450       ??_R0?AVfailure@ios_base@std@@@8 00000001400a4450     FileIO-72ff47.o
 0003:00000480       ??_R0?AVsystem_error@std@@@8 00000001400a4480     FileIO-72ff47.o
 0003:000004b0       ??_R0?AV_System_error@std@@@8 00000001400a44b0     FileIO-72ff47.o
 0003:000004e0       ??_R0?AVruntime_error@std@@@8 00000001400a44e0     FileIO-72ff47.o
 0003:00000508       ?_Static@?1???$_Immortalize_memcpy_image@V_Iostream_error_category2@std@@@std@@YAAEBV_Iostream_error_category2@1@XZ@4V21@A 00000001400a4508     FileIO-72ff47.o
 0003:00000520       ??_R0?AV_Iostream_error_category2@std@@@8 00000001400a4520     FileIO-72ff47.o
 0003:00000560       ??_R0?AVerror_category@std@@@8 00000001400a4560     FileIO-72ff47.o
 0003:00000590       ??_R0?AV?$ctype@D@std@@@8  00000001400a4590     FileIO-72ff47.o
 0003:000005c0       ??_R0?AUctype_base@std@@@8 00000001400a45c0     FileIO-72ff47.o
 0003:001005f0       ??_R0?AVSrvClient@@@8      00000001401a45f0     SrvClient-4b1a7e.o
 0003:00100610       ??_R0?AVSrvClTls@@@8       00000001401a4610     SrvClTls-9ff770.o
 0003:00100630       _Init_global_epoch         00000001401a4630     libcmt:thread_safe_statics.obj
 0003:00100634       __scrt_native_dllmain_reason 00000001401a4634     libcmt:utility.obj
 0003:00100638       _fltused                   00000001401a4638     libcmt:fltused.obj
 0003:00100640       __isa_available            00000001401a4640     libcmt:cpu_disp.obj
 0003:00100644       __isa_enabled              00000001401a4644     libcmt:cpu_disp.obj
 0003:00100648       __memset_fast_string_threshold 00000001401a4648     libcmt:cpu_disp.obj
 0003:00100650       __memset_nt_threshold      00000001401a4650     libcmt:cpu_disp.obj
 0003:00100658       __scrt_default_matherr     00000001401a4658     libcmt:matherr.obj
 0003:00100680       __security_cookie          00000001401a4680     libcmt:gs_cookie.obj
 0003:001006c0       __security_cookie_complement 00000001401a46c0     libcmt:gs_cookie.obj
 0003:001006c8       ?_Sync@ios_base@std@@0_NA  00000001401a46c8     libcpmt:ios.obj
 0003:00100740       _iob                       00000001401a4740     libucrt:_file.obj
 0003:00100858       _pctype                    00000001401a4858     libucrt:ctype.obj
 0003:00100860       _pwctype                   00000001401a4860     libucrt:ctype.obj
 0003:00100870       __acrt_lconv_c             00000001401a4870     libucrt:localeconv.obj
 0003:00100908       __acrt_lconv               00000001401a4908     libucrt:localeconv.obj
 0003:00100910       __acrt_lconv_static_decimal 00000001401a4910     libucrt:localeconv.obj
 0003:00100914       __acrt_lconv_static_W_decimal 00000001401a4914     libucrt:localeconv.obj
 0003:00100918       __abort_behavior           00000001401a4918     libucrt:abort.obj
 0003:00100930       __acrt_initial_locale_data 00000001401a4930     libucrt:nlsdata.obj
 0003:00100a88       __acrt_initial_locale_pointers 00000001401a4a88     libucrt:nlsdata.obj
 0003:00100a98       __acrt_wide_c_locale_string 00000001401a4a98     libucrt:nlsdata.obj
 0003:00100a9c       __mb_cur_max               00000001401a4a9c     libucrt:nlsdata.obj
 0003:00100aa0       __badioinfo                00000001401a4aa0     libucrt:ioinit.obj
 0003:00100af0       _lookuptrailbytes          00000001401a4af0     libucrt:read.obj
 0003:00100db0       __acrt_initial_multibyte_data 00000001401a4db0     libucrt:mbctype.obj
 0003:001012f0       __globallocalestatus       00000001401a52f0     libucrt:glstatus.obj
 0003:00101320       ??_R0?AVlogic_error@std@@@8 00000001401a5320     libcpmt:xthrow.obj
 0003:00101348       ??_R0?AVlength_error@std@@@8 00000001401a5348     libcpmt:xthrow.obj
 0003:00101370       ??_R0?AVout_of_range@std@@@8 00000001401a5370     libcpmt:xthrow.obj
 0003:00101398       ??_R0?AVbad_exception@std@@@8 00000001401a5398     libvcruntime:frame.obj
 0003:001013c0       ??_R0?AVtype_info@@@8      00000001401a53c0     libcmt:std_type_info_static.obj
 0003:001013e0       ??_R0?AV_Locimp@locale@std@@@8 00000001401a53e0     libcpmt:locale0.obj
 0003:00101410       ?id@?$codecvt@DDU_Mbstatet@@@std@@2V0locale@2@A 00000001401a5410     FileIO-72ff47.o
 0003:00101418       ?_Stinit@?1??_Init@?$basic_filebuf@DU?$char_traits@D@std@@@std@@IEAAXPEAU_iobuf@@W4_Initfl@23@@Z@4U_Mbstatet@@A 00000001401a5418     FileIO-72ff47.o
 0003:00101420       ?_Psave@?$_Facetptr@V?$codecvt@DDU_Mbstatet@@@std@@@std@@2PEBVfacet@locale@2@EB 00000001401a5420     FileIO-72ff47.o
 0003:00101428       ?$TSS0@?1???$_Immortalize_memcpy_image@V_Iostream_error_category2@std@@@std@@YAAEBV_Iostream_error_category2@0@XZ@4HA 00000001401a5428     FileIO-72ff47.o
 0003:00101430       ?_Psave@?$_Facetptr@V?$ctype@D@std@@@std@@2PEBVfacet@locale@2@EB 00000001401a5430     FileIO-72ff47.o
 0003:00101438       ?_OptionsStorage@?1??__local_stdio_printf_options@@9@4_KA 00000001401a5438     StIO-57413d.o
 0003:00101444       _tls_index                 00000001401a5444     libcmt:tlssup.obj
 0003:00101458       __scrt_current_native_startup_state 00000001401a5458     libcmt:utility.obj
 0003:00101460       __scrt_native_startup_lock 00000001401a5460     libcmt:utility.obj
 0003:001014a0       __favor                    00000001401a54a0     libcmt:cpu_disp.obj
 0003:001014a4       __scrt_debugger_hook_flag  00000001401a54a4     libcmt:utility_desktop.obj
 0003:001014b0       ?__type_info_root_node@@3U__type_info_node@@A 00000001401a54b0     libcmt:tncleanup.obj
 0003:001014c0       ?_OptionsStorage@?1??__local_stdio_scanf_options@@9@4_KA 00000001401a54c0     libcmt:default_local_stdio_options.obj
 0003:001014d0       ?_Index@ios_base@std@@0HA  00000001401a54d0     libcpmt:ios.obj
 0003:00101540       ?_Id_cnt@id@locale@std@@0HA 00000001401a5540     libcpmt:locale0.obj
 0003:00101548       ?_Clocptr@_Locimp@locale@std@@0PEAV123@EA 00000001401a5548     libcpmt:locale0.obj
 0003:00101550       ?id@?$ctype@_W@std@@2V0locale@2@A 00000001401a5550     libcpmt:locale0.obj
 0003:00101558       ?id@?$ctype@D@std@@2V0locale@2@A 00000001401a5558     libcpmt:locale0.obj
 0003:00101560       ?id@?$codecvt@GDU_Mbstatet@@@std@@2V0locale@2@A 00000001401a5560     libcpmt:locale0.obj
 0003:00101568       ?id@?$ctype@G@std@@2V0locale@2@A 00000001401a5568     libcpmt:locale0.obj
 0003:00101580       ?id@?$codecvt@_WDU_Mbstatet@@@std@@2V0locale@2@A 00000001401a5580     libcpmt:locale0.obj
 0003:00101708       ?id@?$num_get@DV?$istreambuf_iterator@DU?$char_traits@D@std@@@std@@@std@@2V0locale@2@A 00000001401a5708     libcpmt:locale.obj
 0003:00101710       ?id@?$num_put@DV?$ostreambuf_iterator@DU?$char_traits@D@std@@@std@@@std@@2V0locale@2@A 00000001401a5710     libcpmt:locale.obj
 0003:00101718       ?id@?$numpunct@D@std@@2V0locale@2@A 00000001401a5718     libcpmt:locale.obj
 0003:00101720       ?_Ptr_cin@std@@3PEAV?$basic_istream@DU?$char_traits@D@std@@@1@EA 00000001401a5720     libcpmt:iosptrs.obj
 0003:00101728       ?_Ptr_cout@std@@3PEAV?$basic_ostream@DU?$char_traits@D@std@@@1@EA 00000001401a5728     libcpmt:iosptrs.obj
 0003:00101730       ?_Ptr_cerr@std@@3PEAV?$basic_ostream@DU?$char_traits@D@std@@@1@EA 00000001401a5730     libcpmt:iosptrs.obj
 0003:00101738       ?_Ptr_clog@std@@3PEAV?$basic_ostream@DU?$char_traits@D@std@@@1@EA 00000001401a5738     libcpmt:iosptrs.obj
 0003:00101740       ?_Ptr_wcin@std@@3PEAV?$basic_istream@_WU?$char_traits@_W@std@@@1@EA 00000001401a5740     libcpmt:iosptrs.obj
 0003:00101748       ?_Ptr_wcout@std@@3PEAV?$basic_ostream@_WU?$char_traits@_W@std@@@1@EA 00000001401a5748     libcpmt:iosptrs.obj
 0003:00101750       ?_Ptr_wcerr@std@@3PEAV?$basic_ostream@_WU?$char_traits@_W@std@@@1@EA 00000001401a5750     libcpmt:iosptrs.obj
 0003:00101758       ?_Ptr_wclog@std@@3PEAV?$basic_ostream@_WU?$char_traits@_W@std@@@1@EA 00000001401a5758     libcpmt:iosptrs.obj
 0003:001017d8       ?id@?$time_put@_WV?$ostreambuf_iterator@_WU?$char_traits@_W@std@@@std@@@std@@2V0locale@2@A 00000001401a57d8     libcpmt:wlocale.obj
 0003:001017e0       ?id@?$num_get@_WV?$istreambuf_iterator@_WU?$char_traits@_W@std@@@std@@@std@@2V0locale@2@A 00000001401a57e0     libcpmt:wlocale.obj
 0003:001017e8       ?id@?$num_put@_WV?$ostreambuf_iterator@_WU?$char_traits@_W@std@@@std@@@std@@2V0locale@2@A 00000001401a57e8     libcpmt:wlocale.obj
 0003:001017f0       ?id@?$numpunct@_W@std@@2V0locale@2@A 00000001401a57f0     libcpmt:wlocale.obj
 0003:001017f8       ?id@?$collate@_W@std@@2V0locale@2@A 00000001401a57f8     libcpmt:wlocale.obj
 0003:00101800       ?id@?$messages@_W@std@@2V0locale@2@A 00000001401a5800     libcpmt:wlocale.obj
 0003:00101808       ?id@?$money_get@_WV?$istreambuf_iterator@_WU?$char_traits@_W@std@@@std@@@std@@2V0locale@2@A 00000001401a5808     libcpmt:wlocale.obj
 0003:00101810       ?id@?$money_put@_WV?$ostreambuf_iterator@_WU?$char_traits@_W@std@@@std@@@std@@2V0locale@2@A 00000001401a5810     libcpmt:wlocale.obj
 0003:00101818       ?id@?$moneypunct@_W$0A@@std@@2V0locale@2@A 00000001401a5818     libcpmt:wlocale.obj
 0003:00101820       ?id@?$moneypunct@_W$00@std@@2V0locale@2@A 00000001401a5820     libcpmt:wlocale.obj
 0003:00101828       ?id@?$time_get@_WV?$istreambuf_iterator@_WU?$char_traits@_W@std@@@std@@@std@@2V0locale@2@A 00000001401a5828     libcpmt:wlocale.obj
 0003:00101830       ?id@?$num_get@GV?$istreambuf_iterator@GU?$char_traits@G@std@@@std@@@std@@2V0locale@2@A 00000001401a5830     libcpmt:wlocale.obj
 0003:00101838       ?id@?$num_put@GV?$ostreambuf_iterator@GU?$char_traits@G@std@@@std@@@std@@2V0locale@2@A 00000001401a5838     libcpmt:wlocale.obj
 0003:00101840       ?id@?$numpunct@G@std@@2V0locale@2@A 00000001401a5840     libcpmt:wlocale.obj
 0003:00101848       ?id@?$collate@G@std@@2V0locale@2@A 00000001401a5848     libcpmt:wlocale.obj
 0003:00101850       ?id@?$messages@G@std@@2V0locale@2@A 00000001401a5850     libcpmt:wlocale.obj
 0003:00101858       ?id@?$money_get@GV?$istreambuf_iterator@GU?$char_traits@G@std@@@std@@@std@@2V0locale@2@A 00000001401a5858     libcpmt:wlocale.obj
 0003:00101860       ?id@?$money_put@GV?$ostreambuf_iterator@GU?$char_traits@G@std@@@std@@@std@@2V0locale@2@A 00000001401a5860     libcpmt:wlocale.obj
 0003:00101868       ?id@?$moneypunct@G$0A@@std@@2V0locale@2@A 00000001401a5868     libcpmt:wlocale.obj
 0003:00101870       ?id@?$moneypunct@G$00@std@@2V0locale@2@A 00000001401a5870     libcpmt:wlocale.obj
 0003:00101878       ?id@?$time_get@GV?$istreambuf_iterator@GU?$char_traits@G@std@@@std@@@std@@2V0locale@2@A 00000001401a5878     libcpmt:wlocale.obj
 0003:00101880       ?id@?$time_put@GV?$ostreambuf_iterator@GU?$char_traits@G@std@@@std@@@std@@2V0locale@2@A 00000001401a5880     libcpmt:wlocale.obj
 0003:00101888       ?id@?$collate@D@std@@2V0locale@2@A 00000001401a5888     libcpmt:xlocale.obj
 0003:00101890       ?id@?$messages@D@std@@2V0locale@2@A 00000001401a5890     libcpmt:xlocale.obj
 0003:00101898       ?id@?$money_get@DV?$istreambuf_iterator@DU?$char_traits@D@std@@@std@@@std@@2V0locale@2@A 00000001401a5898     libcpmt:xlocale.obj
 0003:001018a0       ?id@?$money_put@DV?$ostreambuf_iterator@DU?$char_traits@D@std@@@std@@@std@@2V0locale@2@A 00000001401a58a0     libcpmt:xlocale.obj
 0003:001018a8       ?id@?$moneypunct@D$0A@@std@@2V0locale@2@A 00000001401a58a8     libcpmt:xlocale.obj
 0003:001018b0       ?id@?$moneypunct@D$00@std@@2V0locale@2@A 00000001401a58b0     libcpmt:xlocale.obj
 0003:001018b8       ?id@?$time_get@DV?$istreambuf_iterator@DU?$char_traits@D@std@@@std@@@std@@2V0locale@2@A 00000001401a58b8     libcpmt:xlocale.obj
 0003:001018c0       ?id@?$time_put@DV?$ostreambuf_iterator@DU?$char_traits@D@std@@@std@@@std@@2V0locale@2@A 00000001401a58c0     libcpmt:xlocale.obj
 0003:001018c8       ?__WinRTOutOfMemoryExceptionCallback@@3P6APEAXXZEA 00000001401a58c8     libvcruntime:ehhelpers.obj
 0003:00101950       __pPurecall                00000001401a5950     libvcruntime:purevirt_data.obj
 0003:00101988       ?pArgList@UnDecorator@@0PEAVReplicator@@EA 00000001401a5988     libvcruntime:undname.obj
 0003:00101990       ?pZNameList@UnDecorator@@0PEAVReplicator@@EA 00000001401a5990     libvcruntime:undname.obj
 0003:00101998       ?pTemplateArgList@UnDecorator@@0PEAVReplicator@@EA 00000001401a5998     libvcruntime:undname.obj
 0003:001019a0       ?gName@UnDecorator@@0PEBDEB 00000001401a59a0     libvcruntime:undname.obj
 0003:001019a8       ?name@UnDecorator@@0PEBDEB 00000001401a59a8     libvcruntime:undname.obj
 0003:001019b0       ?disableFlags@UnDecorator@@0KA 00000001401a59b0     libvcruntime:undname.obj
 0003:001019b4       ?fExplicitTemplateParams@UnDecorator@@0_NA 00000001401a59b4     libvcruntime:undname.obj
 0003:001019b5       ?fGetTemplateArgumentList@UnDecorator@@0_NA 00000001401a59b5     libvcruntime:undname.obj
 0003:001019b8       ?m_pGetParameter@UnDecorator@@0P6APEADJ@ZEA 00000001401a59b8     libvcruntime:undname.obj
 0003:001019c0       ?m_CHPENameOffset@UnDecorator@@0KA 00000001401a59c0     libvcruntime:undname.obj
 0003:001019c4       ?m_recursionLevel@UnDecorator@@0KA 00000001401a59c4     libvcruntime:undname.obj
 0003:00101a30       _nstream                   00000001401a5a30     libucrt:_file.obj
 0003:00101a38       __piob                     00000001401a5a38     libucrt:_file.obj
 0003:00101a40       _cflush                    00000001401a5a40     libucrt:_file.obj
 0003:00101ba8       _environ_table             00000001401a5ba8     libucrt:environment_initialization.obj
 0003:00101bb0       _wenviron_table            00000001401a5bb0     libucrt:environment_initialization.obj
 0003:00101bb8       __dcrt_initial_wide_environment 00000001401a5bb8     libucrt:environment_initialization.obj
 0003:00101bc0       __dcrt_initial_narrow_environment 00000001401a5bc0     libucrt:environment_initialization.obj
 0003:00101bc8       __acrt_atexit_table        00000001401a5bc8     libucrt:onexit.obj
 0003:00101be0       __acrt_at_quick_exit_table 00000001401a5be0     libucrt:onexit.obj
 0003:00101c08       _pgmptr                    00000001401a5c08     libucrt:argv_data.obj
 0003:00101c10       __argc                     00000001401a5c10     libucrt:argv_data.obj
 0003:00101c18       __argv                     00000001401a5c18     libucrt:argv_data.obj
 0003:00101c20       __wargv                    00000001401a5c20     libucrt:argv_data.obj
 0003:00101c28       _acmdln                    00000001401a5c28     libucrt:argv_data.obj
 0003:00101c30       _wcmdln                    00000001401a5c30     libucrt:argv_data.obj
 0003:00101c38       __acrt_locale_changed_data 00000001401a5c38     libucrt:wsetlocale.obj
 0003:00101c40       _commode                   00000001401a5c40     libucrt:ncommode.obj
 0003:00101e84       __acrt_lconv_static_null   00000001401a5e84     libucrt:localeconv.obj
 0003:00101e88       __acrt_lconv_static_W_null 00000001401a5e88     libucrt:localeconv.obj
 0003:00101e90       __acrt_stdout_buffer       00000001401a5e90     libucrt:_sftbuf.obj
 0003:00101e98       __acrt_stderr_buffer       00000001401a5e98     libucrt:_sftbuf.obj
 0003:00101ea0       __acrt_current_locale_data 00000001401a5ea0     libucrt:nlsdata.obj
 0003:00102060       __pioinfo                  00000001401a6060     libucrt:ioinit.obj
 0003:00102460       _nhandle                   00000001401a6460     libucrt:ioinit.obj
 0003:00102478       ?_timezone@@3V?$dual_state_global@J@__crt_state_management@@A 00000001401a6478     libucrt:timeset.obj
 0003:0010247c       ?_daylight@@3V?$dual_state_global@H@__crt_state_management@@A 00000001401a647c     libucrt:timeset.obj
 0003:00102480       ?_dstbias@@3V?$dual_state_global@J@__crt_state_management@@A 00000001401a6480     libucrt:timeset.obj
 0003:00102560       _mbctype                   00000001401a6560     libucrt:mbctype.obj
 0003:00102568       _mbcasemap                 00000001401a6568     libucrt:mbctype.obj
 0003:00102570       __acrt_current_multibyte_data 00000001401a6570     libucrt:mbctype.obj
 0003:00102580       __acrt_heap                00000001401a6580     libucrt:heap_handle.obj
 0003:00102588       _fmode                     00000001401a6588     libucrt:txtmode.obj
 0003:001025a0       _umaskval                  00000001401a65a0     libucrt:umask.obj
 0003:001025a4       __fma3_is_available        00000001401a65a4     libucrt:fma3_available.obj
 0003:001025a8       __use_fma3_lib             00000001401a65a8     libucrt:fma3_available.obj
 0003:00102b20       __dyn_tls_dtor_callback    00000001401a6b20     <common>
 0003:00102b28       __dyn_tls_init_callback    00000001401a6b28     <common>
 0003:00102b30       __scrt_ucrt_dll_is_in_use  00000001401a6b30     <common>

 entry point at        0001:000397f4

 Static symbols

 0001:00000080       ?dtor$4@?0?main@4HA        0000000140001080 f   main-205501.o
 0001:00000150       ?dtor$5@?0???0MainApp@@QEAA@XZ@4HA 0000000140001150 f i main-205501.o
 0001:00000180       ?dtor$8@?0???0MainApp@@QEAA@XZ@4HA 0000000140001180 f i main-205501.o
 0001:000001a0       ?dtor$9@?0???0MainApp@@QEAA@XZ@4HA 00000001400011a0 f i main-205501.o
 0001:000001d0       ?dtor$12@?0???0MainApp@@QEAA@XZ@4HA 00000001400011d0 f i main-205501.o
 0001:000002e5       $ehgcr_0_14                00000001400012e5     MainApp-c3b5ae.o
 0001:000002f0       ?catch$15@?0??mainLoop@MainApp@@QEAAHXZ@4HA 00000001400012f0 f   MainApp-c3b5ae.o
 0001:00000340       ?catch$16@?0??mainLoop@MainApp@@QEAAHXZ@4HA 0000000140001340 f   MainApp-c3b5ae.o
 0001:00000420       ?dtor$2@?0???0CharBuf@@QEAA@PEBD@Z@4HA 0000000140001420 f   CharBuf-9d1648.o
 0001:00000980       ?dtor$60@?0??setFromInt64@CharBuf@@QEAAX_J@Z@4HA 0000000140001980 f   CharBuf-9d1648.o
 0001:00000d30       ?dtor$52@?0??setFromUint64@CharBuf@@QEAAX_K@Z@4HA 0000000140001d30 f   CharBuf-9d1648.o
 0001:00000dd0       ?dtor$2@?0???0CharBuf@@QEAA@AEBV0@@Z@4HA 0000000140001dd0 f   CharBuf-9d1648.o
 0001:000024e0       ?dtor$35@?0??reverse@CharBuf@@QEAAXXZ@4HA 00000001400034e0 f   CharBuf-9d1648.o
 0001:00002a40       ?dtor$104@?0??setFromHexTo256@CharBuf@@QEAAXAEBV1@@Z@4HA 0000000140003a40 f   CharBuf-9d1648.o
 0001:00002a80       ?dtor$105@?0??setFromHexTo256@CharBuf@@QEAAXAEBV1@@Z@4HA 0000000140003a80 f   CharBuf-9d1648.o
 0001:00002ffd       $ehgcr_0_15                0000000140003ffd     FileIO-72ff47.o
 0001:00003090       ?dtor$10@?0??writeAll@FileIO@@SA_NPEBDAEBVCharBuf@@@Z@4HA 0000000140004090 f   FileIO-72ff47.o
 0001:000030b0       ?dtor$16@?0??writeAll@FileIO@@SA_NPEBDAEBVCharBuf@@@Z@4HA 00000001400040b0 f   FileIO-72ff47.o
 0001:000030e0       ?dtor$17@?0??writeAll@FileIO@@SA_NPEBDAEBVCharBuf@@@Z@4HA 00000001400040e0 f   FileIO-72ff47.o
 0001:00003110       ?catch$20@?0??writeAll@FileIO@@SA_NPEBDAEBVCharBuf@@@Z@4HA 0000000140004110 f   FileIO-72ff47.o
 0001:00003358       $ehgcr_4_27                0000000140004358     FileIO-72ff47.o
 0001:00003450       ?dtor$36@?0??readAll@FileIO@@SA_NPEBDAEAVCharBuf@@@Z@4HA 0000000140004450 f   FileIO-72ff47.o
 0001:00003470       ?dtor$37@?0??readAll@FileIO@@SA_NPEBDAEAVCharBuf@@@Z@4HA 0000000140004470 f   FileIO-72ff47.o
 0001:000034a0       ?dtor$38@?0??readAll@FileIO@@SA_NPEBDAEAVCharBuf@@@Z@4HA 00000001400044a0 f   FileIO-72ff47.o
 0001:000034d0       ?catch$39@?0??readAll@FileIO@@SA_NPEBDAEAVCharBuf@@@Z@4HA 00000001400044d0 f   FileIO-72ff47.o
 0001:000035a2       $ehgcr_11_3                00000001400045a2     FileIO-72ff47.o
 0001:000035c0       ?dtor$4@?0??exists@FileIO@@SA_NPEBD@Z@4HA 00000001400045c0 f   FileIO-72ff47.o
 0001:000035e0       ?catch$5@?0??exists@FileIO@@SA_NPEBD@Z@4HA 00000001400045e0 f   FileIO-72ff47.o
 0001:000036b0       ?dtor$4@?0??copy@FileIO@@SA_NPEBD0@Z@4HA 00000001400046b0 f   FileIO-72ff47.o
 0001:000036e0       ?dtor$12@?0??copy@FileIO@@SA_NPEBD0@Z@4HA 00000001400046e0 f   FileIO-72ff47.o
 0001:00003710       ??__F_Static@?1???$_Immortalize_memcpy_image@V_Iostream_error_category2@std@@@std@@YAAEBV_Iostream_error_category2@1@XZ@YAXXZ 0000000140004710 f   FileIO-72ff47.o
 0001:000039d0       ?dtor$13@?0???0?$basic_ofstream@DU?$char_traits@D@std@@@std@@QEAA@PEBDHH@Z@4HA 00000001400049d0 f i FileIO-72ff47.o
 0001:00003a10       ?dtor$14@?0???0?$basic_ofstream@DU?$char_traits@D@std@@@std@@QEAA@PEBDHH@Z@4HA 0000000140004a10 f i FileIO-72ff47.o
 0001:00003a60       ?dtor$17@?0???0?$basic_ofstream@DU?$char_traits@D@std@@@std@@QEAA@PEBDHH@Z@4HA 0000000140004a60 f i FileIO-72ff47.o
 0001:00003b49       $ehgcr_2_16                0000000140004b49     FileIO-72ff47.o
 0001:00003c20       ?dtor$7@?0??write@?$basic_ostream@DU?$char_traits@D@std@@@std@@QEAAAEAV12@PEBD_J@Z@4HA 0000000140004c20 f i FileIO-72ff47.o
 0001:00003c50       ?catch$12@?0??write@?$basic_ostream@DU?$char_traits@D@std@@@std@@QEAAAEAV12@PEBD_J@Z@4HA 0000000140004c50 f i FileIO-72ff47.o
 0001:00003ca0       ?dtor$25@?0??write@?$basic_ostream@DU?$char_traits@D@std@@@std@@QEAAAEAV12@PEBD_J@Z@4HA 0000000140004ca0 f i FileIO-72ff47.o
 0001:00003cd0       ?dtor$26@?0??write@?$basic_ostream@DU?$char_traits@D@std@@@std@@QEAAAEAV12@PEBD_J@Z@4HA 0000000140004cd0 f i FileIO-72ff47.o
 0001:00003d60       ?dtor$2@?0???_D?$basic_ofstream@DU?$char_traits@D@std@@@std@@QEAAXXZ@4HA 0000000140004d60 f i FileIO-72ff47.o
 0001:00004040       ?dtor$13@?0???0?$basic_ifstream@DU?$char_traits@D@std@@@std@@QEAA@PEBDHH@Z@4HA 0000000140005040 f i FileIO-72ff47.o
 0001:00004080       ?dtor$14@?0???0?$basic_ifstream@DU?$char_traits@D@std@@@std@@QEAA@PEBDHH@Z@4HA 0000000140005080 f i FileIO-72ff47.o
 0001:000040d0       ?dtor$17@?0???0?$basic_ifstream@DU?$char_traits@D@std@@@std@@QEAA@PEBDHH@Z@4HA 00000001400050d0 f i FileIO-72ff47.o
 0001:000041bf       $ehgcr_6_9                 00000001400051bf     FileIO-72ff47.o
 0001:000042e0       ?catch$12@?0??seekg@?$basic_istream@DU?$char_traits@D@std@@@std@@QEAAAEAV12@_JH@Z@4HA 00000001400052e0 f i FileIO-72ff47.o
 0001:00004330       ?dtor$18@?0??seekg@?$basic_istream@DU?$char_traits@D@std@@@std@@QEAAAEAV12@_JH@Z@4HA 0000000140005330 f i FileIO-72ff47.o
 0001:00004360       ?dtor$20@?0??seekg@?$basic_istream@DU?$char_traits@D@std@@@std@@QEAAAEAV12@_JH@Z@4HA 0000000140005360 f i FileIO-72ff47.o
 0001:00004390       ?dtor$22@?0??seekg@?$basic_istream@DU?$char_traits@D@std@@@std@@QEAAAEAV12@_JH@Z@4HA 0000000140005390 f i FileIO-72ff47.o
 0001:00004408       $ehgcr_7_8                 0000000140005408     FileIO-72ff47.o
 0001:00004470       ?catch$6@?0??tellg@?$basic_istream@DU?$char_traits@D@std@@@std@@QEAA?AV?$fpos@U_Mbstatet@@@2@XZ@4HA 0000000140005470 f i FileIO-72ff47.o
 0001:000044c0       ?dtor$12@?0??tellg@?$basic_istream@DU?$char_traits@D@std@@@std@@QEAA?AV?$fpos@U_Mbstatet@@@2@XZ@4HA 00000001400054c0 f i FileIO-72ff47.o
 0001:000044f0       ?dtor$13@?0??tellg@?$basic_istream@DU?$char_traits@D@std@@@std@@QEAA?AV?$fpos@U_Mbstatet@@@2@XZ@4HA 00000001400054f0 f i FileIO-72ff47.o
 0001:00004520       ?dtor$14@?0??tellg@?$basic_istream@DU?$char_traits@D@std@@@std@@QEAA?AV?$fpos@U_Mbstatet@@@2@XZ@4HA 0000000140005520 f i FileIO-72ff47.o
 0001:00004613       $ehgcr_8_9                 0000000140005613     FileIO-72ff47.o
 0001:00004730       ?catch$12@?0??seekg@?$basic_istream@DU?$char_traits@D@std@@@std@@QEAAAEAV12@V?$fpos@U_Mbstatet@@@2@@Z@4HA 0000000140005730 f i FileIO-72ff47.o
 0001:00004780       ?dtor$18@?0??seekg@?$basic_istream@DU?$char_traits@D@std@@@std@@QEAAAEAV12@V?$fpos@U_Mbstatet@@@2@@Z@4HA 0000000140005780 f i FileIO-72ff47.o
 0001:000047b0       ?dtor$20@?0??seekg@?$basic_istream@DU?$char_traits@D@std@@@std@@QEAAAEAV12@V?$fpos@U_Mbstatet@@@2@@Z@4HA 00000001400057b0 f i FileIO-72ff47.o
 0001:000047e0       ?dtor$22@?0??seekg@?$basic_istream@DU?$char_traits@D@std@@@std@@QEAAAEAV12@V?$fpos@U_Mbstatet@@@2@@Z@4HA 00000001400057e0 f i FileIO-72ff47.o
 0001:0000489e       $ehgcr_9_7                 000000014000589e     FileIO-72ff47.o
 0001:00004960       ?catch$10@?0??read@?$basic_istream@DU?$char_traits@D@std@@@std@@QEAAAEAV12@PEAD_J@Z@4HA 0000000140005960 f i FileIO-72ff47.o
 0001:000049b0       ?dtor$16@?0??read@?$basic_istream@DU?$char_traits@D@std@@@std@@QEAAAEAV12@PEAD_J@Z@4HA 00000001400059b0 f i FileIO-72ff47.o
 0001:000049e0       ?dtor$17@?0??read@?$basic_istream@DU?$char_traits@D@std@@@std@@QEAAAEAV12@PEAD_J@Z@4HA 00000001400059e0 f i FileIO-72ff47.o
 0001:00004a10       ?dtor$18@?0??read@?$basic_istream@DU?$char_traits@D@std@@@std@@QEAAAEAV12@PEAD_J@Z@4HA 0000000140005a10 f i FileIO-72ff47.o
 0001:00004aa0       ?dtor$2@?0???_D?$basic_ifstream@DU?$char_traits@D@std@@@std@@QEAAXXZ@4HA 0000000140005aa0 f i FileIO-72ff47.o
 0001:00004b90       ?dtor$11@?0???1?$basic_filebuf@DU?$char_traits@D@std@@@std@@UEAA@XZ@4HA 0000000140005b90 f i FileIO-72ff47.o
 0001:00004c60       ?dtor$4@?0???_E?$basic_ofstream@DU?$char_traits@D@std@@@std@@$4PPPPPPPM@A@EAAPEAXI@Z@4HA 0000000140005c60 f i FileIO-72ff47.o
 0001:00005430       ?dtor$42@?0??uflow@?$basic_filebuf@DU?$char_traits@D@std@@@std@@MEAAHXZ@4HA 0000000140006430 f i FileIO-72ff47.o
 0001:00005460       ?dtor$46@?0??uflow@?$basic_filebuf@DU?$char_traits@D@std@@@std@@MEAAHXZ@4HA 0000000140006460 f i FileIO-72ff47.o
 0001:00005b90       ?dtor$9@?0??setbuf@?$basic_filebuf@DU?$char_traits@D@std@@@std@@MEAAPEAV?$basic_streambuf@DU?$char_traits@D@std@@@2@PEAD_J@Z@4HA 0000000140006b90 f i FileIO-72ff47.o
 0001:00005f60       ?dtor$5@?0???1?$basic_string@DU?$char_traits@D@std@@V?$allocator@D@2@@std@@QEAA@XZ@4HA 0000000140006f60 f i FileIO-72ff47.o
 0001:000060e0       ?dtor$14@?0???$_Reallocate_grow_by@V<lambda_1>@?0??push_back@?$basic_string@DU?$char_traits@D@std@@V?$allocator@D@2@@std@@QEAAXD@Z@D@?$basic_string@DU?$char_traits@D@std@@V?$allocator@D@2@@std@@AEAAAEAV01@_KV<lambda_1>@?0??push_back@01@QEAAXD@Z@D@Z@4HA 00000001400070e0 f i FileIO-72ff47.o
 0001:000061b0       ?dtor$2@?0???0bad_array_new_length@std@@QEAA@AEBV01@@Z@4HA 00000001400071b0 f i FileIO-72ff47.o
 0001:00006220       ?dtor$2@?0???0bad_alloc@std@@QEAA@AEBV01@@Z@4HA 0000000140007220 f i FileIO-72ff47.o
 0001:00006290       ?dtor$2@?0???0exception@std@@QEAA@AEBV01@@Z@4HA 0000000140007290 f i FileIO-72ff47.o
 0001:00006300       ?dtor$4@?0???_G_System_error@std@@UEAAPEAXI@Z@4HA 0000000140007300 f i FileIO-72ff47.o
 0001:00006300       ?dtor$4@?0???_Gbad_alloc@std@@UEAAPEAXI@Z@4HA 0000000140007300 f i FileIO-72ff47.o
 0001:00006300       ?dtor$4@?0???_Gbad_array_new_length@std@@UEAAPEAXI@Z@4HA 0000000140007300 f i FileIO-72ff47.o
 0001:00006300       ?dtor$4@?0???_Gexception@std@@UEAAPEAXI@Z@4HA 0000000140007300 f i FileIO-72ff47.o
 0001:00006300       ?dtor$4@?0???_Gfailure@ios_base@std@@UEAAPEAXI@Z@4HA 0000000140007300 f i FileIO-72ff47.o
 0001:00006300       ?dtor$4@?0???_Gruntime_error@std@@UEAAPEAXI@Z@4HA 0000000140007300 f i FileIO-72ff47.o
 0001:00006300       ?dtor$4@?0???_Gsystem_error@std@@UEAAPEAXI@Z@4HA 0000000140007300 f i FileIO-72ff47.o
 0001:000064a0       ?dtor$20@?0???$use_facet@V?$codecvt@DDU_Mbstatet@@@std@@@std@@YAAEBV?$codecvt@DDU_Mbstatet@@@0@AEBVlocale@0@@Z@4HA 00000001400074a0 f i FileIO-72ff47.o
 0001:000064d0       ?dtor$22@?0???$use_facet@V?$codecvt@DDU_Mbstatet@@@std@@@std@@YAAEBV?$codecvt@DDU_Mbstatet@@@0@AEBVlocale@0@@Z@4HA 00000001400074d0 f i FileIO-72ff47.o
 0001:00006500       ?dtor$23@?0???$use_facet@V?$codecvt@DDU_Mbstatet@@@std@@@std@@YAAEBV?$codecvt@DDU_Mbstatet@@@0@AEBVlocale@0@@Z@4HA 0000000140007500 f i FileIO-72ff47.o
 0001:000065d0       ?dtor$5@?0???0_Locinfo@std@@QEAA@PEBD@Z@4HA 00000001400075d0 f i FileIO-72ff47.o
 0001:00006740       ?dtor$14@?0???1_Locinfo@std@@QEAA@XZ@4HA 0000000140007740 f i FileIO-72ff47.o
 0001:000067a0       initialize_environment     00000001400077a0 f i libucrt:initialization.obj
 0001:000067a0       initialize_global_state_isolation 00000001400077a0 f i libucrt:initialization.obj
 0001:000067a0       report_memory_leaks        00000001400077a0 f i libucrt:initialization.obj
 0001:000067a0       uninitialize_c             00000001400077a0 f i libucrt:initialization.obj
 0001:000067a0       uninitialize_global_state_isolation 00000001400077a0 f i libucrt:initialization.obj
 0001:00006860       ?dtor$4@?0???_G?$basic_ios@DU?$char_traits@D@std@@@std@@UEAAPEAXI@Z@4HA 0000000140007860 f i FileIO-72ff47.o
 0001:00006860       ?dtor$4@?0???_Gios_base@std@@UEAAPEAXI@Z@4HA 0000000140007860 f i FileIO-72ff47.o
 0001:00006930       ?dtor$4@?0???_E?$basic_ifstream@DU?$char_traits@D@std@@@std@@$4PPPPPPPM@A@EAAPEAXI@Z@4HA 0000000140007930 f i FileIO-72ff47.o
 0001:00006b00       ?dtor$12@?0??open@?$basic_filebuf@DU?$char_traits@D@std@@@std@@QEAAPEAV12@PEBDHH@Z@4HA 0000000140007b00 f i FileIO-72ff47.o
 0001:00006b50       ?dtor$16@?0??open@?$basic_filebuf@DU?$char_traits@D@std@@@std@@QEAAPEAV12@PEBDHH@Z@4HA 0000000140007b50 f i FileIO-72ff47.o
 0001:00006d50       ?dtor$9@?0??init@?$basic_ios@DU?$char_traits@D@std@@@std@@IEAAXPEAV?$basic_streambuf@DU?$char_traits@D@std@@@2@_N@Z@4HA 0000000140007d50 f i FileIO-72ff47.o
 0001:00006da0       ?dtor$16@?0??init@?$basic_ios@DU?$char_traits@D@std@@@std@@IEAAXPEAV?$basic_streambuf@DU?$char_traits@D@std@@@2@_N@Z@4HA 0000000140007da0 f i FileIO-72ff47.o
 0001:00006e20       ?dtor$4@?0???_E?$basic_ostream@DU?$char_traits@D@std@@@std@@$4PPPPPPPM@A@EAAPEAXI@Z@4HA 0000000140007e20 f i FileIO-72ff47.o
 0001:00006f60       ?dtor$2@?0???0failure@ios_base@std@@QEAA@AEBV012@@Z@4HA 0000000140007f60 f i FileIO-72ff47.o
 0001:00006fe0       ?dtor$2@?0???0system_error@std@@QEAA@AEBV01@@Z@4HA 0000000140007fe0 f i FileIO-72ff47.o
 0001:00007060       ?dtor$2@?0???0_System_error@std@@QEAA@AEBV01@@Z@4HA 0000000140008060 f i FileIO-72ff47.o
 0001:000070d0       ?dtor$2@?0???0runtime_error@std@@QEAA@AEBV01@@Z@4HA 00000001400080d0 f i FileIO-72ff47.o
 0001:00007120       ?dtor$2@?0???1exception@std@@UEAA@XZ@4HA 0000000140008120 f i FileIO-72ff47.o
 0001:00007440       ?dtor$13@?0???0system_error@std@@QEAA@Verror_code@1@PEBD@Z@4HA 0000000140008440 f i FileIO-72ff47.o
 0001:00007460       ?dtor$17@?0???0system_error@std@@QEAA@Verror_code@1@PEBD@Z@4HA 0000000140008460 f i FileIO-72ff47.o
 0001:00007610       ?dtor$17@?0???0_System_error@std@@IEAA@Verror_code@1@AEBV?$basic_string@DU?$char_traits@D@std@@V?$allocator@D@2@@1@@Z@4HA 0000000140008610 f i FileIO-72ff47.o
 0001:00007630       ?dtor$22@?0???0_System_error@std@@IEAA@Verror_code@1@AEBV?$basic_string@DU?$char_traits@D@std@@V?$allocator@D@2@@1@@Z@4HA 0000000140008630 f i FileIO-72ff47.o
 0001:000077c0       ?dtor$19@?0??_Makestr@_System_error@std@@CA?AV?$basic_string@DU?$char_traits@D@std@@V?$allocator@D@2@@2@Verror_code@2@V32@@Z@4HA 00000001400087c0 f i FileIO-72ff47.o
 0001:000077e0       ?dtor$23@?0??_Makestr@_System_error@std@@CA?AV?$basic_string@DU?$char_traits@D@std@@V?$allocator@D@2@@2@Verror_code@2@V32@@Z@4HA 00000001400087e0 f i FileIO-72ff47.o
 0001:00007810       ?dtor$24@?0??_Makestr@_System_error@std@@CA?AV?$basic_string@DU?$char_traits@D@std@@V?$allocator@D@2@@2@Verror_code@2@V32@@Z@4HA 0000000140008810 f i FileIO-72ff47.o
 0001:000079c0       ?dtor$14@?0???$_Reallocate_grow_by@V<lambda_1>@?0??append@?$basic_string@DU?$char_traits@D@std@@V?$allocator@D@2@@std@@QEAAAEAV34@QEBD_K@Z@PEBD_K@?$basic_string@DU?$char_traits@D@std@@V?$allocator@D@2@@std@@AEAAAEAV01@_KV<lambda_1>@?0??append@01@QEAAAEAV01@QEBD0@Z@PEBD_K@Z@4HA 00000001400089c0 f i FileIO-72ff47.o
 0001:00007b50       ?dtor$20@?0???$use_facet@V?$ctype@D@std@@@std@@YAAEBV?$ctype@D@0@AEBVlocale@0@@Z@4HA 0000000140008b50 f i FileIO-72ff47.o
 0001:00007b80       ?dtor$22@?0???$use_facet@V?$ctype@D@std@@@std@@YAAEBV?$ctype@D@0@AEBVlocale@0@@Z@4HA 0000000140008b80 f i FileIO-72ff47.o
 0001:00007bb0       ?dtor$23@?0???$use_facet@V?$ctype@D@std@@@std@@YAAEBV?$ctype@D@0@AEBVlocale@0@@Z@4HA 0000000140008bb0 f i FileIO-72ff47.o
 0001:00007da0       ?dtor$5@?0???1sentry@?$basic_ostream@DU?$char_traits@D@std@@@std@@QEAA@XZ@4HA 0000000140008da0 f i FileIO-72ff47.o
 0001:00007e65       $ehgcr_116_18              0000000140008e65     FileIO-72ff47.o
 0001:00007f40       ?dtor$13@?0??flush@?$basic_ostream@DU?$char_traits@D@std@@@std@@QEAAAEAV12@XZ@4HA 0000000140008f40 f i FileIO-72ff47.o
 0001:00007f70       ?catch$22@?0??flush@?$basic_ostream@DU?$char_traits@D@std@@@std@@QEAAAEAV12@XZ@4HA 0000000140008f70 f i FileIO-72ff47.o
 0001:00007fc0       ?dtor$24@?0??flush@?$basic_ostream@DU?$char_traits@D@std@@@std@@QEAAAEAV12@XZ@4HA 0000000140008fc0 f i FileIO-72ff47.o
 0001:00007ff0       ?dtor$25@?0??flush@?$basic_ostream@DU?$char_traits@D@std@@@std@@QEAAAEAV12@XZ@4HA 0000000140008ff0 f i FileIO-72ff47.o
 0001:00008050       ?dtor$3@?0???1_Sentry_base@?$basic_istream@DU?$char_traits@D@std@@@std@@QEAA@XZ@4HA 0000000140009050 f i FileIO-72ff47.o
 0001:00008050       ?dtor$3@?0???1_Sentry_base@?$basic_ostream@DU?$char_traits@D@std@@@std@@QEAA@XZ@4HA 0000000140009050 f i FileIO-72ff47.o
 0001:000080c8       $ehgcr_118_9               00000001400090c8     FileIO-72ff47.o
 0001:00008140       ?catch$8@?0??_Osfx@?$basic_ostream@DU?$char_traits@D@std@@@std@@QEAAXXZ@4HA 0000000140009140 f i FileIO-72ff47.o
 0001:00008160       ?dtor$10@?0??_Osfx@?$basic_ostream@DU?$char_traits@D@std@@@std@@QEAAXXZ@4HA 0000000140009160 f i FileIO-72ff47.o
 0001:000081e0       ?dtor$4@?0???_E?$basic_istream@DU?$char_traits@D@std@@@std@@$4PPPPPPPM@A@EAAPEAXI@Z@4HA 00000001400091e0 f i FileIO-72ff47.o
 0001:000083f2       $ehgcr_121_34              00000001400093f2     FileIO-72ff47.o
 0001:00008470       ?dtor$21@?0??_Ipfx@?$basic_istream@DU?$char_traits@D@std@@@std@@QEAA_N_N@Z@4HA 0000000140009470 f i FileIO-72ff47.o
 0001:000084b0       ?catch$32@?0??_Ipfx@?$basic_istream@DU?$char_traits@D@std@@@std@@QEAA_N_N@Z@4HA 00000001400094b0 f i FileIO-72ff47.o
 0001:0000ad50       ?dtor$10@?0??testCrt@Garner@@QEAAXAEBVInteger@@AEAVIntegerMath@@AEBVSPrimes@@AEBVMultInv@@AEBVCrtMath@@@Z@4HA 000000014000bd50 f   Garner-7c4afe.o
 0001:0000ae70       ?dtor$12@?0???0Crt3@@QEAA@XZ@4HA 000000014000be70 f i Garner-7c4afe.o
 0001:0000aea0       ?dtor$15@?0???0Crt3@@QEAA@XZ@4HA 000000014000bea0 f i Garner-7c4afe.o
 0001:0000af90       ?dtor$6@?0???0Crt@@QEAA@XZ@4HA 000000014000bf90 f i Garner-7c4afe.o
 0001:0000b400       ?dtor$3@?0??setUpConstants@GarnerCrt@@QEAAXAEBVSPrimes@@AEAVIntegerMath@@@Z@4HA 000000014000c400 f   GarnerCrt-2d2605.o
 0001:0000b440       ?dtor$35@?0??setUpConstants@GarnerCrt@@QEAAXAEBVSPrimes@@AEAVIntegerMath@@@Z@4HA 000000014000c440 f   GarnerCrt-2d2605.o
 0001:0000b730       ?dtor$4@?0???0GoodX@@QEAA@XZ@4HA 000000014000c730 f   GoodX-ae9673.o
 0001:0000b830       ?dtor$5@?0???0GoodX@@QEAA@AEBV0@@Z@4HA 000000014000c830 f   GoodX-ae9673.o
 0001:0000bb20       ?dtor$4@?0???0MultInv@@QEAA@XZ@4HA 000000014000cb20 f   MultInv-2bbd1e.o
 0001:0000bc20       ?dtor$5@?0???0MultInv@@QEAA@AEBV0@@Z@4HA 000000014000cc20 f   MultInv-2bbd1e.o
 0001:0000df60       ?dtor$4@?0???0Exponents@@QEAA@XZ@4HA 000000014000ef60 f   Exponents-d95490.o
 0001:0000e130       ?dtor$7@?0???0Exponents@@QEAA@AEBV0@@Z@4HA 000000014000f130 f   Exponents-d95490.o
 0001:0000fd50       ?dtor$12@?0??makeRandomOdd@Integer@@QEAA_NH@Z@4HA 0000000140010d50 f   Integer-411c6a.o
 0001:0000fd90       ?dtor$29@?0??makeRandomOdd@Integer@@QEAA_NH@Z@4HA 0000000140010d90 f   Integer-411c6a.o
 0001:00010000       ?dtor$10@?0??setFromBigEndianCharBuf@Integer@@QEAAXAEBVCharBuf@@@Z@4HA 0000000140011000 f   Integer-411c6a.o
 0001:00010030       ?dtor$33@?0??setFromBigEndianCharBuf@Integer@@QEAAXAEBVCharBuf@@@Z@4HA 0000000140011030 f   Integer-411c6a.o
 0001:00011580       ?dtor$18@?0??setFromStr@IntegerMath@@QEAAXAEAVInteger@@AEBVCharBuf@@@Z@4HA 0000000140012580 f   IntegerMath-59f10c.o
 0001:000118c0       ?dtor$40@?0??toString10@IntegerMath@@QEAAXAEBVInteger@@AEAVCharBuf@@@Z@4HA 00000001400128c0 f   IntegerMath-59f10c.o
 0001:00011900       ?dtor$43@?0??toString10@IntegerMath@@QEAAXAEBVInteger@@AEAVCharBuf@@@Z@4HA 0000000140012900 f   IntegerMath-59f10c.o
 0001:00011940       ?dtor$46@?0??toString10@IntegerMath@@QEAAXAEBVInteger@@AEAVCharBuf@@@Z@4HA 0000000140012940 f   IntegerMath-59f10c.o
 0001:00011980       ?dtor$49@?0??toString10@IntegerMath@@QEAAXAEBVInteger@@AEAVCharBuf@@@Z@4HA 0000000140012980 f   IntegerMath-59f10c.o
 0001:000119c0       ?dtor$52@?0??toString10@IntegerMath@@QEAAXAEBVInteger@@AEAVCharBuf@@@Z@4HA 00000001400129c0 f   IntegerMath-59f10c.o
 0001:00013f00       ?dtor$4@?0??parseOneExten@CertExten@@QEAA_NAEBVCharBuf@@AEAV2@@Z@4HA 0000000140014f00 f   CertExten-6fb235.o
 0001:00013f40       ?dtor$18@?0??parseOneExten@CertExten@@QEAA_NAEBVCharBuf@@AEAV2@@Z@4HA 0000000140014f40 f   CertExten-6fb235.o
 0001:00013f80       ?dtor$21@?0??parseOneExten@CertExten@@QEAA_NAEBVCharBuf@@AEAV2@@Z@4HA 0000000140014f80 f   CertExten-6fb235.o
 0001:00013fc0       ?dtor$44@?0??parseOneExten@CertExten@@QEAA_NAEBVCharBuf@@AEAV2@@Z@4HA 0000000140014fc0 f   CertExten-6fb235.o
 0001:00014000       ?dtor$52@?0??parseOneExten@CertExten@@QEAA_NAEBVCharBuf@@AEAV2@@Z@4HA 0000000140015000 f   CertExten-6fb235.o
 0001:00014040       ?dtor$66@?0??parseOneExten@CertExten@@QEAA_NAEBVCharBuf@@AEAV2@@Z@4HA 0000000140015040 f   CertExten-6fb235.o
 0001:00014080       ?dtor$83@?0??parseOneExten@CertExten@@QEAA_NAEBVCharBuf@@AEAV2@@Z@4HA 0000000140015080 f   CertExten-6fb235.o
 0001:000140c0       ?dtor$86@?0??parseOneExten@CertExten@@QEAA_NAEBVCharBuf@@AEAV2@@Z@4HA 00000001400150c0 f   CertExten-6fb235.o
 0001:00014100       ?dtor$89@?0??parseOneExten@CertExten@@QEAA_NAEBVCharBuf@@AEAV2@@Z@4HA 0000000140015100 f   CertExten-6fb235.o
 0001:00014140       ?dtor$92@?0??parseOneExten@CertExten@@QEAA_NAEBVCharBuf@@AEAV2@@Z@4HA 0000000140015140 f   CertExten-6fb235.o
 0001:000146f0       ?dtor$32@?0??parseOneCert@Certificate@@QEAAIAEBVCharBuf@@AEAVTlsMain@@@Z@4HA 00000001400156f0 f   Certificate-0fe854.o
 0001:00014730       ?dtor$35@?0??parseOneCert@Certificate@@QEAAIAEBVCharBuf@@AEAVTlsMain@@@Z@4HA 0000000140015730 f   Certificate-0fe854.o
 0001:00014770       ?dtor$38@?0??parseOneCert@Certificate@@QEAAIAEBVCharBuf@@AEAVTlsMain@@@Z@4HA 0000000140015770 f   Certificate-0fe854.o
 0001:000147b0       ?dtor$41@?0??parseOneCert@Certificate@@QEAAIAEBVCharBuf@@AEAVTlsMain@@@Z@4HA 00000001400157b0 f   Certificate-0fe854.o
 0001:000147f0       ?dtor$44@?0??parseOneCert@Certificate@@QEAAIAEBVCharBuf@@AEAVTlsMain@@@Z@4HA 00000001400157f0 f   Certificate-0fe854.o
 0001:00014830       ?dtor$47@?0??parseOneCert@Certificate@@QEAAIAEBVCharBuf@@AEAVTlsMain@@@Z@4HA 0000000140015830 f   Certificate-0fe854.o
 0001:00014870       ?dtor$50@?0??parseOneCert@Certificate@@QEAAIAEBVCharBuf@@AEAVTlsMain@@@Z@4HA 0000000140015870 f   Certificate-0fe854.o
 0001:000148b0       ?dtor$77@?0??parseOneCert@Certificate@@QEAAIAEBVCharBuf@@AEAVTlsMain@@@Z@4HA 00000001400158b0 f   Certificate-0fe854.o
 0001:000148f0       ?dtor$80@?0??parseOneCert@Certificate@@QEAAIAEBVCharBuf@@AEAVTlsMain@@@Z@4HA 00000001400158f0 f   Certificate-0fe854.o
 0001:00014930       ?dtor$83@?0??parseOneCert@Certificate@@QEAAIAEBVCharBuf@@AEAVTlsMain@@@Z@4HA 0000000140015930 f   Certificate-0fe854.o
 0001:00014970       ?dtor$96@?0??parseOneCert@Certificate@@QEAAIAEBVCharBuf@@AEAVTlsMain@@@Z@4HA 0000000140015970 f   Certificate-0fe854.o
 0001:000149b0       ?dtor$99@?0??parseOneCert@Certificate@@QEAAIAEBVCharBuf@@AEAVTlsMain@@@Z@4HA 00000001400159b0 f   Certificate-0fe854.o
 0001:000149f0       ?dtor$102@?0??parseOneCert@Certificate@@QEAAIAEBVCharBuf@@AEAVTlsMain@@@Z@4HA 00000001400159f0 f   Certificate-0fe854.o
 0001:00014a30       ?dtor$105@?0??parseOneCert@Certificate@@QEAAIAEBVCharBuf@@AEAVTlsMain@@@Z@4HA 0000000140015a30 f   Certificate-0fe854.o
 0001:00014df0       ?dtor$4@?0??parseVersion@Certificate@@QEAAHAEBVCharBuf@@@Z@4HA 0000000140015df0 f   Certificate-0fe854.o
 0001:00014e20       ?dtor$12@?0??parseVersion@Certificate@@QEAAHAEBVCharBuf@@@Z@4HA 0000000140015e20 f   Certificate-0fe854.o
 0001:00014e50       ?dtor$34@?0??parseVersion@Certificate@@QEAAHAEBVCharBuf@@@Z@4HA 0000000140015e50 f   Certificate-0fe854.o
 0001:00014e80       ?dtor$37@?0??parseVersion@Certificate@@QEAAHAEBVCharBuf@@@Z@4HA 0000000140015e80 f   Certificate-0fe854.o
 0001:00015040       ?dtor$19@?0??parseSerialNum@Certificate@@QEAAHAEBVCharBuf@@HAEAVTlsMain@@@Z@4HA 0000000140016040 f   Certificate-0fe854.o
 0001:00015080       ?dtor$22@?0??parseSerialNum@Certificate@@QEAAHAEBVCharBuf@@HAEAVTlsMain@@@Z@4HA 0000000140016080 f   Certificate-0fe854.o
 0001:000150c0       ?dtor$25@?0??parseSerialNum@Certificate@@QEAAHAEBVCharBuf@@HAEAVTlsMain@@@Z@4HA 00000001400160c0 f   Certificate-0fe854.o
 0001:00015100       ?dtor$28@?0??parseSerialNum@Certificate@@QEAAHAEBVCharBuf@@HAEAVTlsMain@@@Z@4HA 0000000140016100 f   Certificate-0fe854.o
 0001:00015140       ?dtor$31@?0??parseSerialNum@Certificate@@QEAAHAEBVCharBuf@@HAEAVTlsMain@@@Z@4HA 0000000140016140 f   Certificate-0fe854.o
 0001:00015180       ?dtor$34@?0??parseSerialNum@Certificate@@QEAAHAEBVCharBuf@@HAEAVTlsMain@@@Z@4HA 0000000140016180 f   Certificate-0fe854.o
 0001:000154a0       ?dtor$4@?0??parseTbsSigAlgID@Certificate@@QEAAHAEBVCharBuf@@H@Z@4HA 00000001400164a0 f   Certificate-0fe854.o
 0001:000154e0       ?dtor$13@?0??parseTbsSigAlgID@Certificate@@QEAAHAEBVCharBuf@@H@Z@4HA 00000001400164e0 f   Certificate-0fe854.o
 0001:00015510       ?dtor$32@?0??parseTbsSigAlgID@Certificate@@QEAAHAEBVCharBuf@@H@Z@4HA 0000000140016510 f   Certificate-0fe854.o
 0001:00015540       ?dtor$35@?0??parseTbsSigAlgID@Certificate@@QEAAHAEBVCharBuf@@H@Z@4HA 0000000140016540 f   Certificate-0fe854.o
 0001:00015570       ?dtor$38@?0??parseTbsSigAlgID@Certificate@@QEAAHAEBVCharBuf@@H@Z@4HA 0000000140016570 f   Certificate-0fe854.o
 0001:000155a0       ?dtor$53@?0??parseTbsSigAlgID@Certificate@@QEAAHAEBVCharBuf@@H@Z@4HA 00000001400165a0 f   Certificate-0fe854.o
 0001:000155d0       ?dtor$56@?0??parseTbsSigAlgID@Certificate@@QEAAHAEBVCharBuf@@H@Z@4HA 00000001400165d0 f   Certificate-0fe854.o
 0001:00015600       ?dtor$59@?0??parseTbsSigAlgID@Certificate@@QEAAHAEBVCharBuf@@H@Z@4HA 0000000140016600 f   Certificate-0fe854.o
 0001:00015630       ?dtor$62@?0??parseTbsSigAlgID@Certificate@@QEAAHAEBVCharBuf@@H@Z@4HA 0000000140016630 f   Certificate-0fe854.o
 0001:00015660       ?dtor$65@?0??parseTbsSigAlgID@Certificate@@QEAAHAEBVCharBuf@@H@Z@4HA 0000000140016660 f   Certificate-0fe854.o
 0001:00015b50       ?dtor$4@?0??parseIssuer@Certificate@@QEAAHAEBVCharBuf@@H@Z@4HA 0000000140016b50 f   Certificate-0fe854.o
 0001:00015b90       ?dtor$13@?0??parseIssuer@Certificate@@QEAAHAEBVCharBuf@@H@Z@4HA 0000000140016b90 f   Certificate-0fe854.o
 0001:00015bc0       ?dtor$22@?0??parseIssuer@Certificate@@QEAAHAEBVCharBuf@@H@Z@4HA 0000000140016bc0 f   Certificate-0fe854.o
 0001:00015bf0       ?dtor$31@?0??parseIssuer@Certificate@@QEAAHAEBVCharBuf@@H@Z@4HA 0000000140016bf0 f   Certificate-0fe854.o
 0001:00015c30       ?dtor$46@?0??parseIssuer@Certificate@@QEAAHAEBVCharBuf@@H@Z@4HA 0000000140016c30 f   Certificate-0fe854.o
 0001:00015c60       ?dtor$49@?0??parseIssuer@Certificate@@QEAAHAEBVCharBuf@@H@Z@4HA 0000000140016c60 f   Certificate-0fe854.o
 0001:00015c90       ?dtor$73@?0??parseIssuer@Certificate@@QEAAHAEBVCharBuf@@H@Z@4HA 0000000140016c90 f   Certificate-0fe854.o
 0001:00015cd0       ?dtor$76@?0??parseIssuer@Certificate@@QEAAHAEBVCharBuf@@H@Z@4HA 0000000140016cd0 f   Certificate-0fe854.o
 0001:00015d10       ?dtor$79@?0??parseIssuer@Certificate@@QEAAHAEBVCharBuf@@H@Z@4HA 0000000140016d10 f   Certificate-0fe854.o
 0001:00015d40       ?dtor$82@?0??parseIssuer@Certificate@@QEAAHAEBVCharBuf@@H@Z@4HA 0000000140016d40 f   Certificate-0fe854.o
 0001:00015d70       ?dtor$85@?0??parseIssuer@Certificate@@QEAAHAEBVCharBuf@@H@Z@4HA 0000000140016d70 f   Certificate-0fe854.o
 0001:00015db0       ?dtor$88@?0??parseIssuer@Certificate@@QEAAHAEBVCharBuf@@H@Z@4HA 0000000140016db0 f   Certificate-0fe854.o
 0001:00015de0       ?dtor$91@?0??parseIssuer@Certificate@@QEAAHAEBVCharBuf@@H@Z@4HA 0000000140016de0 f   Certificate-0fe854.o
 0001:00015e10       ?dtor$94@?0??parseIssuer@Certificate@@QEAAHAEBVCharBuf@@H@Z@4HA 0000000140016e10 f   Certificate-0fe854.o
 0001:00016100       ?dtor$4@?0??parseValidity@Certificate@@QEAAHAEBVCharBuf@@H@Z@4HA 0000000140017100 f   Certificate-0fe854.o
 0001:00016130       ?dtor$13@?0??parseValidity@Certificate@@QEAAHAEBVCharBuf@@H@Z@4HA 0000000140017130 f   Certificate-0fe854.o
 0001:00016160       ?dtor$25@?0??parseValidity@Certificate@@QEAAHAEBVCharBuf@@H@Z@4HA 0000000140017160 f   Certificate-0fe854.o
 0001:00016190       ?dtor$43@?0??parseValidity@Certificate@@QEAAHAEBVCharBuf@@H@Z@4HA 0000000140017190 f   Certificate-0fe854.o
 0001:000161c0       ?dtor$46@?0??parseValidity@Certificate@@QEAAHAEBVCharBuf@@H@Z@4HA 00000001400171c0 f   Certificate-0fe854.o
 0001:000161f0       ?dtor$49@?0??parseValidity@Certificate@@QEAAHAEBVCharBuf@@H@Z@4HA 00000001400171f0 f   Certificate-0fe854.o
 0001:00016220       ?dtor$52@?0??parseValidity@Certificate@@QEAAHAEBVCharBuf@@H@Z@4HA 0000000140017220 f   Certificate-0fe854.o
 0001:00016250       ?dtor$55@?0??parseValidity@Certificate@@QEAAHAEBVCharBuf@@H@Z@4HA 0000000140017250 f   Certificate-0fe854.o
 0001:000166f0       ?dtor$4@?0??parseSubject@Certificate@@QEAAHAEBVCharBuf@@H@Z@4HA 00000001400176f0 f   Certificate-0fe854.o
 0001:00016730       ?dtor$13@?0??parseSubject@Certificate@@QEAAHAEBVCharBuf@@H@Z@4HA 0000000140017730 f   Certificate-0fe854.o
 0001:00016760       ?dtor$22@?0??parseSubject@Certificate@@QEAAHAEBVCharBuf@@H@Z@4HA 0000000140017760 f   Certificate-0fe854.o
 0001:00016790       ?dtor$31@?0??parseSubject@Certificate@@QEAAHAEBVCharBuf@@H@Z@4HA 0000000140017790 f   Certificate-0fe854.o
 0001:000167d0       ?dtor$65@?0??parseSubject@Certificate@@QEAAHAEBVCharBuf@@H@Z@4HA 00000001400177d0 f   Certificate-0fe854.o
 0001:00016800       ?dtor$68@?0??parseSubject@Certificate@@QEAAHAEBVCharBuf@@H@Z@4HA 0000000140017800 f   Certificate-0fe854.o
 0001:00016830       ?dtor$71@?0??parseSubject@Certificate@@QEAAHAEBVCharBuf@@H@Z@4HA 0000000140017830 f   Certificate-0fe854.o
 0001:00016870       ?dtor$74@?0??parseSubject@Certificate@@QEAAHAEBVCharBuf@@H@Z@4HA 0000000140017870 f   Certificate-0fe854.o
 0001:000168b0       ?dtor$77@?0??parseSubject@Certificate@@QEAAHAEBVCharBuf@@H@Z@4HA 00000001400178b0 f   Certificate-0fe854.o
 0001:000168e0       ?dtor$80@?0??parseSubject@Certificate@@QEAAHAEBVCharBuf@@H@Z@4HA 00000001400178e0 f   Certificate-0fe854.o
 0001:00016910       ?dtor$83@?0??parseSubject@Certificate@@QEAAHAEBVCharBuf@@H@Z@4HA 0000000140017910 f   Certificate-0fe854.o
 0001:00016950       ?dtor$86@?0??parseSubject@Certificate@@QEAAHAEBVCharBuf@@H@Z@4HA 0000000140017950 f   Certificate-0fe854.o
 0001:00016980       ?dtor$89@?0??parseSubject@Certificate@@QEAAHAEBVCharBuf@@H@Z@4HA 0000000140017980 f   Certificate-0fe854.o
 0001:000169b0       ?dtor$92@?0??parseSubject@Certificate@@QEAAHAEBVCharBuf@@H@Z@4HA 00000001400179b0 f   Certificate-0fe854.o
 0001:00016f60       ?dtor$7@?0??parseSubjectPubKey@Certificate@@QEAAHAEBVCharBuf@@HAEAVTlsMain@@@Z@4HA 0000000140017f60 f   Certificate-0fe854.o
 0001:00016fa0       ?dtor$18@?0??parseSubjectPubKey@Certificate@@QEAAHAEBVCharBuf@@HAEAVTlsMain@@@Z@4HA 0000000140017fa0 f   Certificate-0fe854.o
 0001:00016fe0       ?dtor$27@?0??parseSubjectPubKey@Certificate@@QEAAHAEBVCharBuf@@HAEAVTlsMain@@@Z@4HA 0000000140017fe0 f   Certificate-0fe854.o
 0001:00017020       ?dtor$42@?0??parseSubjectPubKey@Certificate@@QEAAHAEBVCharBuf@@HAEAVTlsMain@@@Z@4HA 0000000140018020 f   Certificate-0fe854.o
 0001:00017060       ?dtor$45@?0??parseSubjectPubKey@Certificate@@QEAAHAEBVCharBuf@@HAEAVTlsMain@@@Z@4HA 0000000140018060 f   Certificate-0fe854.o
 0001:000170a0       ?dtor$54@?0??parseSubjectPubKey@Certificate@@QEAAHAEBVCharBuf@@HAEAVTlsMain@@@Z@4HA 00000001400180a0 f   Certificate-0fe854.o
 0001:000170e0       ?dtor$85@?0??parseSubjectPubKey@Certificate@@QEAAHAEBVCharBuf@@HAEAVTlsMain@@@Z@4HA 00000001400180e0 f   Certificate-0fe854.o
 0001:00017120       ?dtor$88@?0??parseSubjectPubKey@Certificate@@QEAAHAEBVCharBuf@@HAEAVTlsMain@@@Z@4HA 0000000140018120 f   Certificate-0fe854.o
 0001:00017160       ?dtor$91@?0??parseSubjectPubKey@Certificate@@QEAAHAEBVCharBuf@@HAEAVTlsMain@@@Z@4HA 0000000140018160 f   Certificate-0fe854.o
 0001:000171a0       ?dtor$94@?0??parseSubjectPubKey@Certificate@@QEAAHAEBVCharBuf@@HAEAVTlsMain@@@Z@4HA 00000001400181a0 f   Certificate-0fe854.o
 0001:000171e0       ?dtor$97@?0??parseSubjectPubKey@Certificate@@QEAAHAEBVCharBuf@@HAEAVTlsMain@@@Z@4HA 00000001400181e0 f   Certificate-0fe854.o
 0001:00017220       ?dtor$100@?0??parseSubjectPubKey@Certificate@@QEAAHAEBVCharBuf@@HAEAVTlsMain@@@Z@4HA 0000000140018220 f   Certificate-0fe854.o
 0001:00017260       ?dtor$103@?0??parseSubjectPubKey@Certificate@@QEAAHAEBVCharBuf@@HAEAVTlsMain@@@Z@4HA 0000000140018260 f   Certificate-0fe854.o
 0001:000172a0       ?dtor$106@?0??parseSubjectPubKey@Certificate@@QEAAHAEBVCharBuf@@HAEAVTlsMain@@@Z@4HA 00000001400182a0 f   Certificate-0fe854.o
 0001:000172e0       ?dtor$109@?0??parseSubjectPubKey@Certificate@@QEAAHAEBVCharBuf@@HAEAVTlsMain@@@Z@4HA 00000001400182e0 f   Certificate-0fe854.o
 0001:00017320       ?dtor$112@?0??parseSubjectPubKey@Certificate@@QEAAHAEBVCharBuf@@HAEAVTlsMain@@@Z@4HA 0000000140018320 f   Certificate-0fe854.o
 0001:00017590       ?dtor$16@?0??parseUniqueID@Certificate@@QEAAHAEBVCharBuf@@H@Z@4HA 0000000140018590 f   Certificate-0fe854.o
 0001:000175c0       ?dtor$34@?0??parseUniqueID@Certificate@@QEAAHAEBVCharBuf@@H@Z@4HA 00000001400185c0 f   Certificate-0fe854.o
 0001:00017a30       ?dtor$17@?0??parseExtensions@Certificate@@QEAAHAEBVCharBuf@@H@Z@4HA 0000000140018a30 f   Certificate-0fe854.o
 0001:00017a70       ?dtor$39@?0??parseExtensions@Certificate@@QEAAHAEBVCharBuf@@H@Z@4HA 0000000140018a70 f   Certificate-0fe854.o
 0001:00017ab0       ?dtor$42@?0??parseExtensions@Certificate@@QEAAHAEBVCharBuf@@H@Z@4HA 0000000140018ab0 f   Certificate-0fe854.o
 0001:00017af0       ?dtor$59@?0??parseExtensions@Certificate@@QEAAHAEBVCharBuf@@H@Z@4HA 0000000140018af0 f   Certificate-0fe854.o
 0001:00017b30       ?dtor$65@?0??parseExtensions@Certificate@@QEAAHAEBVCharBuf@@H@Z@4HA 0000000140018b30 f   Certificate-0fe854.o
 0001:00017b70       ?dtor$68@?0??parseExtensions@Certificate@@QEAAHAEBVCharBuf@@H@Z@4HA 0000000140018b70 f   Certificate-0fe854.o
 0001:00017bb0       ?dtor$69@?0??parseExtensions@Certificate@@QEAAHAEBVCharBuf@@H@Z@4HA 0000000140018bb0 f   Certificate-0fe854.o
 0001:00017bf0       ?dtor$72@?0??parseExtensions@Certificate@@QEAAHAEBVCharBuf@@H@Z@4HA 0000000140018bf0 f   Certificate-0fe854.o
 0001:00017c30       ?dtor$75@?0??parseExtensions@Certificate@@QEAAHAEBVCharBuf@@H@Z@4HA 0000000140018c30 f   Certificate-0fe854.o
 0001:00017f70       ?dtor$24@?0???0CertExten@@QEAA@XZ@4HA 0000000140018f70 f i Certificate-0fe854.o
 0001:00017fb0       ?dtor$27@?0???0CertExten@@QEAA@XZ@4HA 0000000140018fb0 f i Certificate-0fe854.o
 0001:00017ff0       ?dtor$30@?0???0CertExten@@QEAA@XZ@4HA 0000000140018ff0 f i Certificate-0fe854.o
 0001:00018030       ?dtor$33@?0???0CertExten@@QEAA@XZ@4HA 0000000140019030 f i Certificate-0fe854.o
 0001:00018070       ?dtor$36@?0???0CertExten@@QEAA@XZ@4HA 0000000140019070 f i Certificate-0fe854.o
 0001:000180b0       ?dtor$39@?0???0CertExten@@QEAA@XZ@4HA 00000001400190b0 f i Certificate-0fe854.o
 0001:000180f0       ?dtor$42@?0???0CertExten@@QEAA@XZ@4HA 00000001400190f0 f i Certificate-0fe854.o
 0001:00018130       ?dtor$45@?0???0CertExten@@QEAA@XZ@4HA 0000000140019130 f i Certificate-0fe854.o
 0001:00018170       ?dtor$48@?0???0CertExten@@QEAA@XZ@4HA 0000000140019170 f i Certificate-0fe854.o
 0001:000181b0       ?dtor$51@?0???0CertExten@@QEAA@XZ@4HA 00000001400191b0 f i Certificate-0fe854.o
 0001:000181f0       ?dtor$54@?0???0CertExten@@QEAA@XZ@4HA 00000001400191f0 f i Certificate-0fe854.o
 0001:00018230       ?dtor$57@?0???0CertExten@@QEAA@XZ@4HA 0000000140019230 f i Certificate-0fe854.o
 0001:00018270       ?dtor$60@?0???0CertExten@@QEAA@XZ@4HA 0000000140019270 f i Certificate-0fe854.o
 0001:000182b0       ?dtor$63@?0???0CertExten@@QEAA@XZ@4HA 00000001400192b0 f i Certificate-0fe854.o
 0001:000182f0       ?dtor$66@?0???0CertExten@@QEAA@XZ@4HA 00000001400192f0 f i Certificate-0fe854.o
 0001:00018330       ?dtor$69@?0???0CertExten@@QEAA@XZ@4HA 0000000140019330 f i Certificate-0fe854.o
 0001:00018b40       ?dtor$38@?0??parseCertMsg@CertMesg@@QEAAIAEBVCharBuf@@AEAVTlsMain@@@Z@4HA 0000000140019b40 f   CertMesg-6e1947.o
 0001:00018b80       ?dtor$41@?0??parseCertMsg@CertMesg@@QEAAIAEBVCharBuf@@AEAVTlsMain@@@Z@4HA 0000000140019b80 f   CertMesg-6e1947.o
 0001:00018bc0       ?dtor$111@?0??parseCertMsg@CertMesg@@QEAAIAEBVCharBuf@@AEAVTlsMain@@@Z@4HA 0000000140019bc0 f   CertMesg-6e1947.o
 0001:00018c00       ?dtor$114@?0??parseCertMsg@CertMesg@@QEAAIAEBVCharBuf@@AEAVTlsMain@@@Z@4HA 0000000140019c00 f   CertMesg-6e1947.o
 0001:00018d10       ?dtor$2@?0???0ClientHello@@QEAA@XZ@4HA 0000000140019d10 f   ClientHello-415e8d.o
 0001:00018dd0       ?dtor$3@?0???0ClientHello@@QEAA@AEBV0@@Z@4HA 0000000140019dd0 f   ClientHello-415e8d.o
 0001:00018e00       ?dtor$6@?0???0ClientHello@@QEAA@AEBV0@@Z@4HA 0000000140019e00 f   ClientHello-415e8d.o
 0001:0001917a       $ehgcr_3_35                000000014001a17a     ClientHello-415e8d.o
 0001:00019490       ?dtor$10@?0??parseBuffer@ClientHello@@QEAAIAEBVCharBuf@@AEAVTlsMain@@AEAVEncryptTls@@@Z@4HA 000000014001a490 f   ClientHello-415e8d.o
 0001:000194d0       ?dtor$43@?0??parseBuffer@ClientHello@@QEAAIAEBVCharBuf@@AEAVTlsMain@@AEAVEncryptTls@@@Z@4HA 000000014001a4d0 f   ClientHello-415e8d.o
 0001:00019510       ?dtor$120@?0??parseBuffer@ClientHello@@QEAAIAEBVCharBuf@@AEAVTlsMain@@AEAVEncryptTls@@@Z@4HA 000000014001a510 f   ClientHello-415e8d.o
 0001:00019550       ?dtor$123@?0??parseBuffer@ClientHello@@QEAAIAEBVCharBuf@@AEAVTlsMain@@AEAVEncryptTls@@@Z@4HA 000000014001a550 f   ClientHello-415e8d.o
 0001:00019590       ?catch$126@?0??parseBuffer@ClientHello@@QEAAIAEBVCharBuf@@AEAVTlsMain@@AEAVEncryptTls@@@Z@4HA 000000014001a590 f   ClientHello-415e8d.o
 0001:000195e0       ?catch$127@?0??parseBuffer@ClientHello@@QEAAIAEBVCharBuf@@AEAVTlsMain@@AEAVEncryptTls@@@Z@4HA 000000014001a5e0 f   ClientHello-415e8d.o
 0001:00019c50       ?dtor$42@?0??makeHelloBuf@ClientHello@@QEAAXAEAVCharBuf@@AEAVTlsMain@@AEAVEncryptTls@@@Z@4HA 000000014001ac50 f   ClientHello-415e8d.o
 0001:00019c90       ?dtor$45@?0??makeHelloBuf@ClientHello@@QEAAXAEAVCharBuf@@AEAVTlsMain@@AEAVEncryptTls@@@Z@4HA 000000014001ac90 f   ClientHello-415e8d.o
 0001:00019cd0       ?dtor$65@?0??makeHelloBuf@ClientHello@@QEAAXAEAVCharBuf@@AEAVTlsMain@@AEAVEncryptTls@@@Z@4HA 000000014001acd0 f   ClientHello-415e8d.o
 0001:00019d10       ?dtor$85@?0??makeHelloBuf@ClientHello@@QEAAXAEAVCharBuf@@AEAVTlsMain@@AEAVEncryptTls@@@Z@4HA 000000014001ad10 f   ClientHello-415e8d.o
 0001:00019d50       ?dtor$88@?0??makeHelloBuf@ClientHello@@QEAAXAEAVCharBuf@@AEAVTlsMain@@AEAVEncryptTls@@@Z@4HA 000000014001ad50 f   ClientHello-415e8d.o
 0001:00019d90       ?dtor$91@?0??makeHelloBuf@ClientHello@@QEAAXAEAVCharBuf@@AEAVTlsMain@@AEAVEncryptTls@@@Z@4HA 000000014001ad90 f   ClientHello-415e8d.o
 0001:00019dd0       ?dtor$94@?0??makeHelloBuf@ClientHello@@QEAAXAEAVCharBuf@@AEAVTlsMain@@AEAVEncryptTls@@@Z@4HA 000000014001add0 f   ClientHello-415e8d.o
 0001:00019e10       ?dtor$97@?0??makeHelloBuf@ClientHello@@QEAAXAEAVCharBuf@@AEAVTlsMain@@AEAVEncryptTls@@@Z@4HA 000000014001ae10 f   ClientHello-415e8d.o
 0001:00019e50       ?dtor$100@?0??makeHelloBuf@ClientHello@@QEAAXAEAVCharBuf@@AEAVTlsMain@@AEAVEncryptTls@@@Z@4HA 000000014001ae50 f   ClientHello-415e8d.o
 0001:00019e90       ?dtor$103@?0??makeHelloBuf@ClientHello@@QEAAXAEAVCharBuf@@AEAVTlsMain@@AEAVEncryptTls@@@Z@4HA 000000014001ae90 f   ClientHello-415e8d.o
 0001:00019f32       $ehgcr_2_5                 000000014001af32     ClientTls-3b5e1f.o
 0001:00019f40       ?catch$6@?0??processData@ClientTls@@QEAAHXZ@4HA 000000014001af40 f   ClientTls-3b5e1f.o
 0001:00019f80       ?catch$7@?0??processData@ClientTls@@QEAAHXZ@4HA 000000014001af80 f   ClientTls-3b5e1f.o
 0001:0001a6e0       ?dtor$9@?0??readOneTag@DerEncode@@QEAAHAEBVCharBuf@@HAEA_NAEAV2@H@Z@4HA 000000014001b6e0 f   DerEncode-e446e5.o
 0001:0001a720       ?dtor$123@?0??readOneTag@DerEncode@@QEAAHAEBVCharBuf@@HAEA_NAEAV2@H@Z@4HA 000000014001b720 f   DerEncode-e446e5.o
 0001:0001aa20       ?dtor$14@?0??showTag@DerEncode@@QEAAXIIAEAVCharBuf@@@Z@4HA 000000014001ba20 f   DerEncode-e446e5.o
 0001:0001aa50       ?dtor$17@?0??showTag@DerEncode@@QEAAXIIAEAVCharBuf@@@Z@4HA 000000014001ba50 f   DerEncode-e446e5.o
 0001:0001acc0       ?dtor$9@?0??readAllTags@DerEncodeLoop@@QEAAHAEBVCharBuf@@HAEAV2@H@Z@4HA 000000014001bcc0 f   DerEncodeLoop-7183df.o
 0001:0001ad00       ?dtor$20@?0??readAllTags@DerEncodeLoop@@QEAAHAEBVCharBuf@@HAEAV2@H@Z@4HA 000000014001bd00 f   DerEncodeLoop-7183df.o
 0001:0001ad40       ?dtor$27@?0??readAllTags@DerEncodeLoop@@QEAAHAEBVCharBuf@@HAEAV2@H@Z@4HA 000000014001bd40 f   DerEncodeLoop-7183df.o
 0001:0001ad80       ?dtor$30@?0??readAllTags@DerEncodeLoop@@QEAAHAEBVCharBuf@@HAEAV2@H@Z@4HA 000000014001bd80 f   DerEncodeLoop-7183df.o
 0001:0001b300       ?dtor$85@?0??makeFromCharBuf@DerObjID@@SAXAEBVCharBuf@@AEAV2@@Z@4HA 000000014001c300 f   DerObjID-3ab8de.o
 0001:0001b340       ?dtor$88@?0??makeFromCharBuf@DerObjID@@SAXAEBVCharBuf@@AEAV2@@Z@4HA 000000014001c340 f   DerObjID-3ab8de.o
 0001:0001b380       ?dtor$91@?0??makeFromCharBuf@DerObjID@@SAXAEBVCharBuf@@AEAV2@@Z@4HA 000000014001c380 f   DerObjID-3ab8de.o
 0001:0001b3c0       ?dtor$94@?0??makeFromCharBuf@DerObjID@@SAXAEBVCharBuf@@AEAV2@@Z@4HA 000000014001c3c0 f   DerObjID-3ab8de.o
 0001:0001b400       ?dtor$97@?0??makeFromCharBuf@DerObjID@@SAXAEBVCharBuf@@AEAV2@@Z@4HA 000000014001c400 f   DerObjID-3ab8de.o
 0001:0001b440       ?dtor$100@?0??makeFromCharBuf@DerObjID@@SAXAEBVCharBuf@@AEAV2@@Z@4HA 000000014001c440 f   DerObjID-3ab8de.o
 0001:0001b480       ?dtor$103@?0??makeFromCharBuf@DerObjID@@SAXAEBVCharBuf@@AEAV2@@Z@4HA 000000014001c480 f   DerObjID-3ab8de.o
 0001:0001b4c0       ?dtor$106@?0??makeFromCharBuf@DerObjID@@SAXAEBVCharBuf@@AEAV2@@Z@4HA 000000014001c4c0 f   DerObjID-3ab8de.o
 0001:0001b7f0       ?dtor$8@?0??expand@EncryptTls@@AEAAXAEAVCharBuf@@AEBV2@1@Z@4HA 000000014001c7f0 f   EncryptTls-885411.o
 0001:0001b820       ?dtor$11@?0??expand@EncryptTls@@AEAAXAEAVCharBuf@@AEBV2@1@Z@4HA 000000014001c820 f   EncryptTls-885411.o
 0001:0001b9d0       ?dtor$6@?0??hkdfExpandLabel@EncryptTls@@AEAAXAEAVCharBuf@@AEBV2@11H@Z@4HA 000000014001c9d0 f   EncryptTls-885411.o
 0001:0001ba10       ?dtor$23@?0??hkdfExpandLabel@EncryptTls@@AEAAXAEAVCharBuf@@AEBV2@11H@Z@4HA 000000014001ca10 f   EncryptTls-885411.o
 0001:0001ba50       ?dtor$26@?0??hkdfExpandLabel@EncryptTls@@AEAAXAEAVCharBuf@@AEBV2@11H@Z@4HA 000000014001ca50 f   EncryptTls-885411.o
 0001:0001ba90       ?dtor$29@?0??hkdfExpandLabel@EncryptTls@@AEAAXAEAVCharBuf@@AEBV2@11H@Z@4HA 000000014001ca90 f   EncryptTls-885411.o
 0001:0001bba0       ?dtor$10@?0??deriveSecret@EncryptTls@@AEAAXAEAVCharBuf@@AEBV2@11@Z@4HA 000000014001cba0 f   EncryptTls-885411.o
 0001:0001bbe0       ?dtor$13@?0??deriveSecret@EncryptTls@@AEAAXAEAVCharBuf@@AEBV2@11@Z@4HA 000000014001cbe0 f   EncryptTls-885411.o
 0001:0001c84e       $ehgcr_4_232               000000014001d84e     EncryptTls-885411.o
 0001:0001c8e0       ?dtor$102@?0??setHandshakeKeys@EncryptTls@@QEAAXAEAVTlsMain@@AEAVInteger@@@Z@4HA 000000014001d8e0 f   EncryptTls-885411.o
 0001:0001c920       ?dtor$105@?0??setHandshakeKeys@EncryptTls@@QEAAXAEAVTlsMain@@AEAVInteger@@@Z@4HA 000000014001d920 f   EncryptTls-885411.o
 0001:0001c960       ?dtor$108@?0??setHandshakeKeys@EncryptTls@@QEAAXAEAVTlsMain@@AEAVInteger@@@Z@4HA 000000014001d960 f   EncryptTls-885411.o
 0001:0001c9a0       ?dtor$111@?0??setHandshakeKeys@EncryptTls@@QEAAXAEAVTlsMain@@AEAVInteger@@@Z@4HA 000000014001d9a0 f   EncryptTls-885411.o
 0001:0001c9e0       ?dtor$114@?0??setHandshakeKeys@EncryptTls@@QEAAXAEAVTlsMain@@AEAVInteger@@@Z@4HA 000000014001d9e0 f   EncryptTls-885411.o
 0001:0001ca20       ?dtor$117@?0??setHandshakeKeys@EncryptTls@@QEAAXAEAVTlsMain@@AEAVInteger@@@Z@4HA 000000014001da20 f   EncryptTls-885411.o
 0001:0001ca60       ?dtor$120@?0??setHandshakeKeys@EncryptTls@@QEAAXAEAVTlsMain@@AEAVInteger@@@Z@4HA 000000014001da60 f   EncryptTls-885411.o
 0001:0001caa0       ?dtor$123@?0??setHandshakeKeys@EncryptTls@@QEAAXAEAVTlsMain@@AEAVInteger@@@Z@4HA 000000014001daa0 f   EncryptTls-885411.o
 0001:0001cae0       ?dtor$126@?0??setHandshakeKeys@EncryptTls@@QEAAXAEAVTlsMain@@AEAVInteger@@@Z@4HA 000000014001dae0 f   EncryptTls-885411.o
 0001:0001cb20       ?dtor$129@?0??setHandshakeKeys@EncryptTls@@QEAAXAEAVTlsMain@@AEAVInteger@@@Z@4HA 000000014001db20 f   EncryptTls-885411.o
 0001:0001cb60       ?dtor$132@?0??setHandshakeKeys@EncryptTls@@QEAAXAEAVTlsMain@@AEAVInteger@@@Z@4HA 000000014001db60 f   EncryptTls-885411.o
 0001:0001cba0       ?dtor$135@?0??setHandshakeKeys@EncryptTls@@QEAAXAEAVTlsMain@@AEAVInteger@@@Z@4HA 000000014001dba0 f   EncryptTls-885411.o
 0001:0001cbe0       ?dtor$154@?0??setHandshakeKeys@EncryptTls@@QEAAXAEAVTlsMain@@AEAVInteger@@@Z@4HA 000000014001dbe0 f   EncryptTls-885411.o
 0001:0001cc20       ?dtor$173@?0??setHandshakeKeys@EncryptTls@@QEAAXAEAVTlsMain@@AEAVInteger@@@Z@4HA 000000014001dc20 f   EncryptTls-885411.o
 0001:0001cc60       ?dtor$191@?0??setHandshakeKeys@EncryptTls@@QEAAXAEAVTlsMain@@AEAVInteger@@@Z@4HA 000000014001dc60 f   EncryptTls-885411.o
 0001:0001cca0       ?dtor$233@?0??setHandshakeKeys@EncryptTls@@QEAAXAEAVTlsMain@@AEAVInteger@@@Z@4HA 000000014001dca0 f   EncryptTls-885411.o
 0001:0001cce0       ?dtor$236@?0??setHandshakeKeys@EncryptTls@@QEAAXAEAVTlsMain@@AEAVInteger@@@Z@4HA 000000014001dce0 f   EncryptTls-885411.o
 0001:0001cd20       ?dtor$239@?0??setHandshakeKeys@EncryptTls@@QEAAXAEAVTlsMain@@AEAVInteger@@@Z@4HA 000000014001dd20 f   EncryptTls-885411.o
 0001:0001cd60       ?dtor$242@?0??setHandshakeKeys@EncryptTls@@QEAAXAEAVTlsMain@@AEAVInteger@@@Z@4HA 000000014001dd60 f   EncryptTls-885411.o
 0001:0001cda0       ?dtor$245@?0??setHandshakeKeys@EncryptTls@@QEAAXAEAVTlsMain@@AEAVInteger@@@Z@4HA 000000014001dda0 f   EncryptTls-885411.o
 0001:0001cde0       ?dtor$248@?0??setHandshakeKeys@EncryptTls@@QEAAXAEAVTlsMain@@AEAVInteger@@@Z@4HA 000000014001dde0 f   EncryptTls-885411.o
 0001:0001ce20       ?dtor$251@?0??setHandshakeKeys@EncryptTls@@QEAAXAEAVTlsMain@@AEAVInteger@@@Z@4HA 000000014001de20 f   EncryptTls-885411.o
 0001:0001ce60       ?dtor$254@?0??setHandshakeKeys@EncryptTls@@QEAAXAEAVTlsMain@@AEAVInteger@@@Z@4HA 000000014001de60 f   EncryptTls-885411.o
 0001:0001cea0       ?dtor$257@?0??setHandshakeKeys@EncryptTls@@QEAAXAEAVTlsMain@@AEAVInteger@@@Z@4HA 000000014001dea0 f   EncryptTls-885411.o
 0001:0001cee0       ?dtor$260@?0??setHandshakeKeys@EncryptTls@@QEAAXAEAVTlsMain@@AEAVInteger@@@Z@4HA 000000014001dee0 f   EncryptTls-885411.o
 0001:0001cf20       ?dtor$263@?0??setHandshakeKeys@EncryptTls@@QEAAXAEAVTlsMain@@AEAVInteger@@@Z@4HA 000000014001df20 f   EncryptTls-885411.o
 0001:0001cf60       ?dtor$266@?0??setHandshakeKeys@EncryptTls@@QEAAXAEAVTlsMain@@AEAVInteger@@@Z@4HA 000000014001df60 f   EncryptTls-885411.o
 0001:0001cfa0       ?dtor$269@?0??setHandshakeKeys@EncryptTls@@QEAAXAEAVTlsMain@@AEAVInteger@@@Z@4HA 000000014001dfa0 f   EncryptTls-885411.o
 0001:0001cfe0       ?dtor$272@?0??setHandshakeKeys@EncryptTls@@QEAAXAEAVTlsMain@@AEAVInteger@@@Z@4HA 000000014001dfe0 f   EncryptTls-885411.o
 0001:0001d020       ?dtor$275@?0??setHandshakeKeys@EncryptTls@@QEAAXAEAVTlsMain@@AEAVInteger@@@Z@4HA 000000014001e020 f   EncryptTls-885411.o
 0001:0001d060       ?dtor$278@?0??setHandshakeKeys@EncryptTls@@QEAAXAEAVTlsMain@@AEAVInteger@@@Z@4HA 000000014001e060 f   EncryptTls-885411.o
 0001:0001d0a0       ?dtor$281@?0??setHandshakeKeys@EncryptTls@@QEAAXAEAVTlsMain@@AEAVInteger@@@Z@4HA 000000014001e0a0 f   EncryptTls-885411.o
 0001:0001d0e0       ?dtor$284@?0??setHandshakeKeys@EncryptTls@@QEAAXAEAVTlsMain@@AEAVInteger@@@Z@4HA 000000014001e0e0 f   EncryptTls-885411.o
 0001:0001d120       ?dtor$287@?0??setHandshakeKeys@EncryptTls@@QEAAXAEAVTlsMain@@AEAVInteger@@@Z@4HA 000000014001e120 f   EncryptTls-885411.o
 0001:0001d160       ?dtor$290@?0??setHandshakeKeys@EncryptTls@@QEAAXAEAVTlsMain@@AEAVInteger@@@Z@4HA 000000014001e160 f   EncryptTls-885411.o
 0001:0001d1a0       ?dtor$293@?0??setHandshakeKeys@EncryptTls@@QEAAXAEAVTlsMain@@AEAVInteger@@@Z@4HA 000000014001e1a0 f   EncryptTls-885411.o
 0001:0001d1e0       ?dtor$296@?0??setHandshakeKeys@EncryptTls@@QEAAXAEAVTlsMain@@AEAVInteger@@@Z@4HA 000000014001e1e0 f   EncryptTls-885411.o
 0001:0001d220       ?dtor$299@?0??setHandshakeKeys@EncryptTls@@QEAAXAEAVTlsMain@@AEAVInteger@@@Z@4HA 000000014001e220 f   EncryptTls-885411.o
 0001:0001d260       ?dtor$302@?0??setHandshakeKeys@EncryptTls@@QEAAXAEAVTlsMain@@AEAVInteger@@@Z@4HA 000000014001e260 f   EncryptTls-885411.o
 0001:0001d2a0       ?dtor$305@?0??setHandshakeKeys@EncryptTls@@QEAAXAEAVTlsMain@@AEAVInteger@@@Z@4HA 000000014001e2a0 f   EncryptTls-885411.o
 0001:0001d2e0       ?dtor$308@?0??setHandshakeKeys@EncryptTls@@QEAAXAEAVTlsMain@@AEAVInteger@@@Z@4HA 000000014001e2e0 f   EncryptTls-885411.o
 0001:0001d320       ?dtor$311@?0??setHandshakeKeys@EncryptTls@@QEAAXAEAVTlsMain@@AEAVInteger@@@Z@4HA 000000014001e320 f   EncryptTls-885411.o
 0001:0001d360       ?dtor$314@?0??setHandshakeKeys@EncryptTls@@QEAAXAEAVTlsMain@@AEAVInteger@@@Z@4HA 000000014001e360 f   EncryptTls-885411.o
 0001:0001d3a0       ?catch$317@?0??setHandshakeKeys@EncryptTls@@QEAAXAEAVTlsMain@@AEAVInteger@@@Z@4HA 000000014001e3a0 f   EncryptTls-885411.o
 0001:0001d3f0       ?catch$318@?0??setHandshakeKeys@EncryptTls@@QEAAXAEAVTlsMain@@AEAVInteger@@@Z@4HA 000000014001e3f0 f   EncryptTls-885411.o
 0001:0001d800       ?dtor$52@?0??makeMsgTranscript2@EncryptTls@@AEAAXAEAVCharBuf@@AEAVTlsMain@@@Z@4HA 000000014001e800 f   EncryptTls-885411.o
 0001:0001d830       ?dtor$55@?0??makeMsgTranscript2@EncryptTls@@AEAAXAEAVCharBuf@@AEAVTlsMain@@@Z@4HA 000000014001e830 f   EncryptTls-885411.o
 0001:0001d860       ?dtor$58@?0??makeMsgTranscript2@EncryptTls@@AEAAXAEAVCharBuf@@AEAVTlsMain@@@Z@4HA 000000014001e860 f   EncryptTls-885411.o
 0001:0001d890       ?dtor$61@?0??makeMsgTranscript2@EncryptTls@@AEAAXAEAVCharBuf@@AEAVTlsMain@@@Z@4HA 000000014001e890 f   EncryptTls-885411.o
 0001:0001d8c0       ?dtor$64@?0??makeMsgTranscript2@EncryptTls@@AEAAXAEAVCharBuf@@AEAVTlsMain@@@Z@4HA 000000014001e8c0 f   EncryptTls-885411.o
 0001:0001d8f0       ?dtor$67@?0??makeMsgTranscript2@EncryptTls@@AEAAXAEAVCharBuf@@AEAVTlsMain@@@Z@4HA 000000014001e8f0 f   EncryptTls-885411.o
 0001:0001d920       ?dtor$70@?0??makeMsgTranscript2@EncryptTls@@AEAAXAEAVCharBuf@@AEAVTlsMain@@@Z@4HA 000000014001e920 f   EncryptTls-885411.o
 0001:0001d950       ?dtor$73@?0??makeMsgTranscript2@EncryptTls@@AEAAXAEAVCharBuf@@AEAVTlsMain@@@Z@4HA 000000014001e950 f   EncryptTls-885411.o
 0001:0001d980       ?dtor$76@?0??makeMsgTranscript2@EncryptTls@@AEAAXAEAVCharBuf@@AEAVTlsMain@@@Z@4HA 000000014001e980 f   EncryptTls-885411.o
 0001:0001d9b0       ?dtor$79@?0??makeMsgTranscript2@EncryptTls@@AEAAXAEAVCharBuf@@AEAVTlsMain@@@Z@4HA 000000014001e9b0 f   EncryptTls-885411.o
 0001:0001d9e0       ?dtor$82@?0??makeMsgTranscript2@EncryptTls@@AEAAXAEAVCharBuf@@AEAVTlsMain@@@Z@4HA 000000014001e9e0 f   EncryptTls-885411.o
 0001:0001da10       ?dtor$85@?0??makeMsgTranscript2@EncryptTls@@AEAAXAEAVCharBuf@@AEAVTlsMain@@@Z@4HA 000000014001ea10 f   EncryptTls-885411.o
 0001:0001da40       ?dtor$88@?0??makeMsgTranscript2@EncryptTls@@AEAAXAEAVCharBuf@@AEAVTlsMain@@@Z@4HA 000000014001ea40 f   EncryptTls-885411.o
 0001:0001da70       ?dtor$91@?0??makeMsgTranscript2@EncryptTls@@AEAAXAEAVCharBuf@@AEAVTlsMain@@@Z@4HA 000000014001ea70 f   EncryptTls-885411.o
 0001:0001daa0       ?dtor$94@?0??makeMsgTranscript2@EncryptTls@@AEAAXAEAVCharBuf@@AEAVTlsMain@@@Z@4HA 000000014001eaa0 f   EncryptTls-885411.o
 0001:0001dad0       ?dtor$97@?0??makeMsgTranscript2@EncryptTls@@AEAAXAEAVCharBuf@@AEAVTlsMain@@@Z@4HA 000000014001ead0 f   EncryptTls-885411.o
 0001:0001db00       ?dtor$100@?0??makeMsgTranscript2@EncryptTls@@AEAAXAEAVCharBuf@@AEAVTlsMain@@@Z@4HA 000000014001eb00 f   EncryptTls-885411.o
 0001:0001db30       ?dtor$103@?0??makeMsgTranscript2@EncryptTls@@AEAAXAEAVCharBuf@@AEAVTlsMain@@@Z@4HA 000000014001eb30 f   EncryptTls-885411.o
 0001:0001e252       $ehgcr_6_142               000000014001f252     EncryptTls-885411.o
 0001:0001e2e0       ?dtor$44@?0??setAppDataKeys@EncryptTls@@QEAAXAEAVTlsMain@@@Z@4HA 000000014001f2e0 f   EncryptTls-885411.o
 0001:0001e310       ?dtor$47@?0??setAppDataKeys@EncryptTls@@QEAAXAEAVTlsMain@@@Z@4HA 000000014001f310 f   EncryptTls-885411.o
 0001:0001e340       ?dtor$50@?0??setAppDataKeys@EncryptTls@@QEAAXAEAVTlsMain@@@Z@4HA 000000014001f340 f   EncryptTls-885411.o
 0001:0001e370       ?dtor$53@?0??setAppDataKeys@EncryptTls@@QEAAXAEAVTlsMain@@@Z@4HA 000000014001f370 f   EncryptTls-885411.o
 0001:0001e3b0       ?dtor$56@?0??setAppDataKeys@EncryptTls@@QEAAXAEAVTlsMain@@@Z@4HA 000000014001f3b0 f   EncryptTls-885411.o
 0001:0001e3f0       ?dtor$59@?0??setAppDataKeys@EncryptTls@@QEAAXAEAVTlsMain@@@Z@4HA 000000014001f3f0 f   EncryptTls-885411.o
 0001:0001e430       ?dtor$78@?0??setAppDataKeys@EncryptTls@@QEAAXAEAVTlsMain@@@Z@4HA 000000014001f430 f   EncryptTls-885411.o
 0001:0001e470       ?dtor$97@?0??setAppDataKeys@EncryptTls@@QEAAXAEAVTlsMain@@@Z@4HA 000000014001f470 f   EncryptTls-885411.o
 0001:0001e4b0       ?dtor$115@?0??setAppDataKeys@EncryptTls@@QEAAXAEAVTlsMain@@@Z@4HA 000000014001f4b0 f   EncryptTls-885411.o
 0001:0001e4f0       ?dtor$143@?0??setAppDataKeys@EncryptTls@@QEAAXAEAVTlsMain@@@Z@4HA 000000014001f4f0 f   EncryptTls-885411.o
 0001:0001e530       ?dtor$146@?0??setAppDataKeys@EncryptTls@@QEAAXAEAVTlsMain@@@Z@4HA 000000014001f530 f   EncryptTls-885411.o
 0001:0001e570       ?dtor$149@?0??setAppDataKeys@EncryptTls@@QEAAXAEAVTlsMain@@@Z@4HA 000000014001f570 f   EncryptTls-885411.o
 0001:0001e5b0       ?dtor$152@?0??setAppDataKeys@EncryptTls@@QEAAXAEAVTlsMain@@@Z@4HA 000000014001f5b0 f   EncryptTls-885411.o
 0001:0001e5f0       ?dtor$155@?0??setAppDataKeys@EncryptTls@@QEAAXAEAVTlsMain@@@Z@4HA 000000014001f5f0 f   EncryptTls-885411.o
 0001:0001e630       ?dtor$158@?0??setAppDataKeys@EncryptTls@@QEAAXAEAVTlsMain@@@Z@4HA 000000014001f630 f   EncryptTls-885411.o
 0001:0001e670       ?dtor$161@?0??setAppDataKeys@EncryptTls@@QEAAXAEAVTlsMain@@@Z@4HA 000000014001f670 f   EncryptTls-885411.o
 0001:0001e6a0       ?dtor$164@?0??setAppDataKeys@EncryptTls@@QEAAXAEAVTlsMain@@@Z@4HA 000000014001f6a0 f   EncryptTls-885411.o
 0001:0001e6e0       ?dtor$167@?0??setAppDataKeys@EncryptTls@@QEAAXAEAVTlsMain@@@Z@4HA 000000014001f6e0 f   EncryptTls-885411.o
 0001:0001e710       ?dtor$170@?0??setAppDataKeys@EncryptTls@@QEAAXAEAVTlsMain@@@Z@4HA 000000014001f710 f   EncryptTls-885411.o
 0001:0001e740       ?dtor$173@?0??setAppDataKeys@EncryptTls@@QEAAXAEAVTlsMain@@@Z@4HA 000000014001f740 f   EncryptTls-885411.o
 0001:0001e780       ?dtor$176@?0??setAppDataKeys@EncryptTls@@QEAAXAEAVTlsMain@@@Z@4HA 000000014001f780 f   EncryptTls-885411.o
 0001:0001e7c0       ?dtor$179@?0??setAppDataKeys@EncryptTls@@QEAAXAEAVTlsMain@@@Z@4HA 000000014001f7c0 f   EncryptTls-885411.o
 0001:0001e800       ?dtor$182@?0??setAppDataKeys@EncryptTls@@QEAAXAEAVTlsMain@@@Z@4HA 000000014001f800 f   EncryptTls-885411.o
 0001:0001e840       ?dtor$185@?0??setAppDataKeys@EncryptTls@@QEAAXAEAVTlsMain@@@Z@4HA 000000014001f840 f   EncryptTls-885411.o
 0001:0001e880       ?dtor$188@?0??setAppDataKeys@EncryptTls@@QEAAXAEAVTlsMain@@@Z@4HA 000000014001f880 f   EncryptTls-885411.o
 0001:0001e8c0       ?dtor$191@?0??setAppDataKeys@EncryptTls@@QEAAXAEAVTlsMain@@@Z@4HA 000000014001f8c0 f   EncryptTls-885411.o
 0001:0001e8f0       ?dtor$194@?0??setAppDataKeys@EncryptTls@@QEAAXAEAVTlsMain@@@Z@4HA 000000014001f8f0 f   EncryptTls-885411.o
 0001:0001e920       ?dtor$197@?0??setAppDataKeys@EncryptTls@@QEAAXAEAVTlsMain@@@Z@4HA 000000014001f920 f   EncryptTls-885411.o
 0001:0001e950       ?catch$200@?0??setAppDataKeys@EncryptTls@@QEAAXAEAVTlsMain@@@Z@4HA 000000014001f950 f   EncryptTls-885411.o
 0001:0001e990       ?catch$201@?0??setAppDataKeys@EncryptTls@@QEAAXAEAVTlsMain@@@Z@4HA 000000014001f990 f   EncryptTls-885411.o
 0001:0001eb50       ?dtor$16@?0??setDiffHelmOnClient@EncryptTls@@QEAAXAEAVTlsMain@@AEAVInteger@@@Z@4HA 000000014001fb50 f   EncryptTls-885411.o
 0001:0001eb90       ?dtor$19@?0??setDiffHelmOnClient@EncryptTls@@QEAAXAEAVTlsMain@@AEAVInteger@@@Z@4HA 000000014001fb90 f   EncryptTls-885411.o
 0001:0001ebd0       ?dtor$22@?0??setDiffHelmOnClient@EncryptTls@@QEAAXAEAVTlsMain@@AEAVInteger@@@Z@4HA 000000014001fbd0 f   EncryptTls-885411.o
 0001:0001ed90       ?dtor$16@?0??setDiffHelmOnServer@EncryptTls@@QEAAXAEAVTlsMain@@AEAVInteger@@@Z@4HA 000000014001fd90 f   EncryptTls-885411.o
 0001:0001edd0       ?dtor$19@?0??setDiffHelmOnServer@EncryptTls@@QEAAXAEAVTlsMain@@AEAVInteger@@@Z@4HA 000000014001fdd0 f   EncryptTls-885411.o
 0001:0001ee10       ?dtor$22@?0??setDiffHelmOnServer@EncryptTls@@QEAAXAEAVTlsMain@@AEAVInteger@@@Z@4HA 000000014001fe10 f   EncryptTls-885411.o
 0001:0001f040       ?dtor$7@?0??srvWriteDecryptCharBuf@EncryptTls@@QEAAXAEBVCharBuf@@AEAV2@@Z@4HA 0000000140020040 f   EncryptTls-885411.o
 0001:0001f080       ?dtor$29@?0??srvWriteDecryptCharBuf@EncryptTls@@QEAAXAEBVCharBuf@@AEAV2@@Z@4HA 0000000140020080 f   EncryptTls-885411.o
 0001:0001f0c0       ?dtor$32@?0??srvWriteDecryptCharBuf@EncryptTls@@QEAAXAEBVCharBuf@@AEAV2@@Z@4HA 00000001400200c0 f   EncryptTls-885411.o
 0001:0001f100       ?dtor$35@?0??srvWriteDecryptCharBuf@EncryptTls@@QEAAXAEBVCharBuf@@AEAV2@@Z@4HA 0000000140020100 f   EncryptTls-885411.o
 0001:0001f140       ?dtor$38@?0??srvWriteDecryptCharBuf@EncryptTls@@QEAAXAEBVCharBuf@@AEAV2@@Z@4HA 0000000140020140 f   EncryptTls-885411.o
 0001:0001f180       ?dtor$41@?0??srvWriteDecryptCharBuf@EncryptTls@@QEAAXAEBVCharBuf@@AEAV2@@Z@4HA 0000000140020180 f   EncryptTls-885411.o
 0001:0001f3b0       ?dtor$7@?0??clWriteDecryptCharBuf@EncryptTls@@QEAAXAEBVCharBuf@@AEAV2@@Z@4HA 00000001400203b0 f   EncryptTls-885411.o
 0001:0001f3f0       ?dtor$29@?0??clWriteDecryptCharBuf@EncryptTls@@QEAAXAEBVCharBuf@@AEAV2@@Z@4HA 00000001400203f0 f   EncryptTls-885411.o
 0001:0001f430       ?dtor$32@?0??clWriteDecryptCharBuf@EncryptTls@@QEAAXAEBVCharBuf@@AEAV2@@Z@4HA 0000000140020430 f   EncryptTls-885411.o
 0001:0001f470       ?dtor$35@?0??clWriteDecryptCharBuf@EncryptTls@@QEAAXAEBVCharBuf@@AEAV2@@Z@4HA 0000000140020470 f   EncryptTls-885411.o
 0001:0001f4b0       ?dtor$38@?0??clWriteDecryptCharBuf@EncryptTls@@QEAAXAEBVCharBuf@@AEAV2@@Z@4HA 00000001400204b0 f   EncryptTls-885411.o
 0001:0001f4f0       ?dtor$41@?0??clWriteDecryptCharBuf@EncryptTls@@QEAAXAEBVCharBuf@@AEAV2@@Z@4HA 00000001400204f0 f   EncryptTls-885411.o
 0001:0001f954       $ehgcr_0_3                 0000000140020954     ExtenList-adabb6.o
 0001:0001fb90       ?dtor$32@?0??setFromMsg@ExtenList@@QEAAIAEBVCharBuf@@HAEAVTlsMain@@_NAEAVEncryptTls@@@Z@4HA 0000000140020b90 f   ExtenList-adabb6.o
 0001:0001fbd0       ?dtor$52@?0??setFromMsg@ExtenList@@QEAAIAEBVCharBuf@@HAEAVTlsMain@@_NAEAVEncryptTls@@@Z@4HA 0000000140020bd0 f   ExtenList-adabb6.o
 0001:0001fc10       ?dtor$106@?0??setFromMsg@ExtenList@@QEAAIAEBVCharBuf@@HAEAVTlsMain@@_NAEAVEncryptTls@@@Z@4HA 0000000140020c10 f   ExtenList-adabb6.o
 0001:0001fc50       ?dtor$109@?0??setFromMsg@ExtenList@@QEAAIAEBVCharBuf@@HAEAVTlsMain@@_NAEAVEncryptTls@@@Z@4HA 0000000140020c50 f   ExtenList-adabb6.o
 0001:0001fc90       ?catch$112@?0??setFromMsg@ExtenList@@QEAAIAEBVCharBuf@@HAEAVTlsMain@@_NAEAVEncryptTls@@@Z@4HA 0000000140020c90 f   ExtenList-adabb6.o
 0001:0001fce0       ?catch$113@?0??setFromMsg@ExtenList@@QEAAIAEBVCharBuf@@HAEAVTlsMain@@_NAEAVEncryptTls@@@Z@4HA 0000000140020ce0 f   ExtenList-adabb6.o
 0001:000204e0       ?dtor$10@?0??makeClHelloBuf@ExtenList@@QEAA_NAEAVCharBuf@@AEAVTlsMain@@AEAVEncryptTls@@@Z@4HA 00000001400214e0 f   ExtenList-adabb6.o
 0001:00020520       ?dtor$74@?0??makeClHelloBuf@ExtenList@@QEAA_NAEAVCharBuf@@AEAVTlsMain@@AEAVEncryptTls@@@Z@4HA 0000000140021520 f   ExtenList-adabb6.o
 0001:00020560       ?dtor$77@?0??makeClHelloBuf@ExtenList@@QEAA_NAEAVCharBuf@@AEAVTlsMain@@AEAVEncryptTls@@@Z@4HA 0000000140021560 f   ExtenList-adabb6.o
 0001:00020850       ?dtor$23@?0??makeSrvHelloBuf@ExtenList@@QEAA_NAEAVCharBuf@@AEAVTlsMain@@AEAVEncryptTls@@@Z@4HA 0000000140021850 f   ExtenList-adabb6.o
 0001:00020b50       ?dtor$22@?0??serverName@Extension@@QEAAIAEBVCharBuf@@AEAVTlsMain@@@Z@4HA 0000000140021b50 f   Extension-450c09.o
 0001:00020b90       ?dtor$44@?0??serverName@Extension@@QEAAIAEBVCharBuf@@AEAVTlsMain@@@Z@4HA 0000000140021b90 f   Extension-450c09.o
 0001:000215f0       ?dtor$58@?0??keyShare@Extension@@QEAAIAEBVCharBuf@@AEAVTlsMain@@_NAEAVEncryptTls@@@Z@4HA 00000001400225f0 f   Extension-450c09.o
 0001:000217e0       ?dtor$5@?0???0HandshakeCl@@QEAA@XZ@4HA 00000001400227e0 f   HandshakeCl-05007d.o
 0001:00021810       ?dtor$8@?0???0HandshakeCl@@QEAA@XZ@4HA 0000000140022810 f   HandshakeCl-05007d.o
 0001:00021840       ?dtor$23@?0???0HandshakeCl@@QEAA@XZ@4HA 0000000140022840 f   HandshakeCl-05007d.o
 0001:00021870       ?dtor$24@?0???0HandshakeCl@@QEAA@XZ@4HA 0000000140022870 f   HandshakeCl-05007d.o
 0001:000218a0       ?dtor$25@?0???0HandshakeCl@@QEAA@XZ@4HA 00000001400228a0 f   HandshakeCl-05007d.o
 0001:000218d0       ?dtor$28@?0???0HandshakeCl@@QEAA@XZ@4HA 00000001400228d0 f   HandshakeCl-05007d.o
 0001:00021a20       ?dtor$5@?0???0HandshakeCl@@QEAA@AEBV0@@Z@4HA 0000000140022a20 f   HandshakeCl-05007d.o
 0001:00021a50       ?dtor$8@?0???0HandshakeCl@@QEAA@AEBV0@@Z@4HA 0000000140022a50 f   HandshakeCl-05007d.o
 0001:00021a80       ?dtor$16@?0???0HandshakeCl@@QEAA@AEBV0@@Z@4HA 0000000140022a80 f   HandshakeCl-05007d.o
 0001:00021ab0       ?dtor$17@?0???0HandshakeCl@@QEAA@AEBV0@@Z@4HA 0000000140022ab0 f   HandshakeCl-05007d.o
 0001:00021ae0       ?dtor$18@?0???0HandshakeCl@@QEAA@AEBV0@@Z@4HA 0000000140022ae0 f   HandshakeCl-05007d.o
 0001:00021b10       ?dtor$21@?0???0HandshakeCl@@QEAA@AEBV0@@Z@4HA 0000000140022b10 f   HandshakeCl-05007d.o
 0001:000221f0       ?dtor$52@?0??parseMessage@HandshakeCl@@AEAAIAEAVTlsMain@@AEAEAEAVEncryptTls@@@Z@4HA 00000001400231f0 f   HandshakeCl-05007d.o
 0001:00022230       ?dtor$55@?0??parseMessage@HandshakeCl@@AEAAIAEAVTlsMain@@AEAEAEAVEncryptTls@@@Z@4HA 0000000140023230 f   HandshakeCl-05007d.o
 0001:00022740       ?dtor$5@?0??makeClHelloBuf@HandshakeCl@@QEAAXAEAVCharBuf@@AEAVTlsMain@@AEAVEncryptTls@@@Z@4HA 0000000140023740 f   HandshakeCl-05007d.o
 0001:00022770       ?dtor$32@?0??makeClHelloBuf@HandshakeCl@@QEAAXAEAVCharBuf@@AEAVTlsMain@@AEAVEncryptTls@@@Z@4HA 0000000140023770 f   HandshakeCl-05007d.o
 0001:00022900       ?dtor$5@?0???0HandshakeSrv@@QEAA@XZ@4HA 0000000140023900 f   HandshakeSrv-3da1c0.o
 0001:00022930       ?dtor$8@?0???0HandshakeSrv@@QEAA@XZ@4HA 0000000140023930 f   HandshakeSrv-3da1c0.o
 0001:00022960       ?dtor$23@?0???0HandshakeSrv@@QEAA@XZ@4HA 0000000140023960 f   HandshakeSrv-3da1c0.o
 0001:00022990       ?dtor$24@?0???0HandshakeSrv@@QEAA@XZ@4HA 0000000140023990 f   HandshakeSrv-3da1c0.o
 0001:000229c0       ?dtor$25@?0???0HandshakeSrv@@QEAA@XZ@4HA 00000001400239c0 f   HandshakeSrv-3da1c0.o
 0001:000229f0       ?dtor$28@?0???0HandshakeSrv@@QEAA@XZ@4HA 00000001400239f0 f   HandshakeSrv-3da1c0.o
 0001:00022b40       ?dtor$5@?0???0HandshakeSrv@@QEAA@AEBV0@@Z@4HA 0000000140023b40 f   HandshakeSrv-3da1c0.o
 0001:00022b70       ?dtor$8@?0???0HandshakeSrv@@QEAA@AEBV0@@Z@4HA 0000000140023b70 f   HandshakeSrv-3da1c0.o
 0001:00022ba0       ?dtor$16@?0???0HandshakeSrv@@QEAA@AEBV0@@Z@4HA 0000000140023ba0 f   HandshakeSrv-3da1c0.o
 0001:00022bd0       ?dtor$17@?0???0HandshakeSrv@@QEAA@AEBV0@@Z@4HA 0000000140023bd0 f   HandshakeSrv-3da1c0.o
 0001:00022c00       ?dtor$18@?0???0HandshakeSrv@@QEAA@AEBV0@@Z@4HA 0000000140023c00 f   HandshakeSrv-3da1c0.o
 0001:00022c30       ?dtor$21@?0???0HandshakeSrv@@QEAA@AEBV0@@Z@4HA 0000000140023c30 f   HandshakeSrv-3da1c0.o
 0001:00023620       ?dtor$5@?0??makeSrvHelloBuf@HandshakeSrv@@QEAAXAEAVCharBuf@@AEAVTlsMain@@AEAVEncryptTls@@@Z@4HA 0000000140024620 f   HandshakeSrv-3da1c0.o
 0001:00023650       ?dtor$32@?0??makeSrvHelloBuf@HandshakeSrv@@QEAAXAEAVCharBuf@@AEAVTlsMain@@AEAVEncryptTls@@@Z@4HA 0000000140024650 f   HandshakeSrv-3da1c0.o
 0001:00023730       ?dtor$4@?0???1NetClient@@QEAA@XZ@4HA 0000000140024730 f   NetClient-b9e198.o
 0001:00023b50       ?dtor$4@?0???0Server@@QEAA@AEBV0@@Z@4HA 0000000140024b50 f   Server-368295.o
 0001:00023ce0       ?dtor$2@?0???0ServerHello@@QEAA@XZ@4HA 0000000140024ce0 f   ServerHello-562aa7.o
 0001:00023da0       ?dtor$3@?0???0ServerHello@@QEAA@AEBV0@@Z@4HA 0000000140024da0 f   ServerHello-562aa7.o
 0001:00023dd0       ?dtor$6@?0???0ServerHello@@QEAA@AEBV0@@Z@4HA 0000000140024dd0 f   ServerHello-562aa7.o
 0001:000240f9       $ehgcr_3_87                00000001400250f9     ServerHello-562aa7.o
 0001:000242a0       ?dtor$9@?0??parseBuffer@ServerHello@@QEAAIAEBVCharBuf@@AEAVTlsMain@@AEAVEncryptTls@@@Z@4HA 00000001400252a0 f   ServerHello-562aa7.o
 0001:000242e0       ?dtor$37@?0??parseBuffer@ServerHello@@QEAAIAEBVCharBuf@@AEAVTlsMain@@AEAVEncryptTls@@@Z@4HA 00000001400252e0 f   ServerHello-562aa7.o
 0001:00024320       ?dtor$88@?0??parseBuffer@ServerHello@@QEAAIAEBVCharBuf@@AEAVTlsMain@@AEAVEncryptTls@@@Z@4HA 0000000140025320 f   ServerHello-562aa7.o
 0001:00024360       ?dtor$91@?0??parseBuffer@ServerHello@@QEAAIAEBVCharBuf@@AEAVTlsMain@@AEAVEncryptTls@@@Z@4HA 0000000140025360 f   ServerHello-562aa7.o
 0001:000243a0       ?catch$94@?0??parseBuffer@ServerHello@@QEAAIAEBVCharBuf@@AEAVTlsMain@@AEAVEncryptTls@@@Z@4HA 00000001400253a0 f   ServerHello-562aa7.o
 0001:000243f0       ?catch$95@?0??parseBuffer@ServerHello@@QEAAIAEBVCharBuf@@AEAVTlsMain@@AEAVEncryptTls@@@Z@4HA 00000001400253f0 f   ServerHello-562aa7.o
 0001:00024960       ?dtor$12@?0??makeHelloBuf@ServerHello@@QEAAXAEAVCharBuf@@AEAVTlsMain@@AEAVEncryptTls@@@Z@4HA 0000000140025960 f   ServerHello-562aa7.o
 0001:000249a0       ?dtor$15@?0??makeHelloBuf@ServerHello@@QEAAXAEAVCharBuf@@AEAVTlsMain@@AEAVEncryptTls@@@Z@4HA 00000001400259a0 f   ServerHello-562aa7.o
 0001:000249e0       ?dtor$69@?0??makeHelloBuf@ServerHello@@QEAAXAEAVCharBuf@@AEAVTlsMain@@AEAVEncryptTls@@@Z@4HA 00000001400259e0 f   ServerHello-562aa7.o
 0001:00024a20       ?dtor$72@?0??makeHelloBuf@ServerHello@@QEAAXAEAVCharBuf@@AEAVTlsMain@@AEAVEncryptTls@@@Z@4HA 0000000140025a20 f   ServerHello-562aa7.o
 0001:00024a60       ?dtor$75@?0??makeHelloBuf@ServerHello@@QEAAXAEAVCharBuf@@AEAVTlsMain@@AEAVEncryptTls@@@Z@4HA 0000000140025a60 f   ServerHello-562aa7.o
 0001:00024aa0       ?dtor$78@?0??makeHelloBuf@ServerHello@@QEAAXAEAVCharBuf@@AEAVTlsMain@@AEAVEncryptTls@@@Z@4HA 0000000140025aa0 f   ServerHello-562aa7.o
 0001:00024ae0       ?dtor$81@?0??makeHelloBuf@ServerHello@@QEAAXAEAVCharBuf@@AEAVTlsMain@@AEAVEncryptTls@@@Z@4HA 0000000140025ae0 f   ServerHello-562aa7.o
 0001:00024b20       ?dtor$84@?0??makeHelloBuf@ServerHello@@QEAAXAEAVCharBuf@@AEAVTlsMain@@AEAVEncryptTls@@@Z@4HA 0000000140025b20 f   ServerHello-562aa7.o
 0001:00024be0       ?dtor$4@?0???0ServerTls@@QEAA@AEBV0@@Z@4HA 0000000140025be0 f   ServerTls-d1efc3.o
 0001:00024d60       ?dtor$16@?0??mainLoop@ServerTls@@QEAAXXZ@4HA 0000000140025d60 f   ServerTls-d1efc3.o
 0001:00024da0       ?dtor$22@?0??mainLoop@ServerTls@@QEAAXXZ@4HA 0000000140025da0 f   ServerTls-d1efc3.o
 0001:00024de0       ?dtor$24@?0??mainLoop@ServerTls@@QEAAXXZ@4HA 0000000140025de0 f   ServerTls-d1efc3.o
 0001:00024e70       ?dtor$4@?0???1SocketGetAddress@@QEAA@XZ@4HA 0000000140025e70 f   SocketsApiWin-91ffcb.o
 0001:00024fd0       ?dtor$20@?0??getAddressInfo@SocketGetAddress@@QEAA_NAEBVCharBuf@@0_N1@Z@4HA 0000000140025fd0 f   SocketsApiWin-91ffcb.o
 0001:00025010       ?dtor$23@?0??getAddressInfo@SocketGetAddress@@QEAA_NAEBVCharBuf@@0_N1@Z@4HA 0000000140026010 f   SocketsApiWin-91ffcb.o
 0001:000251d0       ?dtor$21@?0??getAddressBuf@SocketGetAddress@@SA_NAEAVCharBuf@@PEAUsockaddr@@@Z@4HA 00000001400261d0 f   SocketsApiWin-91ffcb.o
 0001:00025210       ?dtor$24@?0??getAddressBuf@SocketGetAddress@@SA_NAEAVCharBuf@@PEAUsockaddr@@@Z@4HA 0000000140026210 f   SocketsApiWin-91ffcb.o
 0001:00025300       ?dtor$2@?0???1SocketsApi@@QEAA@XZ@4HA 0000000140026300 f   SocketsApiWin-91ffcb.o
 0001:000256f0       ?dtor$15@?0??connectClient@SocketsApi@@SA_KAEBVCharBuf@@0@Z@4HA 00000001400266f0 f   SocketsApiWin-91ffcb.o
 0001:00025730       ?dtor$57@?0??connectClient@SocketsApi@@SA_KAEBVCharBuf@@0@Z@4HA 0000000140026730 f   SocketsApiWin-91ffcb.o
 0001:00025770       ?dtor$76@?0??connectClient@SocketsApi@@SA_KAEBVCharBuf@@0@Z@4HA 0000000140026770 f   SocketsApiWin-91ffcb.o
 0001:000257b0       ?dtor$78@?0??connectClient@SocketsApi@@SA_KAEBVCharBuf@@0@Z@4HA 00000001400267b0 f   SocketsApiWin-91ffcb.o
 0001:00025b00       ?dtor$12@?0??openServer@SocketsApi@@SA_KPEBD0_N@Z@4HA 0000000140026b00 f   SocketsApiWin-91ffcb.o
 0001:00025b30       ?dtor$15@?0??openServer@SocketsApi@@SA_KPEBD0_N@Z@4HA 0000000140026b30 f   SocketsApiWin-91ffcb.o
 0001:00025b60       ?dtor$22@?0??openServer@SocketsApi@@SA_KPEBD0_N@Z@4HA 0000000140026b60 f   SocketsApiWin-91ffcb.o
 0001:00025b90       ?dtor$63@?0??openServer@SocketsApi@@SA_KPEBD0_N@Z@4HA 0000000140026b90 f   SocketsApiWin-91ffcb.o
 0001:00025bc0       ?dtor$66@?0??openServer@SocketsApi@@SA_KPEBD0_N@Z@4HA 0000000140026bc0 f   SocketsApiWin-91ffcb.o
 0001:00025be0       ?dtor$67@?0??openServer@SocketsApi@@SA_KPEBD0_N@Z@4HA 0000000140026be0 f   SocketsApiWin-91ffcb.o
 0001:00025d30       ?dtor$4@?0??acceptConnect@SocketsApi@@SA_K_KAEAVCharBuf@@@Z@4HA 0000000140026d30 f   SocketsApiWin-91ffcb.o
 0001:00025d60       ?dtor$17@?0??acceptConnect@SocketsApi@@SA_K_KAEAVCharBuf@@@Z@4HA 0000000140026d60 f   SocketsApiWin-91ffcb.o
 0001:00025e6b       $ehgcr_14_17               0000000140026e6b     SocketsApiWin-91ffcb.o
 0001:00025e80       ?dtor$18@?0??sendCharBuf@SocketsApi@@SAH_KAEBVCharBuf@@@Z@4HA 0000000140026e80 f   SocketsApiWin-91ffcb.o
 0001:00025eb0       ?catch$21@?0??sendCharBuf@SocketsApi@@SAH_KAEBVCharBuf@@@Z@4HA 0000000140026eb0 f   SocketsApiWin-91ffcb.o
 0001:00025ef0       ?catch$22@?0??sendCharBuf@SocketsApi@@SAH_KAEBVCharBuf@@@Z@4HA 0000000140026ef0 f   SocketsApiWin-91ffcb.o
 0001:00025fba       $ehgcr_15_3                0000000140026fba     SocketsApiWin-91ffcb.o
 0001:00026020       ?catch$19@?0??receiveCharBuf@SocketsApi@@SA_N_KAEAVCharBuf@@@Z@4HA 0000000140027020 f   SocketsApiWin-91ffcb.o
 0001:000261a0       ?dtor$5@?0???1SrvClient@@UEAA@XZ@4HA 00000001400271a0 f   SrvClient-4b1a7e.o
 0001:000262d0       ?dtor$7@?0???_GSrvClient@@UEAAPEAXI@Z@4HA 00000001400272d0 f i SrvClient-4b1a7e.o
 0001:00026360       ?dtor$5@?0???0SrvClTls@@IEAA@XZ@4HA 0000000140027360 f   SrvClTls-9ff770.o
 0001:00026380       ?dtor$6@?0???0SrvClTls@@IEAA@XZ@4HA 0000000140027380 f   SrvClTls-9ff770.o
 0001:000263a0       ?dtor$7@?0???0SrvClTls@@IEAA@XZ@4HA 00000001400273a0 f   SrvClTls-9ff770.o
 0001:00026440       ?dtor$5@?0???0SrvClTls@@QEAA@_K@Z@4HA 0000000140027440 f   SrvClTls-9ff770.o
 0001:00026470       ?dtor$6@?0???0SrvClTls@@QEAA@_K@Z@4HA 0000000140027470 f   SrvClTls-9ff770.o
 0001:000264a0       ?dtor$7@?0???0SrvClTls@@QEAA@_K@Z@4HA 00000001400274a0 f   SrvClTls-9ff770.o
 0001:00026520       ?dtor$2@?0???1SrvClTls@@UEAA@XZ@4HA 0000000140027520 f   SrvClTls-9ff770.o
 0001:00026683       $ehgcr_7_28                0000000140027683     SrvClTls-9ff770.o
 0001:000266a0       ?dtor$9@?0??processData@SrvClTls@@UEAAHXZ@4HA 00000001400276a0 f   SrvClTls-9ff770.o
 0001:000266d0       ?dtor$31@?0??processData@SrvClTls@@UEAAHXZ@4HA 00000001400276d0 f   SrvClTls-9ff770.o
 0001:00026700       ?dtor$34@?0??processData@SrvClTls@@UEAAHXZ@4HA 0000000140027700 f   SrvClTls-9ff770.o
 0001:00026730       ?dtor$37@?0??processData@SrvClTls@@UEAAHXZ@4HA 0000000140027730 f   SrvClTls-9ff770.o
 0001:00026760       ?catch$40@?0??processData@SrvClTls@@UEAAHXZ@4HA 0000000140027760 f   SrvClTls-9ff770.o
 0001:000267a0       ?catch$41@?0??processData@SrvClTls@@UEAAHXZ@4HA 00000001400277a0 f   SrvClTls-9ff770.o
 0001:00026c60       ?dtor$29@?0???0TlsMain@@QEAA@XZ@4HA 0000000140027c60 f i SrvClTls-9ff770.o
 0001:00026c90       ?dtor$32@?0???0TlsMain@@QEAA@XZ@4HA 0000000140027c90 f i SrvClTls-9ff770.o
 0001:00026cc0       ?dtor$35@?0???0TlsMain@@QEAA@XZ@4HA 0000000140027cc0 f i SrvClTls-9ff770.o
 0001:00026cf0       ?dtor$38@?0???0TlsMain@@QEAA@XZ@4HA 0000000140027cf0 f i SrvClTls-9ff770.o
 0001:00026d20       ?dtor$41@?0???0TlsMain@@QEAA@XZ@4HA 0000000140027d20 f i SrvClTls-9ff770.o
 0001:00026d50       ?dtor$44@?0???0TlsMain@@QEAA@XZ@4HA 0000000140027d50 f i SrvClTls-9ff770.o
 0001:00026d80       ?dtor$47@?0???0TlsMain@@QEAA@XZ@4HA 0000000140027d80 f i SrvClTls-9ff770.o
 0001:00026db0       ?dtor$50@?0???0TlsMain@@QEAA@XZ@4HA 0000000140027db0 f i SrvClTls-9ff770.o
 0001:00026de0       ?dtor$53@?0???0TlsMain@@QEAA@XZ@4HA 0000000140027de0 f i SrvClTls-9ff770.o
 0001:00026e10       ?dtor$56@?0???0TlsMain@@QEAA@XZ@4HA 0000000140027e10 f i SrvClTls-9ff770.o
 0001:00026e40       ?dtor$59@?0???0TlsMain@@QEAA@XZ@4HA 0000000140027e40 f i SrvClTls-9ff770.o
 0001:00026e70       ?dtor$62@?0???0TlsMain@@QEAA@XZ@4HA 0000000140027e70 f i SrvClTls-9ff770.o
 0001:00026ea0       ?dtor$65@?0???0TlsMain@@QEAA@XZ@4HA 0000000140027ea0 f i SrvClTls-9ff770.o
 0001:00026ed0       ?dtor$68@?0???0TlsMain@@QEAA@XZ@4HA 0000000140027ed0 f i SrvClTls-9ff770.o
 0001:00026f00       ?dtor$69@?0???0TlsMain@@QEAA@XZ@4HA 0000000140027f00 f i SrvClTls-9ff770.o
 0001:00026f30       ?dtor$72@?0???0TlsMain@@QEAA@XZ@4HA 0000000140027f30 f i SrvClTls-9ff770.o
 0001:00026f60       ?dtor$75@?0???0TlsMain@@QEAA@XZ@4HA 0000000140027f60 f i SrvClTls-9ff770.o
 0001:00026f90       ?dtor$78@?0???0TlsMain@@QEAA@XZ@4HA 0000000140027f90 f i SrvClTls-9ff770.o
 0001:00026fc0       ?dtor$81@?0???0TlsMain@@QEAA@XZ@4HA 0000000140027fc0 f i SrvClTls-9ff770.o
 0001:00026ff0       ?dtor$84@?0???0TlsMain@@QEAA@XZ@4HA 0000000140027ff0 f i SrvClTls-9ff770.o
 0001:00027020       ?dtor$87@?0???0TlsMain@@QEAA@XZ@4HA 0000000140028020 f i SrvClTls-9ff770.o
 0001:00027050       ?dtor$90@?0???0TlsMain@@QEAA@XZ@4HA 0000000140028050 f i SrvClTls-9ff770.o
 0001:00027080       ?dtor$93@?0???0TlsMain@@QEAA@XZ@4HA 0000000140028080 f i SrvClTls-9ff770.o
 0001:000270b0       ?dtor$96@?0???0TlsMain@@QEAA@XZ@4HA 00000001400280b0 f i SrvClTls-9ff770.o
 0001:000270e0       ?dtor$99@?0???0TlsMain@@QEAA@XZ@4HA 00000001400280e0 f i SrvClTls-9ff770.o
 0001:00027110       ?dtor$102@?0???0TlsMain@@QEAA@XZ@4HA 0000000140028110 f i SrvClTls-9ff770.o
 0001:00027140       ?dtor$105@?0???0TlsMain@@QEAA@XZ@4HA 0000000140028140 f i SrvClTls-9ff770.o
 0001:00027360       ?dtor$3@?0???0TlsMainSrv@@QEAA@XZ@4HA 0000000140028360 f i SrvClTls-9ff770.o
 0001:00027390       ?dtor$21@?0???0TlsMainSrv@@QEAA@XZ@4HA 0000000140028390 f i SrvClTls-9ff770.o
 0001:000273c0       ?dtor$24@?0???0TlsMainSrv@@QEAA@XZ@4HA 00000001400283c0 f i SrvClTls-9ff770.o
 0001:000273f0       ?dtor$27@?0???0TlsMainSrv@@QEAA@XZ@4HA 00000001400283f0 f i SrvClTls-9ff770.o
 0001:00027420       ?dtor$33@?0???0TlsMainSrv@@QEAA@XZ@4HA 0000000140028420 f i SrvClTls-9ff770.o
 0001:00027450       ?dtor$34@?0???0TlsMainSrv@@QEAA@XZ@4HA 0000000140028450 f i SrvClTls-9ff770.o
 0001:00027480       ?dtor$35@?0???0TlsMainSrv@@QEAA@XZ@4HA 0000000140028480 f i SrvClTls-9ff770.o
 0001:000274b0       ?dtor$38@?0???0TlsMainSrv@@QEAA@XZ@4HA 00000001400284b0 f i SrvClTls-9ff770.o
 0001:000274e0       ?dtor$41@?0???0TlsMainSrv@@QEAA@XZ@4HA 00000001400284e0 f i SrvClTls-9ff770.o
 0001:00027510       ?dtor$44@?0???0TlsMainSrv@@QEAA@XZ@4HA 0000000140028510 f i SrvClTls-9ff770.o
 0001:00027760       ?dtor$4@?0???_GSrvClTls@@UEAAPEAXI@Z@4HA 0000000140028760 f i SrvClTls-9ff770.o
 0001:00027bd0       ?dtor$8@?0???0EncryptTls@@QEAA@XZ@4HA 0000000140028bd0 f i SrvClTls-9ff770.o
 0001:00027c00       ?dtor$11@?0???0EncryptTls@@QEAA@XZ@4HA 0000000140028c00 f i SrvClTls-9ff770.o
 0001:00027c30       ?dtor$14@?0???0EncryptTls@@QEAA@XZ@4HA 0000000140028c30 f i SrvClTls-9ff770.o
 0001:00027c60       ?dtor$17@?0???0EncryptTls@@QEAA@XZ@4HA 0000000140028c60 f i SrvClTls-9ff770.o
 0001:00027c90       ?dtor$20@?0???0EncryptTls@@QEAA@XZ@4HA 0000000140028c90 f i SrvClTls-9ff770.o
 0001:00027cc0       ?dtor$23@?0???0EncryptTls@@QEAA@XZ@4HA 0000000140028cc0 f i SrvClTls-9ff770.o
 0001:00027cf0       ?dtor$24@?0???0EncryptTls@@QEAA@XZ@4HA 0000000140028cf0 f i SrvClTls-9ff770.o
 0001:00027e70       ?dtor$4@?0??processOutgoing@TlsMainCl@@QEAAHXZ@4HA 0000000140028e70 f   TlsMainCl-f005f0.o
 0001:00027ea0       ?dtor$13@?0??processOutgoing@TlsMainCl@@QEAAHXZ@4HA 0000000140028ea0 f   TlsMainCl-f005f0.o
 0001:000284c0       ?dtor$8@?0??processIncoming@TlsMainCl@@QEAAHXZ@4HA 00000001400294c0 f   TlsMainCl-f005f0.o
 0001:00028500       ?dtor$94@?0??processIncoming@TlsMainCl@@QEAAHXZ@4HA 0000000140029500 f   TlsMainCl-f005f0.o
 0001:00028540       ?dtor$97@?0??processIncoming@TlsMainCl@@QEAAHXZ@4HA 0000000140029540 f   TlsMainCl-f005f0.o
 0001:00028580       ?dtor$108@?0??processIncoming@TlsMainCl@@QEAAHXZ@4HA 0000000140029580 f   TlsMainCl-f005f0.o
 0001:00028940       ?dtor$10@?0??processHandshake@TlsMainCl@@QEAAHAEBVCharBuf@@@Z@4HA 0000000140029940 f   TlsMainCl-f005f0.o
 0001:00028980       ?dtor$45@?0??processHandshake@TlsMainCl@@QEAAHAEBVCharBuf@@@Z@4HA 0000000140029980 f   TlsMainCl-f005f0.o
 0001:00028cc0       ?dtor$4@?0??processAppData@TlsMainCl@@QEAAHAEBVCharBuf@@@Z@4HA 0000000140029cc0 f   TlsMainCl-f005f0.o
 0001:00028cf0       ?dtor$49@?0??processAppData@TlsMainCl@@QEAAHAEBVCharBuf@@@Z@4HA 0000000140029cf0 f   TlsMainCl-f005f0.o
 0001:00028ea0       ?dtor$24@?0??sendTestVecFinished@TlsMainCl@@QEAA_NXZ@4HA 0000000140029ea0 f   TlsMainCl-f005f0.o
 0001:00028ed0       ?dtor$27@?0??sendTestVecFinished@TlsMainCl@@QEAA_NXZ@4HA 0000000140029ed0 f   TlsMainCl-f005f0.o
 0001:00028f00       ?dtor$30@?0??sendTestVecFinished@TlsMainCl@@QEAA_NXZ@4HA 0000000140029f00 f   TlsMainCl-f005f0.o
 0001:00028f30       ?dtor$33@?0??sendTestVecFinished@TlsMainCl@@QEAA_NXZ@4HA 0000000140029f30 f   TlsMainCl-f005f0.o
 0001:00028f60       ?dtor$36@?0??sendTestVecFinished@TlsMainCl@@QEAA_NXZ@4HA 0000000140029f60 f   TlsMainCl-f005f0.o
 0001:00028f90       ?dtor$39@?0??sendTestVecFinished@TlsMainCl@@QEAA_NXZ@4HA 0000000140029f90 f   TlsMainCl-f005f0.o
 0001:00029620       ?dtor$28@?0??startTestVecHandshake@TlsMainCl@@QEAA_NAEBVCharBuf@@0@Z@4HA 000000014002a620 f   TlsMainCl-f005f0.o
 0001:00029660       ?dtor$31@?0??startTestVecHandshake@TlsMainCl@@QEAA_NAEBVCharBuf@@0@Z@4HA 000000014002a660 f   TlsMainCl-f005f0.o
 0001:000296a0       ?dtor$34@?0??startTestVecHandshake@TlsMainCl@@QEAA_NAEBVCharBuf@@0@Z@4HA 000000014002a6a0 f   TlsMainCl-f005f0.o
 0001:000296e0       ?dtor$83@?0??startTestVecHandshake@TlsMainCl@@QEAA_NAEBVCharBuf@@0@Z@4HA 000000014002a6e0 f   TlsMainCl-f005f0.o
 0001:00029720       ?dtor$86@?0??startTestVecHandshake@TlsMainCl@@QEAA_NAEBVCharBuf@@0@Z@4HA 000000014002a720 f   TlsMainCl-f005f0.o
 0001:00029760       ?dtor$89@?0??startTestVecHandshake@TlsMainCl@@QEAA_NAEBVCharBuf@@0@Z@4HA 000000014002a760 f   TlsMainCl-f005f0.o
 0001:000297a0       ?dtor$92@?0??startTestVecHandshake@TlsMainCl@@QEAA_NAEBVCharBuf@@0@Z@4HA 000000014002a7a0 f   TlsMainCl-f005f0.o
 0001:000297e0       ?dtor$95@?0??startTestVecHandshake@TlsMainCl@@QEAA_NAEBVCharBuf@@0@Z@4HA 000000014002a7e0 f   TlsMainCl-f005f0.o
 0001:00029820       ?dtor$98@?0??startTestVecHandshake@TlsMainCl@@QEAA_NAEBVCharBuf@@0@Z@4HA 000000014002a820 f   TlsMainCl-f005f0.o
 0001:00029860       ?dtor$101@?0??startTestVecHandshake@TlsMainCl@@QEAA_NAEBVCharBuf@@0@Z@4HA 000000014002a860 f   TlsMainCl-f005f0.o
 0001:000298a0       ?dtor$104@?0??startTestVecHandshake@TlsMainCl@@QEAA_NAEBVCharBuf@@0@Z@4HA 000000014002a8a0 f   TlsMainCl-f005f0.o
 0001:000298e0       ?dtor$107@?0??startTestVecHandshake@TlsMainCl@@QEAA_NAEBVCharBuf@@0@Z@4HA 000000014002a8e0 f   TlsMainCl-f005f0.o
 0001:00029920       ?dtor$110@?0??startTestVecHandshake@TlsMainCl@@QEAA_NAEBVCharBuf@@0@Z@4HA 000000014002a920 f   TlsMainCl-f005f0.o
 0001:00029960       ?dtor$113@?0??startTestVecHandshake@TlsMainCl@@QEAA_NAEBVCharBuf@@0@Z@4HA 000000014002a960 f   TlsMainCl-f005f0.o
 0001:000299a0       ?dtor$116@?0??startTestVecHandshake@TlsMainCl@@QEAA_NAEBVCharBuf@@0@Z@4HA 000000014002a9a0 f   TlsMainCl-f005f0.o
 0001:000299e0       ?dtor$119@?0??startTestVecHandshake@TlsMainCl@@QEAA_NAEBVCharBuf@@0@Z@4HA 000000014002a9e0 f   TlsMainCl-f005f0.o
 0001:00029c40       ?dtor$3@?0??startHandshake@TlsMainCl@@QEAA_NAEBVCharBuf@@0@Z@4HA 000000014002ac40 f   TlsMainCl-f005f0.o
 0001:00029c70       ?dtor$19@?0??startHandshake@TlsMainCl@@QEAA_NAEBVCharBuf@@0@Z@4HA 000000014002ac70 f   TlsMainCl-f005f0.o
 0001:00029ca0       ?dtor$22@?0??startHandshake@TlsMainCl@@QEAA_NAEBVCharBuf@@0@Z@4HA 000000014002aca0 f   TlsMainCl-f005f0.o
 0001:00029cd0       ?dtor$39@?0??startHandshake@TlsMainCl@@QEAA_NAEBVCharBuf@@0@Z@4HA 000000014002acd0 f   TlsMainCl-f005f0.o
 0001:00029d00       ?dtor$42@?0??startHandshake@TlsMainCl@@QEAA_NAEBVCharBuf@@0@Z@4HA 000000014002ad00 f   TlsMainCl-f005f0.o
 0001:00029d30       ?dtor$45@?0??startHandshake@TlsMainCl@@QEAA_NAEBVCharBuf@@0@Z@4HA 000000014002ad30 f   TlsMainCl-f005f0.o
 0001:0002a210       ?dtor$11@?0??setTestVecServerCertOnly@TlsMainSrv@@QEAAXAEAVCharBuf@@@Z@4HA 000000014002b210 f   TlsMainSrv-e73a4f.o
 0001:0002a240       ?dtor$14@?0??setTestVecServerCertOnly@TlsMainSrv@@QEAAXAEAVCharBuf@@@Z@4HA 000000014002b240 f   TlsMainSrv-e73a4f.o
 0001:0002a270       ?dtor$17@?0??setTestVecServerCertOnly@TlsMainSrv@@QEAAXAEAVCharBuf@@@Z@4HA 000000014002b270 f   TlsMainSrv-e73a4f.o
 0001:0002a870       ?dtor$28@?0??setTestVecServerHello@TlsMainSrv@@QEAAXAEAVCharBuf@@AEAVTlsMain@@@Z@4HA 000000014002b870 f   TlsMainSrv-e73a4f.o
 0001:0002a8b0       ?dtor$31@?0??setTestVecServerHello@TlsMainSrv@@QEAAXAEAVCharBuf@@AEAVTlsMain@@@Z@4HA 000000014002b8b0 f   TlsMainSrv-e73a4f.o
 0001:0002a8f0       ?dtor$34@?0??setTestVecServerHello@TlsMainSrv@@QEAAXAEAVCharBuf@@AEAVTlsMain@@@Z@4HA 000000014002b8f0 f   TlsMainSrv-e73a4f.o
 0001:0002a930       ?dtor$74@?0??setTestVecServerHello@TlsMainSrv@@QEAAXAEAVCharBuf@@AEAVTlsMain@@@Z@4HA 000000014002b930 f   TlsMainSrv-e73a4f.o
 0001:0002a970       ?dtor$77@?0??setTestVecServerHello@TlsMainSrv@@QEAAXAEAVCharBuf@@AEAVTlsMain@@@Z@4HA 000000014002b970 f   TlsMainSrv-e73a4f.o
 0001:0002a9b0       ?dtor$80@?0??setTestVecServerHello@TlsMainSrv@@QEAAXAEAVCharBuf@@AEAVTlsMain@@@Z@4HA 000000014002b9b0 f   TlsMainSrv-e73a4f.o
 0001:0002a9f0       ?dtor$83@?0??setTestVecServerHello@TlsMainSrv@@QEAAXAEAVCharBuf@@AEAVTlsMain@@@Z@4HA 000000014002b9f0 f   TlsMainSrv-e73a4f.o
 0001:0002aa30       ?dtor$86@?0??setTestVecServerHello@TlsMainSrv@@QEAAXAEAVCharBuf@@AEAVTlsMain@@@Z@4HA 000000014002ba30 f   TlsMainSrv-e73a4f.o
 0001:0002aa70       ?dtor$89@?0??setTestVecServerHello@TlsMainSrv@@QEAAXAEAVCharBuf@@AEAVTlsMain@@@Z@4HA 000000014002ba70 f   TlsMainSrv-e73a4f.o
 0001:0002aab0       ?dtor$92@?0??setTestVecServerHello@TlsMainSrv@@QEAAXAEAVCharBuf@@AEAVTlsMain@@@Z@4HA 000000014002bab0 f   TlsMainSrv-e73a4f.o
 0001:0002aaf0       ?dtor$95@?0??setTestVecServerHello@TlsMainSrv@@QEAAXAEAVCharBuf@@AEAVTlsMain@@@Z@4HA 000000014002baf0 f   TlsMainSrv-e73a4f.o
 0001:0002ab30       ?dtor$98@?0??setTestVecServerHello@TlsMainSrv@@QEAAXAEAVCharBuf@@AEAVTlsMain@@@Z@4HA 000000014002bb30 f   TlsMainSrv-e73a4f.o
 0001:0002ab70       ?dtor$101@?0??setTestVecServerHello@TlsMainSrv@@QEAAXAEAVCharBuf@@AEAVTlsMain@@@Z@4HA 000000014002bb70 f   TlsMainSrv-e73a4f.o
 0001:0002abb0       ?dtor$104@?0??setTestVecServerHello@TlsMainSrv@@QEAAXAEAVCharBuf@@AEAVTlsMain@@@Z@4HA 000000014002bbb0 f   TlsMainSrv-e73a4f.o
 0001:0002abf0       ?dtor$107@?0??setTestVecServerHello@TlsMainSrv@@QEAAXAEAVCharBuf@@AEAVTlsMain@@@Z@4HA 000000014002bbf0 f   TlsMainSrv-e73a4f.o
 0001:0002b050       ?dtor$44@?0??processIncoming@TlsMainSrv@@QEAAHAEBVCharBuf@@AEAVTlsMain@@@Z@4HA 000000014002c050 f   TlsMainSrv-e73a4f.o
 0001:0002b090       ?dtor$52@?0??processIncoming@TlsMainSrv@@QEAAHAEBVCharBuf@@AEAVTlsMain@@@Z@4HA 000000014002c090 f   TlsMainSrv-e73a4f.o
 0001:0002b650       ?dtor$10@?0??processHandshake@TlsMainSrv@@QEAAHAEBVCharBuf@@AEAVTlsMain@@@Z@4HA 000000014002c650 f   TlsMainSrv-e73a4f.o
 0001:0002b690       ?dtor$70@?0??processHandshake@TlsMainSrv@@QEAAHAEBVCharBuf@@AEAVTlsMain@@@Z@4HA 000000014002c690 f   TlsMainSrv-e73a4f.o
 0001:0002b6d0       ?dtor$73@?0??processHandshake@TlsMainSrv@@QEAAHAEBVCharBuf@@AEAVTlsMain@@@Z@4HA 000000014002c6d0 f   TlsMainSrv-e73a4f.o
 0001:0002b710       ?dtor$76@?0??processHandshake@TlsMainSrv@@QEAAHAEBVCharBuf@@AEAVTlsMain@@@Z@4HA 000000014002c710 f   TlsMainSrv-e73a4f.o
 0001:0002b750       ?dtor$79@?0??processHandshake@TlsMainSrv@@QEAAHAEBVCharBuf@@AEAVTlsMain@@@Z@4HA 000000014002c750 f   TlsMainSrv-e73a4f.o
 0001:0002b790       ?dtor$89@?0??processHandshake@TlsMainSrv@@QEAAHAEBVCharBuf@@AEAVTlsMain@@@Z@4HA 000000014002c790 f   TlsMainSrv-e73a4f.o
 0001:0002ba70       ?dtor$4@?0??processAppData@TlsMainSrv@@QEAAHAEBVCharBuf@@AEAVTlsMain@@@Z@4HA 000000014002ca70 f   TlsMainSrv-e73a4f.o
 0001:0002baa0       ?dtor$49@?0??processAppData@TlsMainSrv@@QEAAHAEBVCharBuf@@AEAVTlsMain@@@Z@4HA 000000014002caa0 f   TlsMainSrv-e73a4f.o
 0001:0002bc10       ?dtor$12@?0??setTestVecServerCertOuter@TlsMainSrv@@QEAAXAEAVCharBuf@@@Z@4HA 000000014002cc10 f   TlsMainSrv-e73a4f.o
 0001:0002bc40       ?dtor$15@?0??setTestVecServerCertOuter@TlsMainSrv@@QEAAXAEAVCharBuf@@@Z@4HA 000000014002cc40 f   TlsMainSrv-e73a4f.o
 0001:0002bc70       ?dtor$18@?0??setTestVecServerCertOuter@TlsMainSrv@@QEAAXAEAVCharBuf@@@Z@4HA 000000014002cc70 f   TlsMainSrv-e73a4f.o
 0001:0002bd60       ?dtor$11@?0??setTestVecServerEncExten@TlsMainSrv@@QEAAXAEAVCharBuf@@@Z@4HA 000000014002cd60 f   TlsMainSrv-e73a4f.o
 0001:0002bd90       ?dtor$14@?0??setTestVecServerEncExten@TlsMainSrv@@QEAAXAEAVCharBuf@@@Z@4HA 000000014002cd90 f   TlsMainSrv-e73a4f.o
 0001:0002bdc0       ?dtor$17@?0??setTestVecServerEncExten@TlsMainSrv@@QEAAXAEAVCharBuf@@@Z@4HA 000000014002cdc0 f   TlsMainSrv-e73a4f.o
 0001:0002beb0       ?dtor$11@?0??setTestVecServerCertVerify@TlsMainSrv@@QEAAXAEAVCharBuf@@@Z@4HA 000000014002ceb0 f   TlsMainSrv-e73a4f.o
 0001:0002bee0       ?dtor$14@?0??setTestVecServerCertVerify@TlsMainSrv@@QEAAXAEAVCharBuf@@@Z@4HA 000000014002cee0 f   TlsMainSrv-e73a4f.o
 0001:0002bf10       ?dtor$17@?0??setTestVecServerCertVerify@TlsMainSrv@@QEAAXAEAVCharBuf@@@Z@4HA 000000014002cf10 f   TlsMainSrv-e73a4f.o
 0001:0002c000       ?dtor$11@?0??setTestVecServerFinished@TlsMainSrv@@QEAAXAEAVCharBuf@@@Z@4HA 000000014002d000 f   TlsMainSrv-e73a4f.o
 0001:0002c030       ?dtor$14@?0??setTestVecServerFinished@TlsMainSrv@@QEAAXAEAVCharBuf@@@Z@4HA 000000014002d030 f   TlsMainSrv-e73a4f.o
 0001:0002c060       ?dtor$17@?0??setTestVecServerFinished@TlsMainSrv@@QEAAXAEAVCharBuf@@@Z@4HA 000000014002d060 f   TlsMainSrv-e73a4f.o
 0001:0002c150       ?dtor$11@?0??setTestVecNewSessionTicket@TlsMainSrv@@QEAAXAEAVCharBuf@@@Z@4HA 000000014002d150 f   TlsMainSrv-e73a4f.o
 0001:0002c180       ?dtor$14@?0??setTestVecNewSessionTicket@TlsMainSrv@@QEAAXAEAVCharBuf@@@Z@4HA 000000014002d180 f   TlsMainSrv-e73a4f.o
 0001:0002c1b0       ?dtor$17@?0??setTestVecNewSessionTicket@TlsMainSrv@@QEAAXAEAVCharBuf@@@Z@4HA 000000014002d1b0 f   TlsMainSrv-e73a4f.o
 0001:0002d6f0       ?dtor$69@?0??encryptTest@Aes@@QEAAXXZ@4HA 000000014002e6f0 f   Aes-1aca48.o
 0001:0002d720       ?dtor$72@?0??encryptTest@Aes@@QEAAXXZ@4HA 000000014002e720 f   Aes-1aca48.o
 0001:0002d750       ?dtor$75@?0??encryptTest@Aes@@QEAAXXZ@4HA 000000014002e750 f   Aes-1aca48.o
 0001:0002d780       ?dtor$88@?0??encryptTest@Aes@@QEAAXXZ@4HA 000000014002e780 f   Aes-1aca48.o
 0001:0002d7b0       ?dtor$91@?0??encryptTest@Aes@@QEAAXXZ@4HA 000000014002e7b0 f   Aes-1aca48.o
 0001:0002d7e0       ?dtor$94@?0??encryptTest@Aes@@QEAAXXZ@4HA 000000014002e7e0 f   Aes-1aca48.o
 0001:0002dfa0       ?dtor$20@?0??encryptTest@AesGalois@@QEAAXXZ@4HA 000000014002efa0 f   AesGalois-c9e363.o
 0001:0002dfd0       ?dtor$56@?0??encryptTest@AesGalois@@QEAAXXZ@4HA 000000014002efd0 f   AesGalois-c9e363.o
 0001:0002e000       ?dtor$59@?0??encryptTest@AesGalois@@QEAAXXZ@4HA 000000014002f000 f   AesGalois-c9e363.o
 0001:0002e030       ?dtor$62@?0??encryptTest@AesGalois@@QEAAXXZ@4HA 000000014002f030 f   AesGalois-c9e363.o
 0001:0002e060       ?dtor$65@?0??encryptTest@AesGalois@@QEAAXXZ@4HA 000000014002f060 f   AesGalois-c9e363.o
 0001:0002e090       ?dtor$68@?0??encryptTest@AesGalois@@QEAAXXZ@4HA 000000014002f090 f   AesGalois-c9e363.o
 0001:0002e0c0       ?dtor$71@?0??encryptTest@AesGalois@@QEAAXXZ@4HA 000000014002f0c0 f   AesGalois-c9e363.o
 0001:0002e0f0       ?dtor$74@?0??encryptTest@AesGalois@@QEAAXXZ@4HA 000000014002f0f0 f   AesGalois-c9e363.o
 0001:0002e120       ?dtor$77@?0??encryptTest@AesGalois@@QEAAXXZ@4HA 000000014002f120 f   AesGalois-c9e363.o
 0001:0002e2a0       ?dtor$6@?0??encryptCharBuf@AesGalois@@QEAAXAEBVCharBuf@@00AEAV2@@Z@4HA 000000014002f2a0 f   AesGalois-c9e363.o
 0001:0002e2d0       ?dtor$9@?0??encryptCharBuf@AesGalois@@QEAAXAEBVCharBuf@@00AEAV2@@Z@4HA 000000014002f2d0 f   AesGalois-c9e363.o
 0001:0002e5c0       ?dtor$9@?0??decryptCharBuf@AesGalois@@QEAAXAEBVCharBuf@@00AEAV2@@Z@4HA 000000014002f5c0 f   AesGalois-c9e363.o
 0001:0002e600       ?dtor$12@?0??decryptCharBuf@AesGalois@@QEAAXAEBVCharBuf@@00AEAV2@@Z@4HA 000000014002f600 f   AesGalois-c9e363.o
 0001:0002e640       ?dtor$39@?0??decryptCharBuf@AesGalois@@QEAAXAEBVCharBuf@@00AEAV2@@Z@4HA 000000014002f640 f   AesGalois-c9e363.o
 0001:0002e680       ?dtor$50@?0??decryptCharBuf@AesGalois@@QEAAXAEBVCharBuf@@00AEAV2@@Z@4HA 000000014002f680 f   AesGalois-c9e363.o
 0001:0002e6c0       ?dtor$53@?0??decryptCharBuf@AesGalois@@QEAAXAEBVCharBuf@@00AEAV2@@Z@4HA 000000014002f6c0 f   AesGalois-c9e363.o
 0001:0002e700       ?dtor$56@?0??decryptCharBuf@AesGalois@@QEAAXAEBVCharBuf@@00AEAV2@@Z@4HA 000000014002f700 f   AesGalois-c9e363.o
 0001:0002e9d0       ?dtor$16@?0??setJ0fromIV@AesGalois@@AEAAXAEBVCharBuf@@AEAVPolynom128@@@Z@4HA 000000014002f9d0 f   AesGalois-c9e363.o
 0001:0002ea10       ?dtor$35@?0??setJ0fromIV@AesGalois@@AEAAXAEBVCharBuf@@AEAVPolynom128@@@Z@4HA 000000014002fa10 f   AesGalois-c9e363.o
 0001:0002fad0       ?dtor$11@?0??makeAuthTag@AesGalois@@AEAAXAEBVCharBuf@@0AEBVPolynom128@@AEAV2@@Z@4HA 0000000140030ad0 f   AesGalois-c9e363.o
 0001:0002fb10       ?dtor$36@?0??makeAuthTag@AesGalois@@AEAAXAEBVCharBuf@@0AEBVPolynom128@@AEAV2@@Z@4HA 0000000140030b10 f   AesGalois-c9e363.o
 0001:0002fb50       ?dtor$39@?0??makeAuthTag@AesGalois@@AEAAXAEBVCharBuf@@0AEBVPolynom128@@AEAV2@@Z@4HA 0000000140030b50 f   AesGalois-c9e363.o
 0001:0002fb90       ?dtor$42@?0??makeAuthTag@AesGalois@@AEAAXAEBVCharBuf@@0AEBVPolynom128@@AEAV2@@Z@4HA 0000000140030b90 f   AesGalois-c9e363.o
 0001:00030d10       ?dtor$15@?0??test@Base64@@QEAAXXZ@4HA 0000000140031d10 f   Base64-b87ec7.o
 0001:00030d40       ?dtor$18@?0??test@Base64@@QEAAXXZ@4HA 0000000140031d40 f   Base64-b87ec7.o
 0001:00030d70       ?dtor$21@?0??test@Base64@@QEAAXXZ@4HA 0000000140031d70 f   Base64-b87ec7.o
 0001:00030da0       ?dtor$24@?0??test@Base64@@QEAAXXZ@4HA 0000000140031da0 f   Base64-b87ec7.o
 0001:00030dd0       ?dtor$38@?0??test@Base64@@QEAAXXZ@4HA 0000000140031dd0 f   Base64-b87ec7.o
 0001:00030e00       ?dtor$41@?0??test@Base64@@QEAAXXZ@4HA 0000000140031e00 f   Base64-b87ec7.o
 0001:00030e30       ?dtor$44@?0??test@Base64@@QEAAXXZ@4HA 0000000140031e30 f   Base64-b87ec7.o
 0001:00030e60       ?dtor$47@?0??test@Base64@@QEAAXXZ@4HA 0000000140031e60 f   Base64-b87ec7.o
 0001:00033c5d       $ehgcr_3_74                0000000140034c5d     MCurve-8762b8.o
 0001:00033ce0       ?catch$71@?0??montLadder1@MCurve@@QEAA_NAEAVInteger@@AEBV2@1AEAVIntegerMath@@AEAVMod@@@Z@4HA 0000000140034ce0 f   MCurve-8762b8.o
 0001:00033d40       ?catch$72@?0??montLadder1@MCurve@@QEAA_NAEAVInteger@@AEBV2@1AEAVIntegerMath@@AEAVMod@@@Z@4HA 0000000140034d40 f   MCurve-8762b8.o
 0001:00033e50       ?dtor$7@?0??makeRandExponentK@MCurve@@QEAAXAEAVInteger@@AEAVCharBuf@@@Z@4HA 0000000140034e50 f   MCurve-8762b8.o
 0001:00033f90       ?dtor$5@?0??makeRandom32Bytes@MCurve@@QEAAXAEAVByteArray@@@Z@4HA 0000000140034f90 f   MCurve-8762b8.o
 0001:00033fc0       ?dtor$21@?0??makeRandom32Bytes@MCurve@@QEAAXAEAVByteArray@@@Z@4HA 0000000140034fc0 f   MCurve-8762b8.o
 0001:000343a0       ?dtor$10@?0??makeThePrime@MCurve@@QEAAXAEAVIntegerMath@@@Z@4HA 00000001400353a0 f   MCurve-8762b8.o
 0001:000343d0       ?dtor$18@?0??makeThePrime@MCurve@@QEAAXAEAVIntegerMath@@@Z@4HA 00000001400353d0 f   MCurve-8762b8.o
 0001:00034400       ?dtor$21@?0??makeThePrime@MCurve@@QEAAXAEAVIntegerMath@@@Z@4HA 0000000140035400 f   MCurve-8762b8.o
 0001:000359e0       ?dtor$4@?0???0QuadRes@@QEAA@XZ@4HA 00000001400369e0 f   QuadRes-00d8f5.o
 0001:00035ae0       ?dtor$5@?0???0QuadRes@@QEAA@AEBV0@@Z@4HA 0000000140036ae0 f   QuadRes-00d8f5.o
 0001:000368a0       ?dtor$15@?0??makeKeys@Rsa@@QEAA_NAEBVInteger@@0AEAVIntegerMath@@AEAVMod@@AEAVSPrimes@@AEAVFindFacSm@@AEBVMultInv@@AEBVCrtMath@@AEAVGarnerCrt@@@Z@4HA 00000001400378a0 f   Rsa-b22f78.o
 0001:000368e0       ?dtor$56@?0??makeKeys@Rsa@@QEAA_NAEBVInteger@@0AEAVIntegerMath@@AEAVMod@@AEAVSPrimes@@AEAVFindFacSm@@AEBVMultInv@@AEBVCrtMath@@AEAVGarnerCrt@@@Z@4HA 00000001400378e0 f   Rsa-b22f78.o
 0001:00036920       ?dtor$57@?0??makeKeys@Rsa@@QEAA_NAEBVInteger@@0AEAVIntegerMath@@AEAVMod@@AEAVSPrimes@@AEAVFindFacSm@@AEBVMultInv@@AEBVCrtMath@@AEAVGarnerCrt@@@Z@4HA 0000000140037920 f   Rsa-b22f78.o
 0001:00036960       ?dtor$60@?0??makeKeys@Rsa@@QEAA_NAEBVInteger@@0AEAVIntegerMath@@AEAVMod@@AEAVSPrimes@@AEAVFindFacSm@@AEBVMultInv@@AEBVCrtMath@@AEAVGarnerCrt@@@Z@4HA 0000000140037960 f   Rsa-b22f78.o
 0001:00037430       ?dtor$22@?0??test@RsaTest@@QEAAXAEAVRsa@@AEAVMod@@AEAVSPrimes@@AEAVIntegerMath@@AEAVFindFacSm@@AEBVMultInv@@AEBVCrtMath@@AEAVGarnerCrt@@@Z@4HA 0000000140038430 f   RsaTest-551fee.o
 0001:00037470       ?dtor$25@?0??test@RsaTest@@QEAAXAEAVRsa@@AEAVMod@@AEAVSPrimes@@AEAVIntegerMath@@AEAVFindFacSm@@AEBVMultInv@@AEBVCrtMath@@AEAVGarnerCrt@@@Z@4HA 0000000140038470 f   RsaTest-551fee.o
 0001:000374b0       ?dtor$28@?0??test@RsaTest@@QEAAXAEAVRsa@@AEAVMod@@AEAVSPrimes@@AEAVIntegerMath@@AEAVFindFacSm@@AEBVMultInv@@AEBVCrtMath@@AEAVGarnerCrt@@@Z@4HA 00000001400384b0 f   RsaTest-551fee.o
 0001:00037590       ?dtor$4@?0???0FindFacSm@@QEAA@XZ@4HA 0000000140038590 f i RsaTest-551fee.o
 0001:000375d0       ?dtor$7@?0???0FindFacSm@@QEAA@XZ@4HA 00000001400385d0 f i RsaTest-551fee.o
 0001:00037910       ?dtor$10@?0??processAllBlocks@Sha256@@QEAAXAEBVCharBuf@@@Z@4HA 0000000140038910 f   Sha256-a07749.o
 0001:00037940       ?dtor$16@?0??processAllBlocks@Sha256@@QEAAXAEBVCharBuf@@@Z@4HA 0000000140038940 f   Sha256-a07749.o
 0001:00037e40       ?dtor$8@?0??showHash@Sha256@@QEAAXXZ@4HA 0000000140038e40 f   Sha256-a07749.o
 0001:00037e70       ?dtor$22@?0??showHash@Sha256@@QEAAXXZ@4HA 0000000140038e70 f   Sha256-a07749.o
 0001:00038330       ?dtor$14@?0??hMac@Sha256@@QEAAXAEAVCharBuf@@AEBV2@1@Z@4HA 0000000140039330 f   Sha256-a07749.o
 0001:00038370       ?dtor$17@?0??hMac@Sha256@@QEAAXAEAVCharBuf@@AEBV2@1@Z@4HA 0000000140039370 f   Sha256-a07749.o
 0001:000383b0       ?dtor$37@?0??hMac@Sha256@@QEAAXAEAVCharBuf@@AEBV2@1@Z@4HA 00000001400393b0 f   Sha256-a07749.o
 0001:000383f0       ?dtor$61@?0??hMac@Sha256@@QEAAXAEAVCharBuf@@AEBV2@1@Z@4HA 00000001400393f0 f   Sha256-a07749.o
 0001:00038430       ?dtor$69@?0??hMac@Sha256@@QEAAXAEAVCharBuf@@AEBV2@1@Z@4HA 0000000140039430 f   Sha256-a07749.o
 0001:00038470       ?dtor$72@?0??hMac@Sha256@@QEAAXAEAVCharBuf@@AEBV2@1@Z@4HA 0000000140039470 f   Sha256-a07749.o
 0001:000384b0       ?dtor$75@?0??hMac@Sha256@@QEAAXAEAVCharBuf@@AEBV2@1@Z@4HA 00000001400394b0 f   Sha256-a07749.o
 0001:000384f0       ?dtor$78@?0??hMac@Sha256@@QEAAXAEAVCharBuf@@AEBV2@1@Z@4HA 00000001400394f0 f   Sha256-a07749.o
 0001:00038fa0       ?dtor$27@?0??timeCBuf@TimeApi@@QEAAXAEAVCharBuf@@@Z@4HA 0000000140039fa0 f   TimeApiWin-c4ae35.o
 0001:00038fd0       ?dtor$30@?0??timeCBuf@TimeApi@@QEAAXAEAVCharBuf@@@Z@4HA 0000000140039fd0 f   TimeApiWin-c4ae35.o
 0001:00039000       ?dtor$33@?0??timeCBuf@TimeApi@@QEAAXAEAVCharBuf@@@Z@4HA 000000014003a000 f   TimeApiWin-c4ae35.o
 0001:00039030       ?dtor$36@?0??timeCBuf@TimeApi@@QEAAXAEAVCharBuf@@@Z@4HA 000000014003a030 f   TimeApiWin-c4ae35.o
 0001:00039060       ?dtor$39@?0??timeCBuf@TimeApi@@QEAAXAEAVCharBuf@@@Z@4HA 000000014003a060 f   TimeApiWin-c4ae35.o
 0001:00039090       ?dtor$42@?0??timeCBuf@TimeApi@@QEAAXAEAVCharBuf@@@Z@4HA 000000014003a090 f   TimeApiWin-c4ae35.o
 0001:000390c0       ?dtor$45@?0??timeCBuf@TimeApi@@QEAAXAEAVCharBuf@@@Z@4HA 000000014003a0c0 f   TimeApiWin-c4ae35.o
 0001:000390f0       ?dtor$48@?0??timeCBuf@TimeApi@@QEAAXAEAVCharBuf@@@Z@4HA 000000014003a0f0 f   TimeApiWin-c4ae35.o
 0001:0003911c       ??__Eclassic_locale@std@@YAXXZ 000000014003a11c f   libcpmt:locale0.obj
 0001:00039128       ??__F_Fac_tidy_reg@std@@YAXXZ 000000014003a128 f   libcpmt:locale0.obj
 0001:00039134       ??__Einitlocks@std@@YAXXZ  000000014003a134 f   libcpmt:xlock.obj
 0001:00039154       ??__Einitlocks@std@@YAXXZ  000000014003a154 f   libcpmt:iosptrs.obj
 0001:00039174       ??__Finit_atexit@@YAXXZ    000000014003a174 f   libcpmt:iosptrs.obj
 0001:00039190       $$000000                   000000014003a190     libcmt:chkstk.obj
 0001:00039594       ?pre_c_initialization@@YAHXZ 000000014003a594 f   libcmt:exe_main.obj
 0001:0003964c       ?post_pgo_initialization@@YAHXZ 000000014003a64c f   libcmt:exe_main.obj
 0001:0003965c       ?pre_cpp_initialization@@YAXXZ 000000014003a65c f   libcmt:exe_main.obj
 0001:00039678       ?__scrt_common_main_seh@@YAHXZ 000000014003a678 f   libcmt:exe_main.obj
 0001:00039bac       no_op_initialize           000000014003abac f   libucrt:wsetlocale.obj
 0001:0003a394       tidy_global                000000014003b394 f   libcpmt:locale0.obj
 0001:0003aeec       ?initialize_pointers@@YAHXZ 000000014003beec f   libcpmt:winapisupp.obj
 0001:0003c56c       ??$BuildCatchObjectHelperInternal@V__FrameHandler3@@@@YAHPEAUEHExceptionRecord@@PEAXPEBU_s_HandlerType@@PEBU_s_CatchableType@@@Z 000000014003d56c f   libvcruntime:frame.obj
 0001:0003c76c       ??$BuildCatchObjectHelperInternal@V__FrameHandler4@@@@YAHPEAUEHExceptionRecord@@PEAXPEAUHandlerType4@FH4@@PEBU_s_CatchableType@@@Z 000000014003d76c f   libvcruntime:frame.obj
 0001:0003c970       ??$BuildCatchObjectInternal@V__FrameHandler3@@@@YAXPEAUEHExceptionRecord@@PEAXPEBU_s_HandlerType@@PEBU_s_CatchableType@@@Z 000000014003d970 f   libvcruntime:frame.obj
 0001:0003ca30       ??$BuildCatchObjectInternal@V__FrameHandler4@@@@YAXPEAUEHExceptionRecord@@PEAXPEAUHandlerType4@FH4@@PEBU_s_CatchableType@@@Z 000000014003da30 f   libvcruntime:frame.obj
 0001:0003caf4       ??$CatchIt@V__FrameHandler3@@@@YAXPEAUEHExceptionRecord@@PEA_KPEAU_CONTEXT@@PEAU_xDISPATCHER_CONTEXT@@PEBU_s_FuncInfo@@PEBU_s_HandlerType@@PEBU_s_CatchableType@@PEBU_s_TryBlockMapEntry@@H1EE@Z 000000014003daf4 f   libvcruntime:frame.obj
 0001:0003cbc8       ??$CatchIt@V__FrameHandler4@@@@YAXPEAUEHExceptionRecord@@PEA_KPEAU_CONTEXT@@PEAU_xDISPATCHER_CONTEXT@@PEAUFuncInfo4@FH4@@PEAUHandlerType4@4@PEBU_s_CatchableType@@PEAUTryBlockMapEntry4@4@H1EE@Z 000000014003dbc8 f   libvcruntime:frame.obj
 0001:0003cc9c       ??$FindHandler@V__FrameHandler3@@@@YAXPEAUEHExceptionRecord@@PEA_KPEAU_CONTEXT@@PEAU_xDISPATCHER_CONTEXT@@PEBU_s_FuncInfo@@EH1@Z 000000014003dc9c f   libvcruntime:frame.obj
 0001:0003d16c       ??$FindHandler@V__FrameHandler4@@@@YAXPEAUEHExceptionRecord@@PEA_KPEAU_CONTEXT@@PEAU_xDISPATCHER_CONTEXT@@PEAUFuncInfo4@FH4@@EH1@Z 000000014003e16c f   libvcruntime:frame.obj
 0001:0003d670       ??$FindHandlerForForeignException@V__FrameHandler3@@@@YAXPEAUEHExceptionRecord@@PEA_KPEAU_CONTEXT@@PEAU_xDISPATCHER_CONTEXT@@PEBU_s_FuncInfo@@HH1@Z 000000014003e670 f   libvcruntime:frame.obj
 0001:0003d8e0       ??$FindHandlerForForeignException@V__FrameHandler4@@@@YAXPEAUEHExceptionRecord@@PEA_KPEAU_CONTEXT@@PEAU_xDISPATCHER_CONTEXT@@PEAUFuncInfo4@FH4@@HH1@Z 000000014003e8e0 f   libvcruntime:frame.obj
 0001:0003eb14       ?ExFilterRethrow@@YAHPEAU_EXCEPTION_POINTERS@@PEAUEHExceptionRecord@@PEAH@Z 000000014003fb14 f   libvcruntime:frame.obj
 0001:0003eb98       ?ExFilterRethrowFH4@@YAHPEAU_EXCEPTION_POINTERS@@PEAUEHExceptionRecord@@HPEAH@Z 000000014003fb98 f   libvcruntime:frame.obj
 0001:0003f0f4       ?IsInExceptionSpec@@YAEPEAUEHExceptionRecord@@PEBU_s_ESTypeList@@@Z 00000001400400f4 f   libvcruntime:frame.obj
 0001:0003f1e4       ?Is_bad_exception_allowed@@YAEPEBU_s_ESTypeList@@@Z 00000001400401e4 f   libvcruntime:frame.obj
 0001:0003f560       $$000000                   0000000140040560     libvcruntime:notify.obj
 0001:0003f580       $$000000                   0000000140040580     libvcruntime:notify.obj
 0001:0003f590       $$000000                   0000000140040590     libvcruntime:notify.obj
 0001:0003f5cc       ?try_get_function@@YAPEAXW4function_id@?A0x14174aea@@QEBDQEBW4module_id@2@2@Z 00000001400405cc f   libvcruntime:winapi_downlevel.obj
 0001:0003f8f0       $$000000                   00000001400408f0     libvcruntime:handlers.obj
 0001:0003f930       $$000000                   0000000140040930     libvcruntime:handlers.obj
 0001:0003f960       $$000000                   0000000140040960     libvcruntime:handlers.obj
 0001:0003f990       $$000000                   0000000140040990     libvcruntime:handlers.obj
 0001:0003f9f0       $$000000                   00000001400409f0     libvcruntime:memcpy_avx_ermsb_aligned.obj
 0001:0003fa1e       MoveSmall0                 0000000140040a1e     libvcruntime:memcpy_avx_ermsb_aligned.obj
 0001:0003fa20       MoveSmall15                0000000140040a20     libvcruntime:memcpy_avx_ermsb_aligned.obj
 0001:0003fa40       MoveSmall11                0000000140040a40     libvcruntime:memcpy_avx_ermsb_aligned.obj
 0001:0003fa58       MoveSmall2                 0000000140040a58     libvcruntime:memcpy_avx_ermsb_aligned.obj
 0001:0003fa60       MoveSmall7                 0000000140040a60     libvcruntime:memcpy_avx_ermsb_aligned.obj
 0001:0003fa78       MoveSmall14                0000000140040a78     libvcruntime:memcpy_avx_ermsb_aligned.obj
 0001:0003fa8f       MoveSmall3                 0000000140040a8f     libvcruntime:memcpy_avx_ermsb_aligned.obj
 0001:0003faa0       MoveSmall13                0000000140040aa0     libvcruntime:memcpy_avx_ermsb_aligned.obj
 0001:0003fab6       MoveSmall10                0000000140040ab6     libvcruntime:memcpy_avx_ermsb_aligned.obj
 0001:0003fac5       MoveSmall9                 0000000140040ac5     libvcruntime:memcpy_avx_ermsb_aligned.obj
 0001:0003fad3       MoveSmall12                0000000140040ad3     libvcruntime:memcpy_avx_ermsb_aligned.obj
 0001:0003fae0       MoveSmall6                 0000000140040ae0     libvcruntime:memcpy_avx_ermsb_aligned.obj
 0001:0003faef       MoveSmall5                 0000000140040aef     libvcruntime:memcpy_avx_ermsb_aligned.obj
 0001:0003fafd       MoveSmall8                 0000000140040afd     libvcruntime:memcpy_avx_ermsb_aligned.obj
 0001:0003fb04       MoveSmall1                 0000000140040b04     libvcruntime:memcpy_avx_ermsb_aligned.obj
 0001:0003fb0a       MoveSmall4                 0000000140040b0a     libvcruntime:memcpy_avx_ermsb_aligned.obj
 0001:0003fb10       MoveAbove15                0000000140040b10     libvcruntime:memcpy_avx_ermsb_aligned.obj
 0001:0003fb2d       MoveAbove32                0000000140040b2d     libvcruntime:memcpy_avx_ermsb_aligned.obj
 0001:0003fb57       MoveWithYMM                0000000140040b57     libvcruntime:memcpy_avx_ermsb_aligned.obj
 0001:0003fba0       YmmLoop                    0000000140040ba0     libvcruntime:memcpy_avx_ermsb_aligned.obj
 0001:0003fc28       MovUpTo256WithYMM          0000000140040c28     libvcruntime:memcpy_avx_ermsb_aligned.obj
 0001:0003fc45       Mov8YmmBlocks              0000000140040c45     libvcruntime:memcpy_avx_ermsb_aligned.obj
 0001:0003fc59       Mov7YmmBlocks              0000000140040c59     libvcruntime:memcpy_avx_ermsb_aligned.obj
 0001:0003fc6d       Mov6YmmBlocks              0000000140040c6d     libvcruntime:memcpy_avx_ermsb_aligned.obj
 0001:0003fc81       Mov5YmmBlocks              0000000140040c81     libvcruntime:memcpy_avx_ermsb_aligned.obj
 0001:0003fc95       Mov4YmmBlocks              0000000140040c95     libvcruntime:memcpy_avx_ermsb_aligned.obj
 0001:0003fca3       Mov3YmmBlocks              0000000140040ca3     libvcruntime:memcpy_avx_ermsb_aligned.obj
 0001:0003fcb1       Mov2YmmBlocks              0000000140040cb1     libvcruntime:memcpy_avx_ermsb_aligned.obj
 0001:0003fcbf       Mov1YmmBlocks              0000000140040cbf     libvcruntime:memcpy_avx_ermsb_aligned.obj
 0001:0003fcc6       Mov0YmmBlocks              0000000140040cc6     libvcruntime:memcpy_avx_ermsb_aligned.obj
 0001:0003fcd0       YmmLoopNT                  0000000140040cd0     libvcruntime:memcpy_avx_ermsb_aligned.obj
 0001:0003fd75       Mov8YmmBlocksNT            0000000140040d75     libvcruntime:memcpy_avx_ermsb_aligned.obj
 0001:0003fd89       Mov7YmmBlocksNT            0000000140040d89     libvcruntime:memcpy_avx_ermsb_aligned.obj
 0001:0003fd9d       Mov6YmmBlocksNT            0000000140040d9d     libvcruntime:memcpy_avx_ermsb_aligned.obj
 0001:0003fdb1       Mov5YmmBlocksNT            0000000140040db1     libvcruntime:memcpy_avx_ermsb_aligned.obj
 0001:0003fdc5       Mov4YmmBlocksNT            0000000140040dc5     libvcruntime:memcpy_avx_ermsb_aligned.obj
 0001:0003fdd3       Mov3YmmBlocksNT            0000000140040dd3     libvcruntime:memcpy_avx_ermsb_aligned.obj
 0001:0003fde1       Mov2YmmBlocksNT            0000000140040de1     libvcruntime:memcpy_avx_ermsb_aligned.obj
 0001:0003fdef       Mov1YmmBlocksNT            0000000140040def     libvcruntime:memcpy_avx_ermsb_aligned.obj
 0001:0003fdf6       Mov0YmmBlocksNT            0000000140040df6     libvcruntime:memcpy_avx_ermsb_aligned.obj
 0001:0003fe20       $$000000                   0000000140040e20     libvcruntime:memcpy_avx_ermsb_aligned_amd.obj
 0001:0003fe4e       MoveSmall0                 0000000140040e4e     libvcruntime:memcpy_avx_ermsb_aligned_amd.obj
 0001:0003fe50       MoveSmall15                0000000140040e50     libvcruntime:memcpy_avx_ermsb_aligned_amd.obj
 0001:0003fe70       MoveSmall11                0000000140040e70     libvcruntime:memcpy_avx_ermsb_aligned_amd.obj
 0001:0003fe88       MoveSmall2                 0000000140040e88     libvcruntime:memcpy_avx_ermsb_aligned_amd.obj
 0001:0003fe90       MoveSmall7                 0000000140040e90     libvcruntime:memcpy_avx_ermsb_aligned_amd.obj
 0001:0003fea8       MoveSmall14                0000000140040ea8     libvcruntime:memcpy_avx_ermsb_aligned_amd.obj
 0001:0003febf       MoveSmall3                 0000000140040ebf     libvcruntime:memcpy_avx_ermsb_aligned_amd.obj
 0001:0003fed0       MoveSmall13                0000000140040ed0     libvcruntime:memcpy_avx_ermsb_aligned_amd.obj
 0001:0003fee6       MoveSmall10                0000000140040ee6     libvcruntime:memcpy_avx_ermsb_aligned_amd.obj
 0001:0003fef5       MoveSmall9                 0000000140040ef5     libvcruntime:memcpy_avx_ermsb_aligned_amd.obj
 0001:0003ff03       MoveSmall12                0000000140040f03     libvcruntime:memcpy_avx_ermsb_aligned_amd.obj
 0001:0003ff10       MoveSmall6                 0000000140040f10     libvcruntime:memcpy_avx_ermsb_aligned_amd.obj
 0001:0003ff1f       MoveSmall5                 0000000140040f1f     libvcruntime:memcpy_avx_ermsb_aligned_amd.obj
 0001:0003ff2d       MoveSmall8                 0000000140040f2d     libvcruntime:memcpy_avx_ermsb_aligned_amd.obj
 0001:0003ff34       MoveSmall1                 0000000140040f34     libvcruntime:memcpy_avx_ermsb_aligned_amd.obj
 0001:0003ff3a       MoveSmall4                 0000000140040f3a     libvcruntime:memcpy_avx_ermsb_aligned_amd.obj
 0001:0003ff40       MoveAbove15                0000000140040f40     libvcruntime:memcpy_avx_ermsb_aligned_amd.obj
 0001:0003ff5d       MoveAbove32                0000000140040f5d     libvcruntime:memcpy_avx_ermsb_aligned_amd.obj
 0001:0003ff87       MoveWithYMM                0000000140040f87     libvcruntime:memcpy_avx_ermsb_aligned_amd.obj
 0001:0003ffd0       YmmLoop                    0000000140040fd0     libvcruntime:memcpy_avx_ermsb_aligned_amd.obj
 0001:00040058       MovUpTo256WithYMM          0000000140041058     libvcruntime:memcpy_avx_ermsb_aligned_amd.obj
 0001:00040075       Mov8YmmBlocks              0000000140041075     libvcruntime:memcpy_avx_ermsb_aligned_amd.obj
 0001:00040089       Mov7YmmBlocks              0000000140041089     libvcruntime:memcpy_avx_ermsb_aligned_amd.obj
 0001:0004009d       Mov6YmmBlocks              000000014004109d     libvcruntime:memcpy_avx_ermsb_aligned_amd.obj
 0001:000400b1       Mov5YmmBlocks              00000001400410b1     libvcruntime:memcpy_avx_ermsb_aligned_amd.obj
 0001:000400c5       Mov4YmmBlocks              00000001400410c5     libvcruntime:memcpy_avx_ermsb_aligned_amd.obj
 0001:000400d3       Mov3YmmBlocks              00000001400410d3     libvcruntime:memcpy_avx_ermsb_aligned_amd.obj
 0001:000400e1       Mov2YmmBlocks              00000001400410e1     libvcruntime:memcpy_avx_ermsb_aligned_amd.obj
 0001:000400ef       Mov1YmmBlocks              00000001400410ef     libvcruntime:memcpy_avx_ermsb_aligned_amd.obj
 0001:000400f6       Mov0YmmBlocks              00000001400410f6     libvcruntime:memcpy_avx_ermsb_aligned_amd.obj
 0001:00040100       YmmLoopNT                  0000000140041100     libvcruntime:memcpy_avx_ermsb_aligned_amd.obj
 0001:000401a5       Mov8YmmBlocksNT            00000001400411a5     libvcruntime:memcpy_avx_ermsb_aligned_amd.obj
 0001:000401b9       Mov7YmmBlocksNT            00000001400411b9     libvcruntime:memcpy_avx_ermsb_aligned_amd.obj
 0001:000401cd       Mov6YmmBlocksNT            00000001400411cd     libvcruntime:memcpy_avx_ermsb_aligned_amd.obj
 0001:000401e1       Mov5YmmBlocksNT            00000001400411e1     libvcruntime:memcpy_avx_ermsb_aligned_amd.obj
 0001:000401f5       Mov4YmmBlocksNT            00000001400411f5     libvcruntime:memcpy_avx_ermsb_aligned_amd.obj
 0001:00040203       Mov3YmmBlocksNT            0000000140041203     libvcruntime:memcpy_avx_ermsb_aligned_amd.obj
 0001:00040211       Mov2YmmBlocksNT            0000000140041211     libvcruntime:memcpy_avx_ermsb_aligned_amd.obj
 0001:0004021f       Mov1YmmBlocksNT            000000014004121f     libvcruntime:memcpy_avx_ermsb_aligned_amd.obj
 0001:00040226       Mov0YmmBlocksNT            0000000140041226     libvcruntime:memcpy_avx_ermsb_aligned_amd.obj
 0001:00040250       $$000000                   0000000140041250     libvcruntime:memcpy_sse2_ermsb_aligned.obj
 0001:0004027e       MoveSmall0                 000000014004127e     libvcruntime:memcpy_sse2_ermsb_aligned.obj
 0001:00040280       MoveSmall15                0000000140041280     libvcruntime:memcpy_sse2_ermsb_aligned.obj
 0001:000402a0       MoveSmall11                00000001400412a0     libvcruntime:memcpy_sse2_ermsb_aligned.obj
 0001:000402b8       MoveSmall2                 00000001400412b8     libvcruntime:memcpy_sse2_ermsb_aligned.obj
 0001:000402c0       MoveSmall7                 00000001400412c0     libvcruntime:memcpy_sse2_ermsb_aligned.obj
 0001:000402d8       MoveSmall14                00000001400412d8     libvcruntime:memcpy_sse2_ermsb_aligned.obj
 0001:000402ef       MoveSmall3                 00000001400412ef     libvcruntime:memcpy_sse2_ermsb_aligned.obj
 0001:00040300       MoveSmall13                0000000140041300     libvcruntime:memcpy_sse2_ermsb_aligned.obj
 0001:00040316       MoveSmall10                0000000140041316     libvcruntime:memcpy_sse2_ermsb_aligned.obj
 0001:00040325       MoveSmall9                 0000000140041325     libvcruntime:memcpy_sse2_ermsb_aligned.obj
 0001:00040333       MoveSmall12                0000000140041333     libvcruntime:memcpy_sse2_ermsb_aligned.obj
 0001:00040340       MoveSmall6                 0000000140041340     libvcruntime:memcpy_sse2_ermsb_aligned.obj
 0001:0004034f       MoveSmall5                 000000014004134f     libvcruntime:memcpy_sse2_ermsb_aligned.obj
 0001:0004035d       MoveSmall8                 000000014004135d     libvcruntime:memcpy_sse2_ermsb_aligned.obj
 0001:00040364       MoveSmall1                 0000000140041364     libvcruntime:memcpy_sse2_ermsb_aligned.obj
 0001:0004036a       MoveSmall4                 000000014004136a     libvcruntime:memcpy_sse2_ermsb_aligned.obj
 0001:00040370       MoveAbove15                0000000140041370     libvcruntime:memcpy_sse2_ermsb_aligned.obj
 0001:0004038d       MoveAbove32                000000014004138d     libvcruntime:memcpy_sse2_ermsb_aligned.obj
 0001:000403ae       MoveWithXMM                00000001400413ae     libvcruntime:memcpy_sse2_ermsb_aligned.obj
 0001:000403f0       XmmLoop                    00000001400413f0     libvcruntime:memcpy_sse2_ermsb_aligned.obj
 0001:0004045c       MovUpTo128WithXMM          000000014004145c     libvcruntime:memcpy_sse2_ermsb_aligned.obj
 0001:00040479       Mov8XmmBlocks              0000000140041479     libvcruntime:memcpy_sse2_ermsb_aligned.obj
 0001:00040487       Mov7XmmBlocks              0000000140041487     libvcruntime:memcpy_sse2_ermsb_aligned.obj
 0001:00040495       Mov6XmmBlocks              0000000140041495     libvcruntime:memcpy_sse2_ermsb_aligned.obj
 0001:000404a3       Mov5XmmBlocks              00000001400414a3     libvcruntime:memcpy_sse2_ermsb_aligned.obj
 0001:000404b1       Mov4XmmBlocks              00000001400414b1     libvcruntime:memcpy_sse2_ermsb_aligned.obj
 0001:000404bf       Mov3XmmBlocks              00000001400414bf     libvcruntime:memcpy_sse2_ermsb_aligned.obj
 0001:000404cd       Mov2XmmBlocks              00000001400414cd     libvcruntime:memcpy_sse2_ermsb_aligned.obj
 0001:000404db       Mov1XmmBlocks              00000001400414db     libvcruntime:memcpy_sse2_ermsb_aligned.obj
 0001:000404e2       Mov0XmmBlocks              00000001400414e2     libvcruntime:memcpy_sse2_ermsb_aligned.obj
 0001:00040500       $$000000                   0000000140041500     libvcruntime:memcpy_sse2_ermsb_aligned_amd.obj
 0001:0004052e       MoveSmall0                 000000014004152e     libvcruntime:memcpy_sse2_ermsb_aligned_amd.obj
 0001:00040530       MoveSmall15                0000000140041530     libvcruntime:memcpy_sse2_ermsb_aligned_amd.obj
 0001:00040550       MoveSmall11                0000000140041550     libvcruntime:memcpy_sse2_ermsb_aligned_amd.obj
 0001:00040568       MoveSmall2                 0000000140041568     libvcruntime:memcpy_sse2_ermsb_aligned_amd.obj
 0001:00040570       MoveSmall7                 0000000140041570     libvcruntime:memcpy_sse2_ermsb_aligned_amd.obj
 0001:00040588       MoveSmall14                0000000140041588     libvcruntime:memcpy_sse2_ermsb_aligned_amd.obj
 0001:0004059f       MoveSmall3                 000000014004159f     libvcruntime:memcpy_sse2_ermsb_aligned_amd.obj
 0001:000405b0       MoveSmall13                00000001400415b0     libvcruntime:memcpy_sse2_ermsb_aligned_amd.obj
 0001:000405c6       MoveSmall10                00000001400415c6     libvcruntime:memcpy_sse2_ermsb_aligned_amd.obj
 0001:000405d5       MoveSmall9                 00000001400415d5     libvcruntime:memcpy_sse2_ermsb_aligned_amd.obj
 0001:000405e3       MoveSmall12                00000001400415e3     libvcruntime:memcpy_sse2_ermsb_aligned_amd.obj
 0001:000405f0       MoveSmall6                 00000001400415f0     libvcruntime:memcpy_sse2_ermsb_aligned_amd.obj
 0001:000405ff       MoveSmall5                 00000001400415ff     libvcruntime:memcpy_sse2_ermsb_aligned_amd.obj
 0001:0004060d       MoveSmall8                 000000014004160d     libvcruntime:memcpy_sse2_ermsb_aligned_amd.obj
 0001:00040614       MoveSmall1                 0000000140041614     libvcruntime:memcpy_sse2_ermsb_aligned_amd.obj
 0001:0004061a       MoveSmall4                 000000014004161a     libvcruntime:memcpy_sse2_ermsb_aligned_amd.obj
 0001:00040620       MoveAbove15                0000000140041620     libvcruntime:memcpy_sse2_ermsb_aligned_amd.obj
 0001:0004063d       MoveAbove32                000000014004163d     libvcruntime:memcpy_sse2_ermsb_aligned_amd.obj
 0001:0004065e       MoveWithXMM                000000014004165e     libvcruntime:memcpy_sse2_ermsb_aligned_amd.obj
 0001:000406a0       XmmLoop                    00000001400416a0     libvcruntime:memcpy_sse2_ermsb_aligned_amd.obj
 0001:0004070c       MovUpTo128WithXMM          000000014004170c     libvcruntime:memcpy_sse2_ermsb_aligned_amd.obj
 0001:00040729       Mov8XmmBlocks              0000000140041729     libvcruntime:memcpy_sse2_ermsb_aligned_amd.obj
 0001:00040737       Mov7XmmBlocks              0000000140041737     libvcruntime:memcpy_sse2_ermsb_aligned_amd.obj
 0001:00040745       Mov6XmmBlocks              0000000140041745     libvcruntime:memcpy_sse2_ermsb_aligned_amd.obj
 0001:00040753       Mov5XmmBlocks              0000000140041753     libvcruntime:memcpy_sse2_ermsb_aligned_amd.obj
 0001:00040761       Mov4XmmBlocks              0000000140041761     libvcruntime:memcpy_sse2_ermsb_aligned_amd.obj
 0001:0004076f       Mov3XmmBlocks              000000014004176f     libvcruntime:memcpy_sse2_ermsb_aligned_amd.obj
 0001:0004077d       Mov2XmmBlocks              000000014004177d     libvcruntime:memcpy_sse2_ermsb_aligned_amd.obj
 0001:0004078b       Mov1XmmBlocks              000000014004178b     libvcruntime:memcpy_sse2_ermsb_aligned_amd.obj
 0001:00040792       Mov0XmmBlocks              0000000140041792     libvcruntime:memcpy_sse2_ermsb_aligned_amd.obj
 0001:000407b0       $$000000                   00000001400417b0     libvcruntime:memcpy_repmovs.obj
 0001:000407d0       $$000000                   00000001400417d0     libvcruntime:memcpy_CopyDown.obj
 0001:000407eb       XmmMovAlign                00000001400417eb     libvcruntime:memcpy_CopyDown.obj
 0001:00040803       XmmMovLargeTest            0000000140041803     libvcruntime:memcpy_CopyDown.obj
 0001:00040820       XmmMovLargeOuter           0000000140041820     libvcruntime:memcpy_CopyDown.obj
 0001:00040827       XmmMovLargeInner           0000000140041827     libvcruntime:memcpy_CopyDown.obj
 0001:0004087d       XmmMovSmallTest            000000014004187d     libvcruntime:memcpy_CopyDown.obj
 0001:00040890       XmmMovSmallLoop            0000000140041890     libvcruntime:memcpy_CopyDown.obj
 0001:000408a0       XmmMovTrailing             00000001400418a0     libvcruntime:memcpy_CopyDown.obj
 0001:000408a9       XmmMovReturn               00000001400418a9     libvcruntime:memcpy_CopyDown.obj
 0001:000408c0       $$000000                   00000001400418c0     libvcruntime:memcpy_repmovs_amd.obj
 0001:000408e0       $$000000                   00000001400418e0     libvcruntime:memcpy_CopyDown_amd.obj
 0001:000408fb       XmmMovAlign                00000001400418fb     libvcruntime:memcpy_CopyDown_amd.obj
 0001:00040913       XmmMovLargeTest            0000000140041913     libvcruntime:memcpy_CopyDown_amd.obj
 0001:00040930       XmmMovLargeOuter           0000000140041930     libvcruntime:memcpy_CopyDown_amd.obj
 0001:00040937       XmmMovLargeInner           0000000140041937     libvcruntime:memcpy_CopyDown_amd.obj
 0001:0004098d       XmmMovSmallTest            000000014004198d     libvcruntime:memcpy_CopyDown_amd.obj
 0001:000409a0       XmmMovSmallLoop            00000001400419a0     libvcruntime:memcpy_CopyDown_amd.obj
 0001:000409b0       XmmMovTrailing             00000001400419b0     libvcruntime:memcpy_CopyDown_amd.obj
 0001:000409b9       XmmMovReturn               00000001400419b9     libvcruntime:memcpy_CopyDown_amd.obj
 0001:000409c0       ??$?RV<lambda_a2589f19c515cac03caf6db9c38355e9>@@AEAV<lambda_26974eb511f701c600fccfa2a97a8e1b>@@V<lambda_ad9ce2f38261e34e8a422b9cc35dfe8d>@@@?$__crt_seh_guarded_call@_K@@QEAA_K$$QEAV<lambda_a2589f19c515cac03caf6db9c38355e9>@@AEAV<lambda_26974eb511f701c600fccfa2a97a8e1b>@@$$QEAV<lambda_ad9ce2f38261e34e8a422b9cc35dfe8d>@@@Z 00000001400419c0 f   libucrt:fwrite.obj
 0001:00040a00       ??R<lambda_26974eb511f701c600fccfa2a97a8e1b>@@QEBA_KXZ 0000000140041a00 f   libucrt:fwrite.obj
 0001:00040e3c       ?_fclose_internal@@YAHQEAU_iobuf@@AEAV__crt_cached_ptd_host@@@Z 0000000140041e3c f   libucrt:fclose.obj
 0001:00040eb8       ?_fclose_nolock_internal@@YAHQEAU_iobuf@@AEAV__crt_cached_ptd_host@@@Z 0000000140041eb8 f   libucrt:fclose.obj
 0001:000411e8       ?_fputc_internal@@YAHHQEAU_iobuf@@AEAV__crt_cached_ptd_host@@@Z 00000001400421e8 f   libucrt:fputc.obj
 0001:00041e40       ?common_fseek@@YAHV__crt_stdio_stream@@_JHAEAV__crt_cached_ptd_host@@@Z 0000000140042e40 f   libucrt:fseek.obj
 0001:00041edc       ?common_fseek_binary_mode_read_only_fast_track_nolock@@YA_NV__crt_stdio_stream@@_JH@Z 0000000140042edc f   libucrt:fseek.obj
 0001:00041fc4       ?common_fseek_nolock@@YAHV__crt_stdio_stream@@_JHAEAV__crt_cached_ptd_host@@@Z 0000000140042fc4 f   libucrt:fseek.obj
 0001:00042268       ??$?RV<lambda_9291da6fb19fed9e7668d36b7e9903ee>@@AEAV<lambda_e8d85a8178367c0d1135ba66de989cf6>@@V<lambda_2aa1c5fac2b3ecd63b0b04056e47917d>@@@?$__crt_seh_guarded_call@H@@QEAAH$$QEAV<lambda_9291da6fb19fed9e7668d36b7e9903ee>@@AEAV<lambda_e8d85a8178367c0d1135ba66de989cf6>@@$$QEAV<lambda_2aa1c5fac2b3ecd63b0b04056e47917d>@@@Z 0000000140043268 f   libucrt:setvbuf.obj
 0001:000422a8       ??R<lambda_e8d85a8178367c0d1135ba66de989cf6>@@QEBA@XZ 00000001400432a8 f   libucrt:setvbuf.obj
 0001:000424c8       ??$?RV<lambda_842d9ff0dc9ef11c61343bbaebe7f885>@@AEAV<lambda_c5860995281e5c4ce005b3de8f5874ee>@@V<lambda_d90129c13df834fdcbf8d2b88dafcf2d>@@@?$__crt_seh_guarded_call@X@@QEAAX$$QEAV<lambda_842d9ff0dc9ef11c61343bbaebe7f885>@@AEAV<lambda_c5860995281e5c4ce005b3de8f5874ee>@@$$QEAV<lambda_d90129c13df834fdcbf8d2b88dafcf2d>@@@Z 00000001400434c8 f   libucrt:fflush.obj
 0001:00042564       ??$?RV<lambda_886d6c58226a84441f68b9f2b8217b83>@@AEAV<lambda_ab61a845afdef5b7c387490eaf3616ee>@@V<lambda_f7f22ab5edc0698d5f6905b0d3f44752>@@@?$__crt_seh_guarded_call@X@@QEAAX$$QEAV<lambda_886d6c58226a84441f68b9f2b8217b83>@@AEAV<lambda_ab61a845afdef5b7c387490eaf3616ee>@@$$QEAV<lambda_f7f22ab5edc0698d5f6905b0d3f44752>@@@Z 0000000140043564 f   libucrt:fflush.obj
 0001:00042648       ??$?RV<lambda_c376a267cfb53b6959b3b692ec76b120>@@AEAV<lambda_9a32fed5bf61b6b509b2d3f6003082a1>@@V<lambda_572fbb9fa0ab338edf41edfd4b5fcc8d>@@@?$__crt_seh_guarded_call@H@@QEAAH$$QEAV<lambda_c376a267cfb53b6959b3b692ec76b120>@@AEAV<lambda_9a32fed5bf61b6b509b2d3f6003082a1>@@$$QEAV<lambda_572fbb9fa0ab338edf41edfd4b5fcc8d>@@@Z 0000000140043648 f   libucrt:fflush.obj
 0001:00042688       ?common_flush_all@@YAH_N@Z 0000000140043688 f   libucrt:fflush.obj
 0001:000428d0       $$000000                   00000001400438d0     libucrt:strlen.obj
 0001:00042988       ??$?RV<lambda_d854c62834386a3b23916ad6dae2782d>@@AEAV<lambda_303760bc4008a2b3ec4768a30b06a80c>@@V<lambda_4780a7ea4f8cbd2590aec34bd14e2bbf>@@@?$__crt_seh_guarded_call@H@@QEAAH$$QEAV<lambda_d854c62834386a3b23916ad6dae2782d>@@AEAV<lambda_303760bc4008a2b3ec4768a30b06a80c>@@$$QEAV<lambda_4780a7ea4f8cbd2590aec34bd14e2bbf>@@@Z 0000000140043988 f   libucrt:output.obj
 0001:00043674       ??R<lambda_303760bc4008a2b3ec4768a30b06a80c>@@QEBAHXZ 0000000140044674 f   libucrt:output.obj
 0001:000449e4       ??$?RV<lambda_7ea02354adac61b93e3a5c2c4100d85b>@@AEAV<lambda_8abd18a77b33e1dd4bdebee267cfa707>@@V<lambda_eba452c8b8afd9ffb9102a507ee4e553>@@@?$__crt_seh_guarded_call@H@@QEAAH$$QEAV<lambda_7ea02354adac61b93e3a5c2c4100d85b>@@AEAV<lambda_8abd18a77b33e1dd4bdebee267cfa707>@@$$QEAV<lambda_eba452c8b8afd9ffb9102a507ee4e553>@@@Z 00000001400459e4 f   libucrt:puts.obj
 0001:00044a24       ??R<lambda_8abd18a77b33e1dd4bdebee267cfa707>@@QEBAHXZ 0000000140045a24 f   libucrt:puts.obj
 0001:00044c74       ?_fputwc_internal@@YAG_WQEAU_iobuf@@AEAV__crt_cached_ptd_host@@@Z 0000000140045c74 f   libucrt:fputwc.obj
 0001:00045010       ??$?RV<lambda_450d765d439847d4c735a33c368b5fc0>@@AEAV<lambda_44731a7d0e6d81c3e6aa82d741081786>@@V<lambda_601a2a7da3b7a96e9554ac7215c4b07c>@@@?$__crt_seh_guarded_call@P6AXH@Z@@QEAAP6AXH@Z$$QEAV<lambda_450d765d439847d4c735a33c368b5fc0>@@AEAV<lambda_44731a7d0e6d81c3e6aa82d741081786>@@$$QEAV<lambda_601a2a7da3b7a96e9554ac7215c4b07c>@@@Z 0000000140046010 f   libucrt:signal.obj
 0001:00045058       ?ctrlevent_capture@@YAHK@Z 0000000140046058 f   libucrt:signal.obj
 0001:000450f4       ?get_global_action_nolock@@YAPEAP6AXH@ZH@Z 00000001400460f4 f   libucrt:signal.obj
 0001:00045130       ?signal_failed@@YAP6AXH@ZH@Z 0000000140046130 f   libucrt:signal.obj
 0001:00045668       ??$common_localtime_s@_J@@YAHQEAUtm@@QEB_J@Z 0000000140046668 f   libucrt:localtime.obj
 0001:00045b7c       ??$?RV<lambda_d80eeec6fff315bfe5c115232f3240e3>@@AEAV<lambda_6e4b09c48022b2350581041d5f6b0c4c>@@V<lambda_2358e3775559c9db80273638284d5e45>@@@?$__crt_seh_guarded_call@X@@QEAAX$$QEAV<lambda_d80eeec6fff315bfe5c115232f3240e3>@@AEAV<lambda_6e4b09c48022b2350581041d5f6b0c4c>@@$$QEAV<lambda_2358e3775559c9db80273638284d5e45>@@@Z 0000000140046b7c f   libucrt:exit.obj
 0001:00045bb4       ??R<lambda_6e4b09c48022b2350581041d5f6b0c4c>@@QEBA@XZ 0000000140046bb4 f   libucrt:exit.obj
 0001:00045c80       ?common_exit@@YAXHW4_crt_exit_cleanup_mode@@W4_crt_exit_return_mode@@@Z 0000000140046c80 f   libucrt:exit.obj
 0001:00045d48       ?exit_or_terminate_process@@YAXI@Z 0000000140046d48 f   libucrt:exit.obj
 0001:00045d7c       ?should_call_terminate_process@@YA_NXZ 0000000140046d7c f   libucrt:exit.obj
 0001:00045da0       ?try_cor_exit_process@@YAXI@Z 0000000140046da0 f   libucrt:exit.obj
 0001:00045e90       ??$parse_command_line@D@@YAXPEADPEAPEAD0PEA_K2@Z 0000000140046e90 f   libucrt:argv_parsing.obj
 0001:00046240       ??$common_initialize_environment_nolock@D@@YAHXZ 0000000140047240 f   libucrt:environment_initialization.obj
 0001:000462b4       ??$common_initialize_environment_nolock@_W@@YAHXZ 00000001400472b4 f   libucrt:environment_initialization.obj
 0001:00046324       ??$create_environment@D@@YAQEAPEADQEAD@Z 0000000140047324 f   libucrt:environment_initialization.obj
 0001:00046434       ??$create_environment@_W@@YAQEAPEA_WQEA_W@Z 0000000140047434 f   libucrt:environment_initialization.obj
 0001:00046550       ??$free_environment@D@@YAXQEAPEAD@Z 0000000140047550 f   libucrt:environment_initialization.obj
 0001:00046550       ??$free_environment@_W@@YAXQEAPEA_W@Z 0000000140047550 f   libucrt:environment_initialization.obj
 0001:00046594       ??$initialize_environment_by_cloning_nolock@D@@YAHXZ 0000000140047594 f   libucrt:environment_initialization.obj
 0001:00046674       ??$initialize_environment_by_cloning_nolock@_W@@YAHXZ 0000000140047674 f   libucrt:environment_initialization.obj
 0001:00046730       ??$uninitialize_environment_internal@D@@YAXAEAPEAPEAD@Z 0000000140047730 f   libucrt:environment_initialization.obj
 0001:0004674c       ??$uninitialize_environment_internal@_W@@YAXAEAPEAPEA_W@Z 000000014004774c f   libucrt:environment_initialization.obj
 0001:0004687c       ??$?RV<lambda_638799b9deba96c50f710eeac98168cd>@@AEAV<lambda_22ebabd17bc4fa466a2aca6d8deb888d>@@V<lambda_a6f7d7db0129f75315ebf26d50c089f1>@@@?$__crt_seh_guarded_call@H@@QEAAH$$QEAV<lambda_638799b9deba96c50f710eeac98168cd>@@AEAV<lambda_22ebabd17bc4fa466a2aca6d8deb888d>@@$$QEAV<lambda_a6f7d7db0129f75315ebf26d50c089f1>@@@Z 000000014004787c f   libucrt:onexit.obj
 0001:000468b8       ??$?RV<lambda_7777bce6b2f8c936911f934f8298dc43>@@AEAV<lambda_f03950bc5685219e0bcd2087efbe011e>@@V<lambda_3883c3dff614d5e0c5f61bb1ac94921c>@@@?$__crt_seh_guarded_call@H@@QEAAH$$QEAV<lambda_7777bce6b2f8c936911f934f8298dc43>@@AEAV<lambda_f03950bc5685219e0bcd2087efbe011e>@@$$QEAV<lambda_3883c3dff614d5e0c5f61bb1ac94921c>@@@Z 00000001400478b8 f   libucrt:onexit.obj
 0001:000468f4       ??R<lambda_22ebabd17bc4fa466a2aca6d8deb888d>@@QEBA@XZ 00000001400478f4 f   libucrt:onexit.obj
 0001:00046aa4       ??R<lambda_f03950bc5685219e0bcd2087efbe011e>@@QEBA@XZ 0000000140047aa4 f   libucrt:onexit.obj
 0001:00046c88       initialize_global_variables 0000000140047c88 f   libucrt:initialization.obj
 0001:00046c9c       initialize_c               0000000140047c9c f   libucrt:initialization.obj
 0001:00046cc0       uninitialize_environment   0000000140047cc0 f   libucrt:initialization.obj
 0001:00046cd0       initialize_pointers        0000000140047cd0 f   libucrt:initialization.obj
 0001:00046d10       uninitialize_vcruntime     0000000140047d10 f   libucrt:initialization.obj
 0001:00046d18       uninitialize_allocated_memory 0000000140047d18 f   libucrt:initialization.obj
 0001:00046d58       uninitialize_allocated_io_buffers 0000000140047d58 f   libucrt:initialization.obj
 0001:000470b4       ??$?RV<lambda_1d892b297fdedeee07ed8124eeb2f2fa>@@AEAV<lambda_ffc046909424fd52df0ac47e64813305>@@V<lambda_01a7098693036236037e7cdb9bca3d73>@@@?$__crt_seh_guarded_call@X@@QEAAX$$QEAV<lambda_1d892b297fdedeee07ed8124eeb2f2fa>@@AEAV<lambda_ffc046909424fd52df0ac47e64813305>@@$$QEAV<lambda_01a7098693036236037e7cdb9bca3d73>@@@Z 00000001400480b4 f   libucrt:wsetlocale.obj
 0001:000471f0       ??$?RV<lambda_410d79af7f07d98d83a3f525b3859a53>@@AEAV<lambda_3e16ef9562a7dcce91392c22ab16ea36>@@V<lambda_38119f0e861e05405d8a144b9b982f0a>@@@?$__crt_seh_guarded_call@X@@QEAAX$$QEAV<lambda_410d79af7f07d98d83a3f525b3859a53>@@AEAV<lambda_3e16ef9562a7dcce91392c22ab16ea36>@@$$QEAV<lambda_38119f0e861e05405d8a144b9b982f0a>@@@Z 00000001400481f0 f   libucrt:wsetlocale.obj
 0001:00047260       ??$?RV<lambda_e9338f07fe435327d97d4ef86149e64d>@@AEAV<lambda_2a444430fde8c29194d880d93eed5e8f>@@AEAV<lambda_02db5278e8aef8b5e4976579d73f5304>@@@?$__crt_seh_guarded_call@X@@QEAAX$$QEAV<lambda_e9338f07fe435327d97d4ef86149e64d>@@AEAV<lambda_2a444430fde8c29194d880d93eed5e8f>@@AEAV<lambda_02db5278e8aef8b5e4976579d73f5304>@@@Z 0000000140048260 f   libucrt:wsetlocale.obj
 0001:0004728c       ??R<lambda_2a444430fde8c29194d880d93eed5e8f>@@QEBA@XZ 000000014004828c f   libucrt:wsetlocale.obj
 0001:000476cc       _copytlocinfo_nolock       00000001400486cc f   libucrt:wsetlocale.obj
 0001:0004778c       _expandlocale              000000014004878c f   libucrt:wsetlocale.obj
 0001:00047d18       _wsetlocale_get_all        0000000140048d18 f   libucrt:wsetlocale.obj
 0001:00047f04       _wsetlocale_nolock         0000000140048f04 f   libucrt:wsetlocale.obj
 0001:00048194       _wsetlocale_set_cat        0000000140049194 f   libucrt:wsetlocale.obj
 0001:000484e0       parse_bcp47                00000001400494e0 f   libucrt:wsetlocale.obj
 0001:000486dc       parse_bcp47_code_page      00000001400496dc f   libucrt:wsetlocale.obj
 0001:00048724       parse_bcp47_language       0000000140049724 f   libucrt:wsetlocale.obj
 0001:000487b0       parse_bcp47_region         00000001400497b0 f   libucrt:wsetlocale.obj
 0001:000488a4       parse_bcp47_script         00000001400498a4 f   libucrt:wsetlocale.obj
 0001:00048934       string_is_alpha            0000000140049934 f   libucrt:wsetlocale.obj
 0001:00048a08       ??$?RV<lambda_e9ce07acdb0b138e546925ae9f1a2c9c>@@AEAV<lambda_2116bde18c9e5f34230805ea4a4660ed>@@V<lambda_5d037afbfc54bf1ca80d3d1ee4062886>@@@?$__crt_seh_guarded_call@PEAD@@QEAAPEAD$$QEAV<lambda_e9ce07acdb0b138e546925ae9f1a2c9c>@@AEAV<lambda_2116bde18c9e5f34230805ea4a4660ed>@@$$QEAV<lambda_5d037afbfc54bf1ca80d3d1ee4062886>@@@Z 0000000140049a08 f   libucrt:setlocale.obj
 0001:00048a48       ??R<lambda_2116bde18c9e5f34230805ea4a4660ed>@@QEBAPEADXZ 0000000140049a48 f   libucrt:setlocale.obj
 0001:00048e14       ??$common_fsopen@D@@YAPEAU_iobuf@@QEBD0H@Z 0000000140049e14 f   libucrt:fopen.obj
 0001:00049e3c       memcpy_s                   000000014004ae3c f   libucrt:cfout.obj
 0001:00049e3c       memcpy_s                   000000014004ae3c f   libucrt:strtod.obj
 0001:0004ae20       $$000000                   000000014004be20     libucrt:strncmp.obj
 0001:0004af04       ?write_double_translated_ansi_nolock@@YA?AUwrite_result@?A0x17268360@@HQEBDIAEAV__crt_cached_ptd_host@@@Z 000000014004bf04 f   libucrt:write.obj
 0001:0004b37c       ?write_text_ansi_nolock@@YA?AUwrite_result@?A0x17268360@@HQEBDI@Z 000000014004c37c f   libucrt:write.obj
 0001:0004b480       ?write_text_utf16le_nolock@@YA?AUwrite_result@?A0x17268360@@HQEBDI@Z 000000014004c480 f   libucrt:write.obj
 0001:0004b59c       ?write_text_utf8_nolock@@YA?AUwrite_result@?A0x17268360@@HQEBDI@Z 000000014004c59c f   libucrt:write.obj
 0001:0004bbcc       ??$write_buffer_nolock@D@@YA_NDV__crt_stdio_stream@@AEAV__crt_cached_ptd_host@@@Z 000000014004cbcc f   libucrt:_flsbuf.obj
 0001:0004bcc4       ??$write_buffer_nolock@_W@@YA_N_WV__crt_stdio_stream@@AEAV__crt_cached_ptd_host@@@Z 000000014004ccc4 f   libucrt:_flsbuf.obj
 0001:0004bdc0       ?stream_is_at_end_of_file_nolock@@YA_NV__crt_stdio_stream@@@Z 000000014004cdc0 f   libucrt:_flsbuf.obj
 0001:0004c128       ??$?RV<lambda_0ae27a3a962d80f24befdcbee591983d>@@AEAV<lambda_8d0ee55de4b1038c4002e0adecdf1839>@@V<lambda_dc504788e8f1664fe9b84e20bfb512f2>@@@?$__crt_seh_guarded_call@X@@QEAAX$$QEAV<lambda_0ae27a3a962d80f24befdcbee591983d>@@AEAV<lambda_8d0ee55de4b1038c4002e0adecdf1839>@@$$QEAV<lambda_dc504788e8f1664fe9b84e20bfb512f2>@@@Z 000000014004d128 f   libucrt:per_thread_data.obj
 0001:0004c168       ??$?RV<lambda_2d41944a1d46af3157314b8a01080d33>@@AEAV<lambda_8f455de75cd7d7f24b4096f044d8b9e6>@@V<lambda_aa500f224e6afead328df44964fe2772>@@@?$__crt_seh_guarded_call@X@@QEAAX$$QEAV<lambda_2d41944a1d46af3157314b8a01080d33>@@AEAV<lambda_8f455de75cd7d7f24b4096f044d8b9e6>@@$$QEAV<lambda_aa500f224e6afead328df44964fe2772>@@@Z 000000014004d168 f   libucrt:per_thread_data.obj
 0001:0004c1a8       ??$?RV<lambda_aa87e3671a710a21b5dc78c0bdf72e11>@@AEAV<lambda_92619d2358a28f41a33ba319515a20b9>@@V<lambda_6992ecaafeb10aed2b74cb1fae11a551>@@@?$__crt_seh_guarded_call@X@@QEAAX$$QEAV<lambda_aa87e3671a710a21b5dc78c0bdf72e11>@@AEAV<lambda_92619d2358a28f41a33ba319515a20b9>@@$$QEAV<lambda_6992ecaafeb10aed2b74cb1fae11a551>@@@Z 000000014004d1a8 f   libucrt:per_thread_data.obj
 0001:0004c1f0       ??$?RV<lambda_f2e299630e499de9f9a165e60fcd3db5>@@AEAV<lambda_2ae9d31cdba2644fcbeaf08da7c24588>@@V<lambda_40d01ff24d0e7b3814fdbdcee8eab3c7>@@@?$__crt_seh_guarded_call@X@@QEAAX$$QEAV<lambda_f2e299630e499de9f9a165e60fcd3db5>@@AEAV<lambda_2ae9d31cdba2644fcbeaf08da7c24588>@@$$QEAV<lambda_40d01ff24d0e7b3814fdbdcee8eab3c7>@@@Z 000000014004d1f0 f   libucrt:per_thread_data.obj
 0001:0004c250       ?construct_ptd_array@@YAXQEAU__acrt_ptd@@@Z 000000014004d250 f   libucrt:per_thread_data.obj
 0001:0004c320       ?destroy_fls@@YAXPEAX@Z    000000014004d320 f   libucrt:per_thread_data.obj
 0001:0004c340       ?destroy_ptd_array@@YAXQEAU__acrt_ptd@@@Z 000000014004d340 f   libucrt:per_thread_data.obj
 0001:0004c438       ?replace_current_thread_locale_nolock@@YAXQEAU__acrt_ptd@@QEAU__crt_locale_data@@@Z 000000014004d438 f   libucrt:per_thread_data.obj
 0001:0004c83c       ??$?RV<lambda_ad8af0d99a0adf03d037d7dffe354bb5>@@AEAV<lambda_c9ba49e555ba839a7b07aa3fbecb7617>@@V<lambda_2f1ebd5d68526518146ae959c9e734c8>@@@?$__crt_seh_guarded_call@H@@QEAAH$$QEAV<lambda_ad8af0d99a0adf03d037d7dffe354bb5>@@AEAV<lambda_c9ba49e555ba839a7b07aa3fbecb7617>@@$$QEAV<lambda_2f1ebd5d68526518146ae959c9e734c8>@@@Z 000000014004d83c f   libucrt:close.obj
 0001:0004cb54       ?find_or_allocate_unused_stream_nolock@@YA?AV__crt_stdio_stream@@XZ 000000014004db54 f   libucrt:stream.obj
 0001:0004ccfc       ?<lambda_invoker_cdecl>@<lambda_795c6bd18aed400428efeb9a5f0e1479>@@CA@PEA_W@Z 000000014004dcfc f   libucrt:winapi_thunks.obj
 0001:0004cd34       ??$?RV<lambda_48fc4a32460bb0512d3b13f8499328be>@@AEAV<lambda_6c3dac0a4f3f9cefca9bb494422f9b77>@@V<lambda_0a2f2c9f9a56eb2b08bfa6ff61d331c5>@@@?$__crt_seh_guarded_call@H@@QEAAH$$QEAV<lambda_48fc4a32460bb0512d3b13f8499328be>@@AEAV<lambda_6c3dac0a4f3f9cefca9bb494422f9b77>@@$$QEAV<lambda_0a2f2c9f9a56eb2b08bfa6ff61d331c5>@@@Z 000000014004dd34 f   libucrt:winapi_thunks.obj
 0001:0004cdb0       ?try_get_function@@YAPEAXW4function_id@?A0x391cf84c@@QEBDQEBW4module_id@2@2@Z 000000014004ddb0 f   libucrt:winapi_thunks.obj
 0001:0004d858       ?initialize_inherited_file_handles_nolock@@YAXXZ 000000014004e858 f   libucrt:ioinit.obj
 0001:0004d948       ?initialize_stdio_handles_nolock@@YAXXZ 000000014004e948 f   libucrt:ioinit.obj
 0001:0004dca0       ??$translate_text_mode_nolock@_W@@YAHHQEA_W_K@Z 000000014004eca0 f   libucrt:read.obj
 0001:0004de60       ?translate_ansi_or_utf8_nolock@@YAHHQEAD_KQEA_W1@Z 000000014004ee60 f   libucrt:read.obj
 0001:0004e698       ??$common_lseek@_J@@YA_JH_JHAEAV__crt_cached_ptd_host@@@Z 000000014004f698 f   libucrt:lseek.obj
 0001:0004e7b8       ??$common_lseek_nolock@_J@@YA_JH_JHAEAV__crt_cached_ptd_host@@@Z 000000014004f7b8 f   libucrt:lseek.obj
 0001:0004e9ac       ??$common_ftell@_J@@YA_JV__crt_stdio_stream@@AEAV__crt_cached_ptd_host@@@Z 000000014004f9ac f   libucrt:ftell.obj
 0001:0004ea18       ??$common_ftell_nolock@_J@@YA_JV__crt_stdio_stream@@AEAV__crt_cached_ptd_host@@@Z 000000014004fa18 f   libucrt:ftell.obj
 0001:0004eb68       ?common_ftell_read_mode_nolock@@YA_JV__crt_stdio_stream@@_J1AEAV__crt_cached_ptd_host@@@Z 000000014004fb68 f   libucrt:ftell.obj
 0001:0004ecc4       ?common_ftell_translated_utf8_nolock@@YA_JV__crt_stdio_stream@@_JAEAV__crt_cached_ptd_host@@@Z 000000014004fcc4 f   libucrt:ftell.obj
 0001:0004ee48       ?count_newline_bytes@@YA_JQEBD0W4__crt_lowio_text_mode@@@Z 000000014004fe48 f   libucrt:ftell.obj
 0001:0004ef44       ??$?RV<lambda_a37b2b86f63e897a80ea819b0eb08c01>@@AEAV<lambda_38ce7e780aa69e748d6df282ebc68efe>@@V<lambda_99fb1378e971ab6e7edea83e3a7a83a2>@@@?$__crt_seh_guarded_call@H@@QEAAH$$QEAV<lambda_a37b2b86f63e897a80ea819b0eb08c01>@@AEAV<lambda_38ce7e780aa69e748d6df282ebc68efe>@@$$QEAV<lambda_99fb1378e971ab6e7edea83e3a7a83a2>@@@Z 000000014004ff44 f   libucrt:commit.obj
 0001:0004f19c       ?fp_format_a@@YAHQEBNPEAD_KQEAD2H_NIW4__acrt_rounding_mode@@AEAV__crt_cached_ptd_host@@@Z 000000014005019c f   libucrt:cvt.obj
 0001:0004f534       ?fp_format_e@@YAHQEBNQEAD_K12H_NIW4__acrt_rounding_mode@@AEAV__crt_cached_ptd_host@@@Z 0000000140050534 f   libucrt:cvt.obj
 0001:0004f630       ?fp_format_e_internal@@YAHQEAD_KH_NIQEAU_strflt@@2AEAV__crt_cached_ptd_host@@@Z 0000000140050630 f   libucrt:cvt.obj
 0001:0004f814       ?fp_format_f@@YAHQEBNQEAD_K12HW4__acrt_rounding_mode@@AEAV__crt_cached_ptd_host@@@Z 0000000140050814 f   libucrt:cvt.obj
 0001:0004f8ec       ?fp_format_f_internal@@YAHQEAD_KHQEAU_strflt@@_NAEAV__crt_cached_ptd_host@@@Z 00000001400508ec f   libucrt:cvt.obj
 0001:0004fa44       ?fp_format_g@@YAHQEBNQEAD_K12H_NIW4__acrt_rounding_mode@@AEAV__crt_cached_ptd_host@@@Z 0000000140050a44 f   libucrt:cvt.obj
 0001:0004fb98       ?should_round_up@@YA_NQEBN_KFW4__acrt_rounding_mode@@@Z 0000000140050b98 f   libucrt:cvt.obj
 0001:00050610       ??$common_gmtime_s@_J@@YAHQEAUtm@@QEB_J@Z 0000000140051610 f   libucrt:gmtime.obj
 0001:000507a8       ?compute_year@@YAHAEA_JAEA_N@Z 00000001400517a8 f   libucrt:gmtime.obj
 0001:000508a0       ?_isindst_nolock@@YAHQEAUtm@@@Z 00000001400518a0 f   libucrt:tzset.obj
 0001:00050b9c       ?cvtdate@@YAXW4transition_type@?A0x7639d0b4@@W4date_type@2@HHHHHHHHH@Z 0000000140051b9c f   libucrt:tzset.obj
 0001:00050d94       ?tzset_env_copy_to_tzname@@YAXQEB_WQEA_WQEAD_K@Z 0000000140051d94 f   libucrt:tzset.obj
 0001:00050e78       ?tzset_from_environment_nolock@@YAXPEA_W@Z 0000000140051e78 f   libucrt:tzset.obj
 0001:000510f4       ?tzset_from_system_nolock@@YAXXZ 00000001400520f4 f   libucrt:tzset.obj
 0001:0005127c       ?tzset_nolock@@YAXXZ       000000014005227c f   libucrt:tzset.obj
 0001:0005138c       ?tzset_os_copy_to_tzname@@YAXQEB_WQEA_WQEADI@Z 000000014005238c f   libucrt:tzset.obj
 0001:000514e4       ?<lambda_invoker_cdecl>@<lambda_a1ce4c8ae42411fd470c77163914f50e>@@CAHPEBX0@Z 00000001400524e4 f   libucrt:argv_wildcards.obj
 0001:00051684       ??$common_expand_argv_wildcards@D@@YAHQEAPEADQEAPEAPEAD@Z 0000000140052684 f   libucrt:argv_wildcards.obj
 0001:000518c8       ??$copy_and_add_argument_to_buffer@D@@YAHQEBD0_KAEAV?$argument_list@D@?A0x5f5c8891@@@Z 00000001400528c8 f   libucrt:argv_wildcards.obj
 0001:00051a4c       ??$expand_argument_wildcards@D@@YAHQEAD0AEAV?$argument_list@D@?A0x5f5c8891@@@Z 0000000140052a4c f   libucrt:argv_wildcards.obj
 0001:00051ec8       ??$?RV<lambda_efdfa57d1f175319df784efa44bb7b81>@@AEAV<lambda_5f0a4c1567f8adc6734073e5d1e1b35c>@@V<lambda_2e8a7d3640ea6ccb4c2413664c2db6fd>@@@?$__crt_seh_guarded_call@X@@QEAAX$$QEAV<lambda_efdfa57d1f175319df784efa44bb7b81>@@AEAV<lambda_5f0a4c1567f8adc6734073e5d1e1b35c>@@$$QEAV<lambda_2e8a7d3640ea6ccb4c2413664c2db6fd>@@@Z 0000000140052ec8 f   libucrt:mbctype.obj
 0001:00052098       ?getSystemCP@@YAHH@Z       0000000140053098 f   libucrt:mbctype.obj
 0001:00052118       ?setSBCS@@YAXPEAU__crt_multibyte_data@@@Z 0000000140053118 f   libucrt:mbctype.obj
 0001:000521b0       ?setSBUpLow@@YAXPEAU__crt_multibyte_data@@@Z 00000001400531b0 f   libucrt:mbctype.obj
 0001:00052398       ?setmbcp_internal@@YAHH_NQEAU__acrt_ptd@@QEAPEAU__crt_multibyte_data@@@Z 0000000140053398 f   libucrt:mbctype.obj
 0001:00052608       ?update_thread_multibyte_data_internal@@YAPEAU__crt_multibyte_data@@QEAU__acrt_ptd@@QEAPEAU1@@Z 0000000140053608 f   libucrt:mbctype.obj
 0001:000529fc       ?x_ismbbtype_l@@YAHPEAU__crt_locale_pointers@@IHH@Z 00000001400539fc f   libucrt:ismbbyte.obj
 0001:00052e08       ??$common_set_variable_in_environment_nolock@D@@YAHQEADH@Z 0000000140053e08 f   libucrt:setenv.obj
 0001:00053160       ??$common_set_variable_in_environment_nolock@_W@@YAHQEA_WH@Z 0000000140054160 f   libucrt:setenv.obj
 0001:000534c4       ??$copy_environment@D@@YAPEAPEADQEAPEAD@Z 00000001400544c4 f   libucrt:setenv.obj
 0001:000535ac       ??$copy_environment@_W@@YAPEAPEA_WQEAPEA_W@Z 00000001400545ac f   libucrt:setenv.obj
 0001:00054878       ?free_crt_array_internal@@YAXQEAPEBX_K@Z 0000000140055878 f   libucrt:inittime.obj
 0001:000548ac       ?initialize_lc_time@@YA_NQEAU__crt_lc_time_data@@QEAU__crt_locale_data@@@Z 00000001400558ac f   libucrt:inittime.obj
 0001:00055498       GetLocaleNameFromDefault   0000000140056498 f   libucrt:get_qualified_locale.obj
 0001:00055540       GetLocaleNameFromLangCountry 0000000140056540 f   libucrt:get_qualified_locale.obj
 0001:00055610       GetLocaleNameFromLanguage  0000000140056610 f   libucrt:get_qualified_locale.obj
 0001:000556a8       LangCountryEnumProcEx      00000001400566a8 f   libucrt:get_qualified_locale.obj
 0001:00055988       LanguageEnumProcEx         0000000140056988 f   libucrt:get_qualified_locale.obj
 0001:00055a74       ProcessCodePage            0000000140056a74 f   libucrt:get_qualified_locale.obj
 0001:00055b30       TestDefaultCountry         0000000140056b30 f   libucrt:get_qualified_locale.obj
 0001:00055b9c       TranslateName              0000000140056b9c f   libucrt:get_qualified_locale.obj
 0001:00055eac       CountryEnumProc            0000000140056eac f   libucrt:getqloc_downlevel.obj
 0001:00055f94       GetLcidFromLangCountry     0000000140056f94 f   libucrt:getqloc_downlevel.obj
 0001:00056064       GetLcidFromLanguage        0000000140057064 f   libucrt:getqloc_downlevel.obj
 0001:000560fc       LangCountryEnumProc        00000001400570fc f   libucrt:getqloc_downlevel.obj
 0001:00056344       LanguageEnumProc           0000000140057344 f   libucrt:getqloc_downlevel.obj
 0001:0005644c       LcidFromHexString          000000014005744c f   libucrt:getqloc_downlevel.obj
 0001:0005649c       ProcessCodePage            000000014005749c f   libucrt:getqloc_downlevel.obj
 0001:0005654c       TestDefaultLanguage        000000014005754c f   libucrt:getqloc_downlevel.obj
 0001:00056600       TranslateName              0000000140057600 f   libucrt:getqloc_downlevel.obj
 0001:00056900       ?_mbstowcs_internal@@YAHPEA_KPEA_W_KPEBD2AEAV__crt_cached_ptd_host@@@Z 0000000140057900 f   libucrt:mbstowcs.obj
 0001:00056a20       ?_mbstowcs_l_helper@@YA_KPEA_WPEBD_KAEAV__crt_cached_ptd_host@@@Z 0000000140057a20 f   libucrt:mbstowcs.obj
 0001:00056cc4       ?_wcstombs_internal@@YAHPEA_KPEAD_KPEB_W2AEAV__crt_cached_ptd_host@@@Z 0000000140057cc4 f   libucrt:wcstombs.obj
 0001:00056dd8       ?_wcstombs_l_helper@@YA_KPEADPEB_W_KAEAV__crt_cached_ptd_host@@@Z 0000000140057dd8 f   libucrt:wcstombs.obj
 0001:00057638       ?InternalGetLocaleInfoA@@YAHQEAU__crt_locale_pointers@@QEB_WKQEADH@Z 0000000140058638 f   libucrt:getlocaleinfoa.obj
 0001:0005797c       ?__acrt_LCMapStringA_stat@@YAHPEAU__crt_locale_pointers@@PEB_WKPEBDHPEADHHH@Z 000000014005897c f   libucrt:lcmapstringa.obj
 0001:00058840       ?should_round_up@@YA_NQEBD0HW4__acrt_has_trailing_digits@@W4__acrt_rounding_mode@@@Z 0000000140059840 f   libucrt:_fptostr.obj
 0001:0005a1c8       ??$common_getenv_nolock@_W@@YAPEA_WQEB_W@Z 000000014005b1c8 f   libucrt:getenv.obj
 0001:0005a260       ??$common_getenv_s@_W@@YAHQEA_KQEA_W_KQEB_W@Z 000000014005b260 f   libucrt:getenv.obj
 0001:0005a860       fallbackMethod             000000014005b860 f   libucrt:strpbrk.obj
 0001:0005ac0c       $LN79                      000000014005bc0c     libucrt:strpbrk.obj
 0001:0005ac48       $LN78                      000000014005bc48     libucrt:strpbrk.obj
 0001:0005ac88       $LN77                      000000014005bc88     libucrt:strpbrk.obj
 0001:0005ad64       ?initialize_multibyte@@YAHXZ 000000014005bd64 f   libucrt:multibyte_initializer.obj
 0001:0005b1b0       ??$common_xtox@K_W@@YAHKQEA_W_KI_N@Z 000000014005c1b0 f   libucrt:xtoa.obj
 0001:0005b294       ??$common_xtox_s@K_W@@YAHKQEA_W_KI_N@Z 000000014005c294 f   libucrt:xtoa.obj
 0001:0005b7e0       ??$common_sopen_dispatch@D@@YAHQEBDHHHQEAHH@Z 000000014005c7e0 f   libucrt:open.obj
 0001:0005b8a4       ?configure_text_mode@@YAHHUfile_options@?A0xa9d50aae@@HAEAW4__crt_lowio_text_mode@@@Z 000000014005c8a4 f   libucrt:open.obj
 0001:0005bb24       ?decode_options@@YA?AUfile_options@?A0xa9d50aae@@HHH@Z 000000014005cb24 f   libucrt:open.obj
 0001:0005bd2c       ?truncate_ctrl_z_if_present@@YAHH@Z 000000014005cd2c f   libucrt:open.obj
 0001:0005c330       $$000000                   000000014005d330     libucrt:fpsr.obj
 0001:0005c990       $$000000                   000000014005d990     libucrt:log10.obj
 0001:0005d03c       ?InternalCompareStringA@@YAHPEAU__crt_locale_pointers@@PEB_WKPEBDH2HH@Z 000000014005e03c f   libucrt:comparestringa.obj
 0001:0005d818       common_control87           000000014005e818 f   libucrt:ieee.obj
 0001:0005dab4       _call_matherr              000000014005eab4 f   libucrt:libm_error.obj
 0001:0005db1c       _exception_enabled         000000014005eb1c f   libucrt:libm_error.obj
 0001:0005ddb0       _log_special_common        000000014005edb0 f   libucrt:log_special.obj
 0001:0005ded0       $$000000                   000000014005eed0     libcmt:amdsecgs.obj
 0001:0005e20c       capture_current_context    000000014005f20c f   libcmt:gs_report.obj
 0001:0005e27c       capture_previous_context   000000014005f27c f   libcmt:gs_report.obj
 0001:0005e620       $$000000                   000000014005f620     libcmt:guard_dispatch.obj
 0001:0005e640       $$000000                   000000014005f640     libcmt:guard_xfg_dispatch.obj
 0001:0005e680       $$000000                   000000014005f680     libvcruntime:memcpy.obj
 0001:0005e690       $$000000                   000000014005f690     libvcruntime:memcpy.obj
 0001:0005e6be       MoveSmall0                 000000014005f6be     libvcruntime:memcpy.obj
 0001:0005e6c0       MoveSmall15                000000014005f6c0     libvcruntime:memcpy.obj
 0001:0005e6e0       MoveSmall11                000000014005f6e0     libvcruntime:memcpy.obj
 0001:0005e6f8       MoveSmall2                 000000014005f6f8     libvcruntime:memcpy.obj
 0001:0005e700       MoveSmall7                 000000014005f700     libvcruntime:memcpy.obj
 0001:0005e718       MoveSmall14                000000014005f718     libvcruntime:memcpy.obj
 0001:0005e72f       MoveSmall3                 000000014005f72f     libvcruntime:memcpy.obj
 0001:0005e740       MoveSmall13                000000014005f740     libvcruntime:memcpy.obj
 0001:0005e756       MoveSmall10                000000014005f756     libvcruntime:memcpy.obj
 0001:0005e765       MoveSmall9                 000000014005f765     libvcruntime:memcpy.obj
 0001:0005e773       MoveSmall12                000000014005f773     libvcruntime:memcpy.obj
 0001:0005e780       MoveSmall6                 000000014005f780     libvcruntime:memcpy.obj
 0001:0005e78f       MoveSmall5                 000000014005f78f     libvcruntime:memcpy.obj
 0001:0005e79d       MoveSmall8                 000000014005f79d     libvcruntime:memcpy.obj
 0001:0005e7a4       MoveSmall1                 000000014005f7a4     libvcruntime:memcpy.obj
 0001:0005e7aa       MoveSmall4                 000000014005f7aa     libvcruntime:memcpy.obj
 0001:0005e7b0       MoveAbove15                000000014005f7b0     libvcruntime:memcpy.obj
 0001:0005e7cd       MoveAbove32                000000014005f7cd     libvcruntime:memcpy.obj
 0001:0005e80d       MoveWithYMM                000000014005f80d     libvcruntime:memcpy.obj
 0001:0005e860       YmmLoop                    000000014005f860     libvcruntime:memcpy.obj
 0001:0005e8e8       MovUpTo256WithYMM          000000014005f8e8     libvcruntime:memcpy.obj
 0001:0005e905       Mov8YmmBlocks              000000014005f905     libvcruntime:memcpy.obj
 0001:0005e919       Mov7YmmBlocks              000000014005f919     libvcruntime:memcpy.obj
 0001:0005e92d       Mov6YmmBlocks              000000014005f92d     libvcruntime:memcpy.obj
 0001:0005e941       Mov5YmmBlocks              000000014005f941     libvcruntime:memcpy.obj
 0001:0005e955       Mov4YmmBlocks              000000014005f955     libvcruntime:memcpy.obj
 0001:0005e963       Mov3YmmBlocks              000000014005f963     libvcruntime:memcpy.obj
 0001:0005e971       Mov2YmmBlocks              000000014005f971     libvcruntime:memcpy.obj
 0001:0005e97f       Mov1YmmBlocks              000000014005f97f     libvcruntime:memcpy.obj
 0001:0005e986       Mov0YmmBlocks              000000014005f986     libvcruntime:memcpy.obj
 0001:0005e990       YmmLoopNT                  000000014005f990     libvcruntime:memcpy.obj
 0001:0005ea35       Mov8YmmBlocksNT            000000014005fa35     libvcruntime:memcpy.obj
 0001:0005ea49       Mov7YmmBlocksNT            000000014005fa49     libvcruntime:memcpy.obj
 0001:0005ea5d       Mov6YmmBlocksNT            000000014005fa5d     libvcruntime:memcpy.obj
 0001:0005ea71       Mov5YmmBlocksNT            000000014005fa71     libvcruntime:memcpy.obj
 0001:0005ea85       Mov4YmmBlocksNT            000000014005fa85     libvcruntime:memcpy.obj
 0001:0005ea93       Mov3YmmBlocksNT            000000014005fa93     libvcruntime:memcpy.obj
 0001:0005eaa1       Mov2YmmBlocksNT            000000014005faa1     libvcruntime:memcpy.obj
 0001:0005eaaf       Mov1YmmBlocksNT            000000014005faaf     libvcruntime:memcpy.obj
 0001:0005eab6       Mov0YmmBlocksNT            000000014005fab6     libvcruntime:memcpy.obj
 0001:0005ead0       NoAVX                      000000014005fad0     libvcruntime:memcpy.obj
 0001:0005eae6       MoveWithXMM                000000014005fae6     libvcruntime:memcpy.obj
 0001:0005eb20       XmmLoop                    000000014005fb20     libvcruntime:memcpy.obj
 0001:0005eb8c       MovUpTo128WithXMM          000000014005fb8c     libvcruntime:memcpy.obj
 0001:0005eba9       Mov8XmmBlocks              000000014005fba9     libvcruntime:memcpy.obj
 0001:0005ebb7       Mov7XmmBlocks              000000014005fbb7     libvcruntime:memcpy.obj
 0001:0005ebc5       Mov6XmmBlocks              000000014005fbc5     libvcruntime:memcpy.obj
 0001:0005ebd3       Mov5XmmBlocks              000000014005fbd3     libvcruntime:memcpy.obj
 0001:0005ebe1       Mov4XmmBlocks              000000014005fbe1     libvcruntime:memcpy.obj
 0001:0005ebef       Mov3XmmBlocks              000000014005fbef     libvcruntime:memcpy.obj
 0001:0005ebfd       Mov2XmmBlocks              000000014005fbfd     libvcruntime:memcpy.obj
 0001:0005ec0b       Mov1XmmBlocks              000000014005fc0b     libvcruntime:memcpy.obj
 0001:0005ec12       Mov0XmmBlocks              000000014005fc12     libvcruntime:memcpy.obj
 0001:0005ec20       CopyDown                   000000014005fc20     libvcruntime:memcpy.obj
 0001:0005ec3b       XmmMovAlign                000000014005fc3b     libvcruntime:memcpy.obj
 0001:0005ec53       XmmMovLargeTest            000000014005fc53     libvcruntime:memcpy.obj
 0001:0005ec70       XmmMovLargeOuter           000000014005fc70     libvcruntime:memcpy.obj
 0001:0005ec77       XmmMovLargeInner           000000014005fc77     libvcruntime:memcpy.obj
 0001:0005eccd       XmmMovSmallTest            000000014005fccd     libvcruntime:memcpy.obj
 0001:0005ece0       XmmMovSmallLoop            000000014005fce0     libvcruntime:memcpy.obj
 0001:0005ecf0       XmmMovTrailing             000000014005fcf0     libvcruntime:memcpy.obj
 0001:0005ecf9       XmmMovReturn               000000014005fcf9     libvcruntime:memcpy.obj
 0001:0005ed20       $$000000                   000000014005fd20     libvcruntime:memset.obj
 0001:0005ed30       $$000000                   000000014005fd30     libvcruntime:memset.obj
 0001:0005ed71       SetSmall15                 000000014005fd71     libvcruntime:memset.obj
 0001:0005ed75       SetSmall7                  000000014005fd75     libvcruntime:memset.obj
 0001:0005ed79       SetSmall3                  000000014005fd79     libvcruntime:memset.obj
 0001:0005ed7e       SetSmall1                  000000014005fd7e     libvcruntime:memset.obj
 0001:0005ed82       SetSmall0                  000000014005fd82     libvcruntime:memset.obj
 0001:0005ed83       SetSmall14                 000000014005fd83     libvcruntime:memset.obj
 0001:0005ed87       SetSmall6                  000000014005fd87     libvcruntime:memset.obj
 0001:0005ed8b       SetSmall2                  000000014005fd8b     libvcruntime:memset.obj
 0001:0005ed90       MoveSmall0                 000000014005fd90     libvcruntime:memset.obj
 0001:0005eda0       SetSmall13                 000000014005fda0     libvcruntime:memset.obj
 0001:0005eda4       SetSmall5                  000000014005fda4     libvcruntime:memset.obj
 0001:0005edb0       SetSmall12                 000000014005fdb0     libvcruntime:memset.obj
 0001:0005edb4       SetSmall4                  000000014005fdb4     libvcruntime:memset.obj
 0001:0005edb9       SetSmall11                 000000014005fdb9     libvcruntime:memset.obj
 0001:0005edc7       SetSmall9                  000000014005fdc7     libvcruntime:memset.obj
 0001:0005edd0       SetSmall10                 000000014005fdd0     libvcruntime:memset.obj
 0001:0005edda       SetSmall8                  000000014005fdda     libvcruntime:memset.obj
 0001:0005ede0       SetAbove15                 000000014005fde0     libvcruntime:memset.obj
 0001:0005edf6       SetAbove32                 000000014005fdf6     libvcruntime:memset.obj
 0001:0005ee22       SetWithYMM                 000000014005fe22     libvcruntime:memset.obj
 0001:0005ee60       YmmLoop                    000000014005fe60     libvcruntime:memset.obj
 0001:0005eeaa       SetUpTo256WithYMM          000000014005feaa     libvcruntime:memset.obj
 0001:0005eec7       Set8YmmBlocks              000000014005fec7     libvcruntime:memset.obj
 0001:0005eed1       Set7YmmBlocks              000000014005fed1     libvcruntime:memset.obj
 0001:0005eedb       Set6YmmBlocks              000000014005fedb     libvcruntime:memset.obj
 0001:0005eee5       Set5YmmBlocks              000000014005fee5     libvcruntime:memset.obj
 0001:0005eeef       Set4YmmBlocks              000000014005feef     libvcruntime:memset.obj
 0001:0005eef6       Set3YmmBlocks              000000014005fef6     libvcruntime:memset.obj
 0001:0005eefd       Set2YmmBlocks              000000014005fefd     libvcruntime:memset.obj
 0001:0005ef04       Set1YmmBlocks              000000014005ff04     libvcruntime:memset.obj
 0001:0005ef0b       Set0YmmBlocks              000000014005ff0b     libvcruntime:memset.obj
 0001:0005ef13       SetWithYMMNT               000000014005ff13     libvcruntime:memset.obj
 0001:0005ef20       YmmLoopNT                  000000014005ff20     libvcruntime:memset.obj
 0001:0005ef87       Set8YmmBlocksNT            000000014005ff87     libvcruntime:memset.obj
 0001:0005ef91       Set7YmmBlocksNT            000000014005ff91     libvcruntime:memset.obj
 0001:0005ef9b       Set6YmmBlocksNT            000000014005ff9b     libvcruntime:memset.obj
 0001:0005efa5       Set5YmmBlocksNT            000000014005ffa5     libvcruntime:memset.obj
 0001:0005efaf       Set4YmmBlocksNT            000000014005ffaf     libvcruntime:memset.obj
 0001:0005efb6       Set3YmmBlocksNT            000000014005ffb6     libvcruntime:memset.obj
 0001:0005efbd       Set2YmmBlocksNT            000000014005ffbd     libvcruntime:memset.obj
 0001:0005efc4       Set1YmmBlocksNT            000000014005ffc4     libvcruntime:memset.obj
 0001:0005efcb       Set0YmmBlocksNT            000000014005ffcb     libvcruntime:memset.obj
 0001:0005efe0       NoAVX                      000000014005ffe0     libvcruntime:memset.obj
 0001:0005eff6       SetWithXMM                 000000014005fff6     libvcruntime:memset.obj
 0001:0005f020       XmmLoop                    0000000140060020     libvcruntime:memset.obj
 0001:0005f05e       SetUpTo128WithXMM          000000014006005e     libvcruntime:memset.obj
 0001:0005f07b       Set8XmmBlocks              000000014006007b     libvcruntime:memset.obj
 0001:0005f082       Set7XmmBlocks              0000000140060082     libvcruntime:memset.obj
 0001:0005f089       Set6XmmBlocks              0000000140060089     libvcruntime:memset.obj
 0001:0005f090       Set5XmmBlocks              0000000140060090     libvcruntime:memset.obj
 0001:0005f097       Set4XmmBlocks              0000000140060097     libvcruntime:memset.obj
 0001:0005f09e       Set3XmmBlocks              000000014006009e     libvcruntime:memset.obj
 0001:0005f0a5       Set2XmmBlocks              00000001400600a5     libvcruntime:memset.obj
 0001:0005f0ac       Set1XmmBlocks              00000001400600ac     libvcruntime:memset.obj
 0001:0005f0b3       Set0XmmBlocks              00000001400600b3     libvcruntime:memset.obj
 0001:0005f0e0       $$000000                   00000001400600e0     libvcruntime:memcmp.obj
 0001:0005f0f0       mcmp10                     00000001400600f0     libvcruntime:memcmp.obj
 0001:0005f102       mcmp20                     0000000140060102     libvcruntime:memcmp.obj
 0001:0005f10b       mcmp30                     000000014006010b     libvcruntime:memcmp.obj
 0001:0005f110       mcmp40                     0000000140060110     libvcruntime:memcmp.obj
 0001:0005f11f       mcmp_equal                 000000014006011f     libvcruntime:memcmp.obj
 0001:0005f123       mcmp_not_equal             0000000140060123     libvcruntime:memcmp.obj
 0001:0005f12a       mcmp50                     000000014006012a     libvcruntime:memcmp.obj
 0001:0005f130       mcmp60                     0000000140060130     libvcruntime:memcmp.obj
 0001:0005f167       mcmp70                     0000000140060167     libvcruntime:memcmp.obj
 0001:0005f170       mcmp80                     0000000140060170     libvcruntime:memcmp.obj
 0001:0005f188       mcmp_adjust24              0000000140060188     libvcruntime:memcmp.obj
 0001:0005f18c       mcmp_adjust16              000000014006018c     libvcruntime:memcmp.obj
 0001:0005f190       mcmp_adjust8               0000000140060190     libvcruntime:memcmp.obj
 0001:0005f194       mcmp_adjust0               0000000140060194     libvcruntime:memcmp.obj
 0001:0005f1b0       __scrt_is_nonwritable_in_current_image$filt$0 00000001400601b0 f   libcmt:utility.obj
 0001:0005f1c8       ?filt$0@?0??__scrt_common_main_seh@@YAHXZ@4HA 00000001400601c8 f   libcmt:exe_main.obj
 0001:0005f1e6       ?dtor$0@?0??_Init@locale@std@@CAPEAV_Locimp@12@_N@Z@4HA 00000001400601e6 f   libcpmt:locale0.obj
 0001:0005f1f2       ?filt$0@?0???$_CallSETranslator@V__FrameHandler3@@@@YAHPEAUEHExceptionRecord@@PEA_KPEAU_CONTEXT@@PEAU_xDISPATCHER_CONTEXT@@PEBU_s_FuncInfo@@K1H@Z@4HA 00000001400601f2 f   libvcruntime:risctrnsctrl.obj
 0001:0005f295       ?filt$0@?0???$_CallSETranslator@V__FrameHandler4@@@@YAHPEAUEHExceptionRecord@@PEA_KPEAU_CONTEXT@@PEAU_xDISPATCHER_CONTEXT@@PEAUFuncInfo4@FH4@@K1H@Z@4HA 0000000140060295 f   libvcruntime:risctrnsctrl.obj
 0001:0005f346       __DestructExceptionObject$filt$0 0000000140060346 f   libvcruntime:ehhelpers.obj
 0001:0005f3dc       ?fin$0@?0???$__InternalCxxFrameHandlerWrapper@V__FrameHandler4@@@@YA?AW4_EXCEPTION_DISPOSITION@@PEAUEHExceptionRecord@@PEA_KPEAU_CONTEXT@@PEAU_xDISPATCHER_CONTEXT@@PEAUFuncInfo4@FH4@@H1E@Z@4HA 00000001400603dc f   libvcruntime:frame.obj
 0001:0005f3f8       ?filt$0@?0??CxxCallCatchBlock@__FrameHandler3@@SAPEAXPEAU_EXCEPTION_RECORD@@@Z@4HA 00000001400603f8 f   libvcruntime:frame.obj
 0001:0005f41d       ?fin$1@?0??CxxCallCatchBlock@__FrameHandler3@@SAPEAXPEAU_EXCEPTION_RECORD@@@Z@4HA 000000014006041d f   libvcruntime:frame.obj
 0001:0005f4a3       ?filt$0@?0??CxxCallCatchBlock@__FrameHandler4@@SAPEAXPEAU_EXCEPTION_RECORD@@@Z@4HA 00000001400604a3 f   libvcruntime:frame.obj
 0001:0005f4d2       ?fin$1@?0??CxxCallCatchBlock@__FrameHandler4@@SAPEAXPEAU_EXCEPTION_RECORD@@@Z@4HA 00000001400604d2 f   libvcruntime:frame.obj
 0001:0005f563       ?filt$0@?0??FrameUnwindToState@__FrameHandler3@@SAXPEA_KPEAU_xDISPATCHER_CONTEXT@@PEBU_s_FuncInfo@@H@Z@4HA 0000000140060563 f   libvcruntime:frame.obj
 0001:0005f579       ?fin$1@?0??FrameUnwindToState@__FrameHandler3@@SAXPEA_KPEAU_xDISPATCHER_CONTEXT@@PEBU_s_FuncInfo@@H@Z@4HA 0000000140060579 f   libvcruntime:frame.obj
 0001:0005f59c       ?filt$0@?0??FrameUnwindToState@__FrameHandler4@@SAXPEA_KPEAU_xDISPATCHER_CONTEXT@@PEAUFuncInfo4@FH4@@H@Z@4HA 000000014006059c f   libvcruntime:frame.obj
 0001:0005f5b2       ?fin$1@?0??FrameUnwindToState@__FrameHandler4@@SAXPEA_KPEAU_xDISPATCHER_CONTEXT@@PEAUFuncInfo4@FH4@@H@Z@4HA 00000001400605b2 f   libvcruntime:frame.obj
 0001:0005f5d5       ?fin$0@?0???$?RV<lambda_842d9ff0dc9ef11c61343bbaebe7f885>@@AEAV<lambda_c5860995281e5c4ce005b3de8f5874ee>@@V<lambda_d90129c13df834fdcbf8d2b88dafcf2d>@@@?$__crt_seh_guarded_call@X@@QEAAX$$QEAV<lambda_842d9ff0dc9ef11c61343bbaebe7f885>@@AEAV<lambda_c5860995281e5c4ce005b3de8f5874ee>@@$$QEAV<lambda_d90129c13df834fdcbf8d2b88dafcf2d>@@@Z@4HA 00000001400605d5 f   libucrt:fflush.obj
 0001:0005f5d5       ?fin$0@?0???$?RV<lambda_c376a267cfb53b6959b3b692ec76b120>@@AEAV<lambda_9a32fed5bf61b6b509b2d3f6003082a1>@@V<lambda_572fbb9fa0ab338edf41edfd4b5fcc8d>@@@?$__crt_seh_guarded_call@H@@QEAAH$$QEAV<lambda_c376a267cfb53b6959b3b692ec76b120>@@AEAV<lambda_9a32fed5bf61b6b509b2d3f6003082a1>@@$$QEAV<lambda_572fbb9fa0ab338edf41edfd4b5fcc8d>@@@Z@4HA 00000001400605d5 f   libucrt:fflush.obj
 0001:0005f5d5       ?fin$0@?0???$?RV<lambda_a2589f19c515cac03caf6db9c38355e9>@@AEAV<lambda_26974eb511f701c600fccfa2a97a8e1b>@@V<lambda_ad9ce2f38261e34e8a422b9cc35dfe8d>@@@?$__crt_seh_guarded_call@_K@@QEAA_K$$QEAV<lambda_a2589f19c515cac03caf6db9c38355e9>@@AEAV<lambda_26974eb511f701c600fccfa2a97a8e1b>@@$$QEAV<lambda_ad9ce2f38261e34e8a422b9cc35dfe8d>@@@Z@4HA 00000001400605d5 f   libucrt:fwrite.obj
 0001:0005f5d5       ?fin$0@?0???$?RV<lambda_d854c62834386a3b23916ad6dae2782d>@@AEAV<lambda_303760bc4008a2b3ec4768a30b06a80c>@@V<lambda_4780a7ea4f8cbd2590aec34bd14e2bbf>@@@?$__crt_seh_guarded_call@H@@QEAAH$$QEAV<lambda_d854c62834386a3b23916ad6dae2782d>@@AEAV<lambda_303760bc4008a2b3ec4768a30b06a80c>@@$$QEAV<lambda_4780a7ea4f8cbd2590aec34bd14e2bbf>@@@Z@4HA 00000001400605d5 f   libucrt:output.obj
 0001:0005f5d5       ?fin$0@?0???$?RV<lambda_7ea02354adac61b93e3a5c2c4100d85b>@@AEAV<lambda_8abd18a77b33e1dd4bdebee267cfa707>@@V<lambda_eba452c8b8afd9ffb9102a507ee4e553>@@@?$__crt_seh_guarded_call@H@@QEAAH$$QEAV<lambda_7ea02354adac61b93e3a5c2c4100d85b>@@AEAV<lambda_8abd18a77b33e1dd4bdebee267cfa707>@@$$QEAV<lambda_eba452c8b8afd9ffb9102a507ee4e553>@@@Z@4HA 00000001400605d5 f   libucrt:puts.obj
 0001:0005f5d5       ?fin$0@?0???$?RV<lambda_9291da6fb19fed9e7668d36b7e9903ee>@@AEAV<lambda_e8d85a8178367c0d1135ba66de989cf6>@@V<lambda_2aa1c5fac2b3ecd63b0b04056e47917d>@@@?$__crt_seh_guarded_call@H@@QEAAH$$QEAV<lambda_9291da6fb19fed9e7668d36b7e9903ee>@@AEAV<lambda_e8d85a8178367c0d1135ba66de989cf6>@@$$QEAV<lambda_2aa1c5fac2b3ecd63b0b04056e47917d>@@@Z@4HA 00000001400605d5 f   libucrt:setvbuf.obj
 0001:0005f5f0       ?fin$0@?0??_fclose_internal@@YAHQEAU_iobuf@@AEAV__crt_cached_ptd_host@@@Z@4HA 00000001400605f0 f   libucrt:fclose.obj
 0001:0005f5f0       ?fin$0@?0??common_fseek@@YAHV__crt_stdio_stream@@_JHAEAV__crt_cached_ptd_host@@@Z@4HA 00000001400605f0 f   libucrt:fseek.obj
 0001:0005f5f0       ?fin$0@?0???$common_ftell@_J@@YA_JV__crt_stdio_stream@@AEAV__crt_cached_ptd_host@@@Z@4HA 00000001400605f0 f   libucrt:ftell.obj
 0001:0005f608       ?fin$0@?0??_fputc_internal@@YAHHQEAU_iobuf@@AEAV__crt_cached_ptd_host@@@Z@4HA 0000000140060608 f   libucrt:fputc.obj
 0001:0005f622       ungetc$fin$0               0000000140060622 f   libucrt:ungetc.obj
 0001:0005f63a       fgetc$fin$0                000000014006063a f   libucrt:fgetc.obj
 0001:0005f654       fread_s$fin$0              0000000140060654 f   libucrt:fread.obj
 0001:0005f66c       ?fin$0@?0???$?RV<lambda_886d6c58226a84441f68b9f2b8217b83>@@AEAV<lambda_ab61a845afdef5b7c387490eaf3616ee>@@V<lambda_f7f22ab5edc0698d5f6905b0d3f44752>@@@?$__crt_seh_guarded_call@X@@QEAAX$$QEAV<lambda_886d6c58226a84441f68b9f2b8217b83>@@AEAV<lambda_ab61a845afdef5b7c387490eaf3616ee>@@$$QEAV<lambda_f7f22ab5edc0698d5f6905b0d3f44752>@@@Z@4HA 000000014006066c f   libucrt:fflush.obj
 0001:0005f689       ?fin$0@?0??_fputwc_internal@@YAG_WQEAU_iobuf@@AEAV__crt_cached_ptd_host@@@Z@4HA 0000000140060689 f   libucrt:fputwc.obj
 0001:0005f6a1       ?fin$0@?0???$?RV<lambda_0ae27a3a962d80f24befdcbee591983d>@@AEAV<lambda_8d0ee55de4b1038c4002e0adecdf1839>@@V<lambda_dc504788e8f1664fe9b84e20bfb512f2>@@@?$__crt_seh_guarded_call@X@@QEAAX$$QEAV<lambda_0ae27a3a962d80f24befdcbee591983d>@@AEAV<lambda_8d0ee55de4b1038c4002e0adecdf1839>@@$$QEAV<lambda_dc504788e8f1664fe9b84e20bfb512f2>@@@Z@4HA 00000001400606a1 f   libucrt:per_thread_data.obj
 0001:0005f6a1       ?fin$0@?0???$?RV<lambda_2d41944a1d46af3157314b8a01080d33>@@AEAV<lambda_8f455de75cd7d7f24b4096f044d8b9e6>@@V<lambda_aa500f224e6afead328df44964fe2772>@@@?$__crt_seh_guarded_call@X@@QEAAX$$QEAV<lambda_2d41944a1d46af3157314b8a01080d33>@@AEAV<lambda_8f455de75cd7d7f24b4096f044d8b9e6>@@$$QEAV<lambda_aa500f224e6afead328df44964fe2772>@@@Z@4HA 00000001400606a1 f   libucrt:per_thread_data.obj
 0001:0005f6a1       ?fin$0@?0???$?RV<lambda_aa87e3671a710a21b5dc78c0bdf72e11>@@AEAV<lambda_92619d2358a28f41a33ba319515a20b9>@@V<lambda_6992ecaafeb10aed2b74cb1fae11a551>@@@?$__crt_seh_guarded_call@X@@QEAAX$$QEAV<lambda_aa87e3671a710a21b5dc78c0bdf72e11>@@AEAV<lambda_92619d2358a28f41a33ba319515a20b9>@@$$QEAV<lambda_6992ecaafeb10aed2b74cb1fae11a551>@@@Z@4HA 00000001400606a1 f   libucrt:per_thread_data.obj
 0001:0005f6a1       ?fin$0@?0???$?RV<lambda_f2e299630e499de9f9a165e60fcd3db5>@@AEAV<lambda_2ae9d31cdba2644fcbeaf08da7c24588>@@V<lambda_40d01ff24d0e7b3814fdbdcee8eab3c7>@@@?$__crt_seh_guarded_call@X@@QEAAX$$QEAV<lambda_f2e299630e499de9f9a165e60fcd3db5>@@AEAV<lambda_2ae9d31cdba2644fcbeaf08da7c24588>@@$$QEAV<lambda_40d01ff24d0e7b3814fdbdcee8eab3c7>@@@Z@4HA 00000001400606a1 f   libucrt:per_thread_data.obj
 0001:0005f6a1       ?fin$0@?0???$?RV<lambda_48fc4a32460bb0512d3b13f8499328be>@@AEAV<lambda_6c3dac0a4f3f9cefca9bb494422f9b77>@@V<lambda_0a2f2c9f9a56eb2b08bfa6ff61d331c5>@@@?$__crt_seh_guarded_call@H@@QEAAH$$QEAV<lambda_48fc4a32460bb0512d3b13f8499328be>@@AEAV<lambda_6c3dac0a4f3f9cefca9bb494422f9b77>@@$$QEAV<lambda_0a2f2c9f9a56eb2b08bfa6ff61d331c5>@@@Z@4HA 00000001400606a1 f   libucrt:winapi_thunks.obj
 0001:0005f6a1       ?fin$0@?0???$?RV<lambda_e9ce07acdb0b138e546925ae9f1a2c9c>@@AEAV<lambda_2116bde18c9e5f34230805ea4a4660ed>@@V<lambda_5d037afbfc54bf1ca80d3d1ee4062886>@@@?$__crt_seh_guarded_call@PEAD@@QEAAPEAD$$QEAV<lambda_e9ce07acdb0b138e546925ae9f1a2c9c>@@AEAV<lambda_2116bde18c9e5f34230805ea4a4660ed>@@$$QEAV<lambda_5d037afbfc54bf1ca80d3d1ee4062886>@@@Z@4HA 00000001400606a1 f   libucrt:setlocale.obj
 0001:0005f6a1       ?fin$0@?0???$?RV<lambda_1d892b297fdedeee07ed8124eeb2f2fa>@@AEAV<lambda_ffc046909424fd52df0ac47e64813305>@@V<lambda_01a7098693036236037e7cdb9bca3d73>@@@?$__crt_seh_guarded_call@X@@QEAAX$$QEAV<lambda_1d892b297fdedeee07ed8124eeb2f2fa>@@AEAV<lambda_ffc046909424fd52df0ac47e64813305>@@$$QEAV<lambda_01a7098693036236037e7cdb9bca3d73>@@@Z@4HA 00000001400606a1 f   libucrt:wsetlocale.obj
 0001:0005f6a1       ?fin$0@?0???$?RV<lambda_450d765d439847d4c735a33c368b5fc0>@@AEAV<lambda_44731a7d0e6d81c3e6aa82d741081786>@@V<lambda_601a2a7da3b7a96e9554ac7215c4b07c>@@@?$__crt_seh_guarded_call@P6AXH@Z@@QEAAP6AXH@Z$$QEAV<lambda_450d765d439847d4c735a33c368b5fc0>@@AEAV<lambda_44731a7d0e6d81c3e6aa82d741081786>@@$$QEAV<lambda_601a2a7da3b7a96e9554ac7215c4b07c>@@@Z@4HA 00000001400606a1 f   libucrt:signal.obj
 0001:0005f6a1       ?fin$0@?0???$?RV<lambda_d80eeec6fff315bfe5c115232f3240e3>@@AEAV<lambda_6e4b09c48022b2350581041d5f6b0c4c>@@V<lambda_2358e3775559c9db80273638284d5e45>@@@?$__crt_seh_guarded_call@X@@QEAAX$$QEAV<lambda_d80eeec6fff315bfe5c115232f3240e3>@@AEAV<lambda_6e4b09c48022b2350581041d5f6b0c4c>@@$$QEAV<lambda_2358e3775559c9db80273638284d5e45>@@@Z@4HA 00000001400606a1 f   libucrt:exit.obj
 0001:0005f6a1       ?fin$0@?0???$?RV<lambda_638799b9deba96c50f710eeac98168cd>@@AEAV<lambda_22ebabd17bc4fa466a2aca6d8deb888d>@@V<lambda_a6f7d7db0129f75315ebf26d50c089f1>@@@?$__crt_seh_guarded_call@H@@QEAAH$$QEAV<lambda_638799b9deba96c50f710eeac98168cd>@@AEAV<lambda_22ebabd17bc4fa466a2aca6d8deb888d>@@$$QEAV<lambda_a6f7d7db0129f75315ebf26d50c089f1>@@@Z@4HA 00000001400606a1 f   libucrt:onexit.obj
 0001:0005f6a1       ?fin$0@?0???$?RV<lambda_7777bce6b2f8c936911f934f8298dc43>@@AEAV<lambda_f03950bc5685219e0bcd2087efbe011e>@@V<lambda_3883c3dff614d5e0c5f61bb1ac94921c>@@@?$__crt_seh_guarded_call@H@@QEAAH$$QEAV<lambda_7777bce6b2f8c936911f934f8298dc43>@@AEAV<lambda_f03950bc5685219e0bcd2087efbe011e>@@$$QEAV<lambda_3883c3dff614d5e0c5f61bb1ac94921c>@@@Z@4HA 00000001400606a1 f   libucrt:onexit.obj
 0001:0005f6bb       ?fin$0@?0??ctrlevent_capture@@YAHK@Z@4HA 00000001400606bb f   libucrt:signal.obj
 0001:0005f6bb       signal$fin$0               00000001400606bb f   libucrt:signal.obj
 0001:0005f6d4       raise$fin$0                00000001400606d4 f   libucrt:signal.obj
 0001:0005f6f5       _query_new_handler$fin$0   00000001400606f5 f   libucrt:new_handler.obj
 0001:0005f70b       ?filt$0@?0???R<lambda_6e4b09c48022b2350581041d5f6b0c4c>@@QEBA@XZ@4HA 000000014006070b f   libucrt:exit.obj
 0001:0005f738       ?fin$0@?0???$?RV<lambda_410d79af7f07d98d83a3f525b3859a53>@@AEAV<lambda_3e16ef9562a7dcce91392c22ab16ea36>@@V<lambda_38119f0e861e05405d8a144b9b982f0a>@@@?$__crt_seh_guarded_call@X@@QEAAX$$QEAV<lambda_410d79af7f07d98d83a3f525b3859a53>@@AEAV<lambda_3e16ef9562a7dcce91392c22ab16ea36>@@$$QEAV<lambda_38119f0e861e05405d8a144b9b982f0a>@@@Z@4HA 0000000140060738 f   libucrt:wsetlocale.obj
 0001:0005f752       ?fin$0@?0???$?RV<lambda_e9338f07fe435327d97d4ef86149e64d>@@AEAV<lambda_2a444430fde8c29194d880d93eed5e8f>@@AEAV<lambda_02db5278e8aef8b5e4976579d73f5304>@@@?$__crt_seh_guarded_call@X@@QEAAX$$QEAV<lambda_e9338f07fe435327d97d4ef86149e64d>@@AEAV<lambda_2a444430fde8c29194d880d93eed5e8f>@@AEAV<lambda_02db5278e8aef8b5e4976579d73f5304>@@@Z@4HA 0000000140060752 f   libucrt:wsetlocale.obj
 0001:0005f773       ?fin$0@?0???$common_fsopen@D@@YAPEAU_iobuf@@QEBD0H@Z@4HA 0000000140060773 f   libucrt:fopen.obj
 0001:0005f79e       ?fin$0@?0???$common_lseek@_J@@YA_JH_JHAEAV__crt_cached_ptd_host@@@Z@4HA 000000014006079e f   libucrt:lseek.obj
 0001:0005f79e       _write_internal$fin$0      000000014006079e f   libucrt:write.obj
 0001:0005f7b5       ?fin$0@?0???$?RV<lambda_ad8af0d99a0adf03d037d7dffe354bb5>@@AEAV<lambda_c9ba49e555ba839a7b07aa3fbecb7617>@@V<lambda_2f1ebd5d68526518146ae959c9e734c8>@@@?$__crt_seh_guarded_call@H@@QEAAH$$QEAV<lambda_ad8af0d99a0adf03d037d7dffe354bb5>@@AEAV<lambda_c9ba49e555ba839a7b07aa3fbecb7617>@@$$QEAV<lambda_2f1ebd5d68526518146ae959c9e734c8>@@@Z@4HA 00000001400607b5 f   libucrt:close.obj
 0001:0005f7b5       ?fin$0@?0???$?RV<lambda_a37b2b86f63e897a80ea819b0eb08c01>@@AEAV<lambda_38ce7e780aa69e748d6df282ebc68efe>@@V<lambda_99fb1378e971ab6e7edea83e3a7a83a2>@@@?$__crt_seh_guarded_call@H@@QEAAH$$QEAV<lambda_a37b2b86f63e897a80ea819b0eb08c01>@@AEAV<lambda_38ce7e780aa69e748d6df282ebc68efe>@@$$QEAV<lambda_99fb1378e971ab6e7edea83e3a7a83a2>@@@Z@4HA 00000001400607b5 f   libucrt:commit.obj
 0001:0005f7cf       _fcloseall$fin$0           00000001400607cf f   libucrt:closeall.obj
 0001:0005f7cf       ?fin$0@?0??__acrt_stdio_allocate_stream@@YA?AV__crt_stdio_stream@@XZ@4HA 00000001400607cf f   libucrt:stream.obj
 0001:0005f7e8       __acrt_initialize_lowio$fin$0 00000001400607e8 f   libucrt:ioinit.obj
 0001:0005f7e8       __acrt_lowio_ensure_fh_exists$fin$0 00000001400607e8 f   libucrt:osfinfo.obj
 0001:0005f7e8       _alloc_osfhnd$fin$0        00000001400607e8 f   libucrt:osfinfo.obj
 0001:0005f801       _read$fin$0                0000000140060801 f   libucrt:read.obj
 0001:0005f818       __tzset$fin$0              0000000140060818 f   libucrt:tzset.obj
 0001:0005f818       _isindst$fin$0             0000000140060818 f   libucrt:tzset.obj
 0001:0005f831       ?fin$0@?0???$?RV<lambda_efdfa57d1f175319df784efa44bb7b81>@@AEAV<lambda_5f0a4c1567f8adc6734073e5d1e1b35c>@@V<lambda_2e8a7d3640ea6ccb4c2413664c2db6fd>@@@?$__crt_seh_guarded_call@X@@QEAAX$$QEAV<lambda_efdfa57d1f175319df784efa44bb7b81>@@AEAV<lambda_5f0a4c1567f8adc6734073e5d1e1b35c>@@$$QEAV<lambda_2e8a7d3640ea6ccb4c2413664c2db6fd>@@@Z@4HA 0000000140060831 f   libucrt:mbctype.obj
 0001:0005f84b       ?fin$0@?0??update_thread_multibyte_data_internal@@YAPEAU__crt_multibyte_data@@QEAU__acrt_ptd@@QEAPEAU1@@Z@4HA 000000014006084b f   libucrt:mbctype.obj
 0001:0005f864       __acrt_update_thread_locale_data$fin$0 0000000140060864 f   libucrt:locale_refcounting.obj
 0001:0005f87d       _ctrlfp$filt$0             000000014006087d f   libucrt:fpctrl.obj
 0001:0005f87d       common_control87$filt$0    000000014006087d f   libucrt:ieee.obj
 0001:0005f8a9       ?fin$0@?0???$common_getenv_s@_W@@YAHQEA_KQEA_W_KQEB_W@Z@4HA 00000001400608a9 f   libucrt:getenv.obj
 0001:0005f8c2       ?fin$0@?0???$common_sopen_dispatch@D@@YAHQEBDHHHQEAHH@Z@4HA 00000001400608c2 f   libucrt:open.obj
 0001:0005f940       _IsNonwritableInCurrentImage$filt$0 0000000140060940 f   libcmt:pesect.obj
 0001:0005f960       ??__F_Fac_tidy_reg@std@@YAXXZ 0000000140060960 f   libcpmt:locale0.obj
 0001:0005f9bc       ??__Fclassic_locale@std@@YAXXZ 00000001400609bc f   libcpmt:locale0.obj
 0001:0005f9fc       ??__Finitlocks@std@@YAXXZ  00000001400609fc f   libcpmt:xlock.obj
 0001:0005fa08       ??__Finit_atexit@@YAXXZ    0000000140060a08 f   libcpmt:iosptrs.obj
 0001:0005fa48       ??__Finitlocks@std@@YAXXZ  0000000140060a48 f   libcpmt:iosptrs.obj
 0002:000003b8       ?pre_cpp_initializer@@3P6AXXZEA 00000001400613b8     libcmt:exe_main.obj
 0002:000003c0       ?initlocks$initializer$@std@@3P6AXXZEA 00000001400613c0     libcpmt:xlock.obj
 0002:000003c8       ?initlocks$initializer$@std@@3P6AXXZEA 00000001400613c8     libcpmt:iosptrs.obj
 0002:000003d0       ?init_atexit$initializer$@@3P6AXXZEA 00000001400613d0     libcpmt:iosptrs.obj
 0002:000003d8       ?_Fac_tidy_reg$initializer$@std@@3P6AXXZEA 00000001400613d8     libcpmt:locale0.obj
 0002:000003e0       ?classic_locale$initializer$@std@@3P6AXXZEA 00000001400613e0     libcpmt:locale0.obj
 0002:00000400       ?pre_c_initializer@@3P6AHXZEA 0000000140061400     libcmt:exe_main.obj
 0002:00000408       ?post_pgo_initializer@@3P6AHXZEA 0000000140061408     libcmt:exe_main.obj
 0002:00000410       ?pinit@@3P6AHXZEA          0000000140061410     libcpmt:winapisupp.obj
 0002:00029350       ?mods@?1??_Xfsopen@?A0x6dc13635@@YAPEAU_iobuf@@PEBDHH@Z@4QBQEBDB 000000014008a350     libcpmt:fiopen.obj
 0002:00029440       ?_Win_errtab@?A0xdad2e229@@3QBU_Win_errtab_t@1@B 000000014008a440     libcpmt:syserror.obj
 0002:000296e0       ?_Sys_errtab@?A0xdad2e229@@3QBU_Sys_errtab_t@1@B 000000014008a6e0     libcpmt:syserror.obj
 0002:0002a2c0       ?_Whitespace_bitmap@?A0xfa98056f@@3U_Whitespace_bitmap_t@1@B 000000014008b2c0     libcpmt:syserror_import_lib.obj
 0002:0002a438       digits                     000000014008b438     libcpmt:xstoul.obj
 0002:0002a460       ndigs                      000000014008b460     libcpmt:xstoul.obj
 0002:0002a488       digits                     000000014008b488     libcpmt:xstoull.obj
 0002:0002a4b0       ndigs                      000000014008b4b0     libcpmt:xstoull.obj
 0002:0002a500       ?ExceptionTemplate@?1??UnwindNestedFrames@__FrameHandler4@@SAXPEA_KPEAUEHExceptionRecord@@PEAU_CONTEXT@@0PEAXPEAUFuncInfo4@FH4@@HHPEAUHandlerType4@6@PEAU_xDISPATCHER_CONTEXT@@E@Z@4U_EXCEPTION_RECORD@@B 000000014008b500     libvcruntime:risctrnsctrl.obj
 0002:0002a5a0       ?ExceptionTemplate@?1??UnwindNestedFrames@__FrameHandler3@@SAXPEA_KPEAUEHExceptionRecord@@PEAU_CONTEXT@@0PEAXPEBU_s_FuncInfo@@HHPEBU_s_HandlerType@@PEAU_xDISPATCHER_CONTEXT@@E@Z@4U_EXCEPTION_RECORD@@B 000000014008b5a0     libvcruntime:risctrnsctrl.obj
 0002:0002a670       ?tokenTable@@3QBUStringLiteral@@B 000000014008b670     libvcruntime:undname.obj
 0002:0002a780       ?nameTable@@3QBUStringLiteral@@B 000000014008b780     libvcruntime:undname.obj
 0002:0002acb0       ?rttiTable@@3QBUStringLiteral@@B 000000014008bcb0     libvcruntime:undname.obj
 0002:0002ad00       ?IndirectionName@@3QBUStringLiteral@@B 000000014008bd00     libvcruntime:undname.obj
 0002:0002ad60       ?PrefixName@@3QBUStringLiteral@@B 000000014008bd60     libvcruntime:undname.obj
 0002:0002b440       ?module_names@?A0x14174aea@@3QBQEB_WB 000000014008c440     libvcruntime:winapi_downlevel.obj
 0002:0002b500       ?candidate_modules@?1??try_get_FlsAlloc@@YAP6AKP6AXPEAX@Z@ZXZ@4QBW4module_id@?A0x14174aea@@B 000000014008c500     libvcruntime:winapi_downlevel.obj
 0002:0002b518       ?candidate_modules@?1??try_get_FlsFree@@YAP6AHK@ZXZ@4QBW4module_id@?A0x14174aea@@B 000000014008c518     libvcruntime:winapi_downlevel.obj
 0002:0002b528       ?candidate_modules@?1??try_get_FlsGetValue@@YAP6APEAXK@ZXZ@4QBW4module_id@?A0x14174aea@@B 000000014008c528     libvcruntime:winapi_downlevel.obj
 0002:0002b540       ?candidate_modules@?1??try_get_FlsSetValue@@YAP6AHKPEAX@ZXZ@4QBW4module_id@?A0x14174aea@@B 000000014008c540     libvcruntime:winapi_downlevel.obj
 0002:0002b558       ?candidate_modules@?1??try_get_InitializeCriticalSectionEx@@YAP6AHPEAU_RTL_CRITICAL_SECTION@@KK@ZXZ@4QBW4module_id@?A0x14174aea@@B 000000014008c558     libvcruntime:winapi_downlevel.obj
 0002:0002b7a0       $cppxdata$?try_cor_exit_process@@YAXI@Z 000000014008c7a0     libucrt:exit.obj
 0002:0002b7c8       $cppxdata$?common_exit@@YAXHW4_crt_exit_cleanup_mode@@W4_crt_exit_return_mode@@@Z 000000014008c7c8     libucrt:exit.obj
 0002:0002b818       $cppxdata$__dcrt_uninitialize_environments_nolock 000000014008c818     libucrt:environment_initialization.obj
 0002:0002b840       $cppxdata$_execute_onexit_table 000000014008c840     libucrt:onexit.obj
 0002:0002b870       __acrt_initializers        000000014008c870     libucrt:initialization.obj
 0002:0002b970       _first_127char             000000014008c970     libucrt:wsetlocale.obj
 0002:0002c340       ?errtable@@3QBUerrentry@?A0x31fdb9ec@@B 000000014008d340     libucrt:errno.obj
 0002:0002ce80       $cppxdata$?write_double_translated_ansi_nolock@@YA?AUwrite_result@?A0x17268360@@HQEBDIAEAV__crt_cached_ptd_host@@@Z 000000014008de80     libucrt:write.obj
 0002:0002d530       ?module_names@?A0x391cf84c@@3QBQEB_WB 000000014008e530     libucrt:winapi_thunks.obj
 0002:0002da88       ?candidate_modules@?1??try_get_AreFileApisANSI@@YAP6AHXZXZ@4QBW4module_id@?A0x391cf84c@@B 000000014008ea88     libucrt:winapi_thunks.obj
 0002:0002daa0       ?candidate_modules@?1??try_get_CompareStringEx@@YAP6AHPEB_WK0H0HPEAU_nlsversioninfo@@PEAX_J@ZXZ@4QBW4module_id@?A0x391cf84c@@B 000000014008eaa0     libucrt:winapi_thunks.obj
 0002:0002dab8       ?candidate_modules@?1??try_get_EnumSystemLocalesEx@@YAP6AHP6AHPEA_WK_J@ZK1PEAX@ZXZ@4QBW4module_id@?A0x391cf84c@@B 000000014008eab8     libucrt:winapi_thunks.obj
 0002:0002dad8       ?candidate_modules@?1??try_get_GetDateFormatEx@@YAP6AHPEB_WKPEBU_SYSTEMTIME@@0PEA_WH0@ZXZ@4QBW4module_id@?A0x391cf84c@@B 000000014008ead8     libucrt:winapi_thunks.obj
 0002:0002daf0       ?candidate_modules@?1??try_get_GetLocaleInfoEx@@YAP6AHPEB_WKPEA_WH@ZXZ@4QBW4module_id@?A0x391cf84c@@B 000000014008eaf0     libucrt:winapi_thunks.obj
 0002:0002db08       ?candidate_modules@?1??try_get_GetTimeFormatEx@@YAP6AHPEB_WKPEBU_SYSTEMTIME@@0PEA_WH@ZXZ@4QBW4module_id@?A0x391cf84c@@B 000000014008eb08     libucrt:winapi_thunks.obj
 0002:0002db20       ?candidate_modules@?1??try_get_GetUserDefaultLocaleName@@YAP6AHPEA_WH@ZXZ@4QBW4module_id@?A0x391cf84c@@B 000000014008eb20     libucrt:winapi_thunks.obj
 0002:0002db48       ?candidate_modules@?1??try_get_InitializeCriticalSectionEx@@YAP6AHPEAU_RTL_CRITICAL_SECTION@@KK@ZXZ@4QBW4module_id@?A0x391cf84c@@B 000000014008eb48     libucrt:winapi_thunks.obj
 0002:0002db50       ?candidate_modules@?1??try_get_IsValidLocaleName@@YAP6AHPEB_W@ZXZ@4QBW4module_id@?A0x391cf84c@@B 000000014008eb50     libucrt:winapi_thunks.obj
 0002:0002db70       ?candidate_modules@?1??try_get_LCMapStringEx@@YAP6AHPEB_WK0HPEA_WHPEAU_nlsversioninfo@@PEAX_J@ZXZ@4QBW4module_id@?A0x391cf84c@@B 000000014008eb70     libucrt:winapi_thunks.obj
 0002:0002db88       ?candidate_modules@?1??try_get_LCIDToLocaleName@@YAP6AHKPEA_WHK@ZXZ@4QBW4module_id@?A0x391cf84c@@B 000000014008eb88     libucrt:winapi_thunks.obj
 0002:0002dba8       ?candidate_modules@?1??try_get_LocaleNameToLCID@@YAP6AKPEB_WK@ZXZ@4QBW4module_id@?A0x391cf84c@@B 000000014008eba8     libucrt:winapi_thunks.obj
 0002:0002dbc4       ?candidate_modules@?1??try_get_AppPolicyGetProcessTerminationMethod@@YAP6AJPEAXPEAW4AppPolicyProcessTerminationMethod@@@ZXZ@4QBW4module_id@?A0x391cf84c@@B 000000014008ebc4     libucrt:winapi_thunks.obj
 0002:0002dbf0       ?candidate_modules@?1??try_get_SystemFunction036@@YAP6AEPEAXK@ZXZ@4QBW4module_id@?A0x391cf84c@@B 000000014008ebf0     libucrt:winapi_thunks.obj
 0002:0002dc10       ?strings@?1??fp_format_nan_or_infinity@@YAHW4__acrt_fp_class@@_NPEAD_K1@Z@4QAY03QEBDA 000000014008ec10     libucrt:cvt.obj
 0002:0002dce8       ?mask@?P@??_d_int@@9@4QBGB 000000014008ece8     libucrt:_test.obj
 0002:0002dd08       ?sub@?P@??_d_int@@9@4QB_KB 000000014008ed08     libucrt:_test.obj
 0002:0002dd30       ?_mb_locale_names@@3QBQEB_WB 000000014008ed30     libucrt:mbctype.obj
 0002:0002ed80       $cppxdata$?_mbstowcs_l_helper@@YA_KPEA_WPEBD_KAEAV__crt_cached_ptd_host@@@Z 000000014008fd80     libucrt:mbstowcs.obj
 0002:0002edd0       ?LcidToLocaleNameTable@?A0x881e4c05@@3QBULcidToLocaleName@1@B 000000014008fdd0     libucrt:lcidtoname_downlevel.obj
 0002:00030820       ?LocaleNameToIndexTable@?A0x881e4c05@@3QBULocaleNameIndex@1@B 0000000140091820     libucrt:lcidtoname_downlevel.obj
 0002:00032150       __real@433fffffffffffff    0000000140093150     libucrt:fpsr.obj
 0002:00032158       __real@c33fffffffffffff    0000000140093158     libucrt:fpsr.obj
 0002:00032170       __real_ninf                0000000140093170     libucrt:log10.obj
 0002:00032180       __real_inf                 0000000140093180     libucrt:log10.obj
 0002:00032190       __real_neg_qnan            0000000140093190     libucrt:log10.obj
 0002:000321a0       __real_qnanbit             00000001400931a0     libucrt:log10.obj
 0002:000321b0       __int_1023                 00000001400931b0     libucrt:log10.obj
 0002:000321c0       __mask_001                 00000001400931c0     libucrt:log10.obj
 0002:000321d0       __mask_mant                00000001400931d0     libucrt:log10.obj
 0002:000321e0       __mask_mant_top8           00000001400931e0     libucrt:log10.obj
 0002:000321f0       __mask_mant9               00000001400931f0     libucrt:log10.obj
 0002:00032200       __real_log10_e             0000000140093200     libucrt:log10.obj
 0002:00032210       __real_log10_e_lead        0000000140093210     libucrt:log10.obj
 0002:00032220       __real_log10_e_tail        0000000140093220     libucrt:log10.obj
 0002:00032230       __real_log10_2_lead        0000000140093230     libucrt:log10.obj
 0002:00032240       __real_log10_2_tail        0000000140093240     libucrt:log10.obj
 0002:00032250       __real_two                 0000000140093250     libucrt:log10.obj
 0002:00032260       __real_one                 0000000140093260     libucrt:log10.obj
 0002:00032270       __real_half                0000000140093270     libucrt:log10.obj
 0002:00032280       __mask_100                 0000000140093280     libucrt:log10.obj
 0002:00032290       __real_1_over_512          0000000140093290     libucrt:log10.obj
 0002:000322a0       __real_1_over_2            00000001400932a0     libucrt:log10.obj
 0002:000322b0       __real_1_over_3            00000001400932b0     libucrt:log10.obj
 0002:000322c0       __real_1_over_4            00000001400932c0     libucrt:log10.obj
 0002:000322d0       __real_1_over_5            00000001400932d0     libucrt:log10.obj
 0002:000322e0       __real_1_over_6            00000001400932e0     libucrt:log10.obj
 0002:000322f0       __real_neg_1023            00000001400932f0     libucrt:log10.obj
 0002:00032300       __mask_2045                0000000140093300     libucrt:log10.obj
 0002:00032310       __real_threshold           0000000140093310     libucrt:log10.obj
 0002:00032320       __real_near_one_lt         0000000140093320     libucrt:log10.obj
 0002:00032330       __real_near_one_gt         0000000140093330     libucrt:log10.obj
 0002:00032340       __real_min_norm            0000000140093340     libucrt:log10.obj
 0002:00032350       __real_notsign             0000000140093350     libucrt:log10.obj
 0002:00032360       __real_ca1                 0000000140093360     libucrt:log10.obj
 0002:00032370       __real_ca2                 0000000140093370     libucrt:log10.obj
 0002:00032380       __real_ca3                 0000000140093380     libucrt:log10.obj
 0002:00032390       __real_ca4                 0000000140093390     libucrt:log10.obj
 0002:000323a0       __mask_lower               00000001400933a0     libucrt:log10.obj
 0002:000323b0       __flag_x_zero              00000001400933b0     libucrt:log10.obj
 0002:000323b4       __flag_x_neg               00000001400933b4     libucrt:log10.obj
 0002:000323b8       __flag_x_nan               00000001400933b8     libucrt:log10.obj
 0002:00033bf0       GS_ExceptionPointers       0000000140094bf0     libcmt:gs_report.obj
 0002:00033d70       MoveSmall                  0000000140094d70     libvcruntime:memcpy.obj
 0002:00033db0       MoveSmallYmm               0000000140094db0     libvcruntime:memcpy.obj
 0002:00033dd4       MoveSmallYmmNT             0000000140094dd4     libvcruntime:memcpy.obj
 0002:00033df8       MoveSmallXmm               0000000140094df8     libvcruntime:memcpy.obj
 0002:00033e20       SetSmall                   0000000140094e20     libvcruntime:memset.obj
 0002:00033e60       SetSmallYmm                0000000140094e60     libvcruntime:memset.obj
 0002:00033e84       SetSmallYmmNT              0000000140094e84     libvcruntime:memset.obj
 0002:00033ea8       SetSmallXmm                0000000140094ea8     libvcruntime:memset.obj
 0002:00034ae4       $cppxdata$main             0000000140095ae4     main-205501.o
 0002:00034b0c       $stateUnwindMap$main       0000000140095b0c     main-205501.o
 0002:00034b14       $ip2state$main             0000000140095b14     main-205501.o
 0002:00034b70       $cppxdata$??0MainApp@@QEAA@XZ 0000000140095b70     main-205501.o
 0002:00034b98       $stateUnwindMap$??0MainApp@@QEAA@XZ 0000000140095b98     main-205501.o
 0002:00034bb8       $ip2state$??0MainApp@@QEAA@XZ 0000000140095bb8     main-205501.o
 0002:00034c2c       $cppxdata$?mainLoop@MainApp@@QEAAHXZ 0000000140095c2c     MainApp-c3b5ae.o
 0002:00034c54       $stateUnwindMap$?mainLoop@MainApp@@QEAAHXZ 0000000140095c54     MainApp-c3b5ae.o
 0002:00034c64       $tryMap$?mainLoop@MainApp@@QEAAHXZ 0000000140095c64     MainApp-c3b5ae.o
 0002:00034c78       $handlerMap$0$?mainLoop@MainApp@@QEAAHXZ 0000000140095c78     MainApp-c3b5ae.o
 0002:00034ca0       $ip2state$?mainLoop@MainApp@@QEAAHXZ 0000000140095ca0     MainApp-c3b5ae.o
 0002:00034cf4       $cppxdata$??0CharBuf@@QEAA@PEBD@Z 0000000140095cf4     CharBuf-9d1648.o
 0002:00034d1c       $stateUnwindMap$??0CharBuf@@QEAA@PEBD@Z 0000000140095d1c     CharBuf-9d1648.o
 0002:00034d24       $ip2state$??0CharBuf@@QEAA@PEBD@Z 0000000140095d24     CharBuf-9d1648.o
 0002:00034d80       $cppxdata$?setFromInt64@CharBuf@@QEAAX_J@Z 0000000140095d80     CharBuf-9d1648.o
 0002:00034da8       $stateUnwindMap$?setFromInt64@CharBuf@@QEAAX_J@Z 0000000140095da8     CharBuf-9d1648.o
 0002:00034db0       $ip2state$?setFromInt64@CharBuf@@QEAAX_J@Z 0000000140095db0     CharBuf-9d1648.o
 0002:00034e24       $cppxdata$?setFromUint64@CharBuf@@QEAAX_K@Z 0000000140095e24     CharBuf-9d1648.o
 0002:00034e4c       $stateUnwindMap$?setFromUint64@CharBuf@@QEAAX_K@Z 0000000140095e4c     CharBuf-9d1648.o
 0002:00034e54       $ip2state$?setFromUint64@CharBuf@@QEAAX_K@Z 0000000140095e54     CharBuf-9d1648.o
 0002:00034eb0       $cppxdata$??0CharBuf@@QEAA@AEBV0@@Z 0000000140095eb0     CharBuf-9d1648.o
 0002:00034ed8       $stateUnwindMap$??0CharBuf@@QEAA@AEBV0@@Z 0000000140095ed8     CharBuf-9d1648.o
 0002:00034ee0       $ip2state$??0CharBuf@@QEAA@AEBV0@@Z 0000000140095ee0     CharBuf-9d1648.o
 0002:00035020       $cppxdata$?reverse@CharBuf@@QEAAXXZ 0000000140096020     CharBuf-9d1648.o
 0002:00035048       $stateUnwindMap$?reverse@CharBuf@@QEAAXXZ 0000000140096048     CharBuf-9d1648.o
 0002:00035050       $ip2state$?reverse@CharBuf@@QEAAXXZ 0000000140096050     CharBuf-9d1648.o
 0002:000350c8       $cppxdata$?setFromHexTo256@CharBuf@@QEAAXAEBV1@@Z 00000001400960c8     CharBuf-9d1648.o
 0002:000350f0       $stateUnwindMap$?setFromHexTo256@CharBuf@@QEAAXAEBV1@@Z 00000001400960f0     CharBuf-9d1648.o
 0002:00035100       $ip2state$?setFromHexTo256@CharBuf@@QEAAXAEBV1@@Z 0000000140096100     CharBuf-9d1648.o
 0002:000351f0       $cppxdata$?writeAll@FileIO@@SA_NPEBDAEBVCharBuf@@@Z 00000001400961f0     FileIO-72ff47.o
 0002:00035218       $stateUnwindMap$?writeAll@FileIO@@SA_NPEBDAEBVCharBuf@@@Z 0000000140096218     FileIO-72ff47.o
 0002:00035240       $tryMap$?writeAll@FileIO@@SA_NPEBDAEBVCharBuf@@@Z 0000000140096240     FileIO-72ff47.o
 0002:00035254       $handlerMap$0$?writeAll@FileIO@@SA_NPEBDAEBVCharBuf@@@Z 0000000140096254     FileIO-72ff47.o
 0002:00035268       $ip2state$?writeAll@FileIO@@SA_NPEBDAEBVCharBuf@@@Z 0000000140096268     FileIO-72ff47.o
 0002:0003530c       $cppxdata$?readAll@FileIO@@SA_NPEBDAEAVCharBuf@@@Z 000000014009630c     FileIO-72ff47.o
 0002:00035334       $stateUnwindMap$?readAll@FileIO@@SA_NPEBDAEAVCharBuf@@@Z 0000000140096334     FileIO-72ff47.o
 0002:0003535c       $tryMap$?readAll@FileIO@@SA_NPEBDAEAVCharBuf@@@Z 000000014009635c     FileIO-72ff47.o
 0002:00035370       $handlerMap$0$?readAll@FileIO@@SA_NPEBDAEAVCharBuf@@@Z 0000000140096370     FileIO-72ff47.o
 0002:00035384       $ip2state$?readAll@FileIO@@SA_NPEBDAEAVCharBuf@@@Z 0000000140096384     FileIO-72ff47.o
 0002:000353fc       $cppxdata$?exists@FileIO@@SA_NPEBD@Z 00000001400963fc     FileIO-72ff47.o
 0002:00035424       $stateUnwindMap$?exists@FileIO@@SA_NPEBD@Z 0000000140096424     FileIO-72ff47.o
 0002:0003543c       $tryMap$?exists@FileIO@@SA_NPEBD@Z 000000014009643c     FileIO-72ff47.o
 0002:00035450       $handlerMap$0$?exists@FileIO@@SA_NPEBD@Z 0000000140096450     FileIO-72ff47.o
 0002:00035464       $ip2state$?exists@FileIO@@SA_NPEBD@Z 0000000140096464     FileIO-72ff47.o
 0002:000354bc       $cppxdata$?copy@FileIO@@SA_NPEBD0@Z 00000001400964bc     FileIO-72ff47.o
 0002:000354e4       $stateUnwindMap$?copy@FileIO@@SA_NPEBD0@Z 00000001400964e4     FileIO-72ff47.o
 0002:000354f4       $ip2state$?copy@FileIO@@SA_NPEBD0@Z 00000001400964f4     FileIO-72ff47.o
 0002:000356a4       $cppxdata$??0?$basic_ofstream@DU?$char_traits@D@std@@@std@@QEAA@PEBDHH@Z 00000001400966a4     FileIO-72ff47.o
 0002:000356cc       $stateUnwindMap$??0?$basic_ofstream@DU?$char_traits@D@std@@@std@@QEAA@PEBDHH@Z 00000001400966cc     FileIO-72ff47.o
 0002:000356e4       $ip2state$??0?$basic_ofstream@DU?$char_traits@D@std@@@std@@QEAA@PEBDHH@Z 00000001400966e4     FileIO-72ff47.o
 0002:00035770       $cppxdata$?write@?$basic_ostream@DU?$char_traits@D@std@@@std@@QEAAAEAV12@PEBD_J@Z 0000000140096770     FileIO-72ff47.o
 0002:00035798       $stateUnwindMap$?write@?$basic_ostream@DU?$char_traits@D@std@@@std@@QEAAAEAV12@PEBD_J@Z 0000000140096798     FileIO-72ff47.o
 0002:000357c0       $tryMap$?write@?$basic_ostream@DU?$char_traits@D@std@@@std@@QEAAAEAV12@PEBD_J@Z 00000001400967c0     FileIO-72ff47.o
 0002:000357d4       $handlerMap$0$?write@?$basic_ostream@DU?$char_traits@D@std@@@std@@QEAAAEAV12@PEBD_J@Z 00000001400967d4     FileIO-72ff47.o
 0002:000357e8       $ip2state$?write@?$basic_ostream@DU?$char_traits@D@std@@@std@@QEAAAEAV12@PEBD_J@Z 00000001400967e8     FileIO-72ff47.o
 0002:00035844       $cppxdata$??_D?$basic_ofstream@DU?$char_traits@D@std@@@std@@QEAAXXZ 0000000140096844     FileIO-72ff47.o
 0002:0003586c       $stateUnwindMap$??_D?$basic_ofstream@DU?$char_traits@D@std@@@std@@QEAAXXZ 000000014009686c     FileIO-72ff47.o
 0002:00035874       $ip2state$??_D?$basic_ofstream@DU?$char_traits@D@std@@@std@@QEAAXXZ 0000000140096874     FileIO-72ff47.o
 0002:000358e8       $cppxdata$??0?$basic_ifstream@DU?$char_traits@D@std@@@std@@QEAA@PEBDHH@Z 00000001400968e8     FileIO-72ff47.o
 0002:00035910       $stateUnwindMap$??0?$basic_ifstream@DU?$char_traits@D@std@@@std@@QEAA@PEBDHH@Z 0000000140096910     FileIO-72ff47.o
 0002:00035928       $ip2state$??0?$basic_ifstream@DU?$char_traits@D@std@@@std@@QEAA@PEBDHH@Z 0000000140096928     FileIO-72ff47.o
 0002:000359b4       $cppxdata$?seekg@?$basic_istream@DU?$char_traits@D@std@@@std@@QEAAAEAV12@_JH@Z 00000001400969b4     FileIO-72ff47.o
 0002:000359dc       $stateUnwindMap$?seekg@?$basic_istream@DU?$char_traits@D@std@@@std@@QEAAAEAV12@_JH@Z 00000001400969dc     FileIO-72ff47.o
 0002:00035a04       $tryMap$?seekg@?$basic_istream@DU?$char_traits@D@std@@@std@@QEAAAEAV12@_JH@Z 0000000140096a04     FileIO-72ff47.o
 0002:00035a18       $handlerMap$0$?seekg@?$basic_istream@DU?$char_traits@D@std@@@std@@QEAAAEAV12@_JH@Z 0000000140096a18     FileIO-72ff47.o
 0002:00035a2c       $ip2state$?seekg@?$basic_istream@DU?$char_traits@D@std@@@std@@QEAAAEAV12@_JH@Z 0000000140096a2c     FileIO-72ff47.o
 0002:00035abc       $cppxdata$?tellg@?$basic_istream@DU?$char_traits@D@std@@@std@@QEAA?AV?$fpos@U_Mbstatet@@@2@XZ 0000000140096abc     FileIO-72ff47.o
 0002:00035ae4       $stateUnwindMap$?tellg@?$basic_istream@DU?$char_traits@D@std@@@std@@QEAA?AV?$fpos@U_Mbstatet@@@2@XZ 0000000140096ae4     FileIO-72ff47.o
 0002:00035b0c       $tryMap$?tellg@?$basic_istream@DU?$char_traits@D@std@@@std@@QEAA?AV?$fpos@U_Mbstatet@@@2@XZ 0000000140096b0c     FileIO-72ff47.o
 0002:00035b20       $handlerMap$0$?tellg@?$basic_istream@DU?$char_traits@D@std@@@std@@QEAA?AV?$fpos@U_Mbstatet@@@2@XZ 0000000140096b20     FileIO-72ff47.o
 0002:00035b34       $ip2state$?tellg@?$basic_istream@DU?$char_traits@D@std@@@std@@QEAA?AV?$fpos@U_Mbstatet@@@2@XZ 0000000140096b34     FileIO-72ff47.o
 0002:00035bc8       $cppxdata$?seekg@?$basic_istream@DU?$char_traits@D@std@@@std@@QEAAAEAV12@V?$fpos@U_Mbstatet@@@2@@Z 0000000140096bc8     FileIO-72ff47.o
 0002:00035bf0       $stateUnwindMap$?seekg@?$basic_istream@DU?$char_traits@D@std@@@std@@QEAAAEAV12@V?$fpos@U_Mbstatet@@@2@@Z 0000000140096bf0     FileIO-72ff47.o
 0002:00035c18       $tryMap$?seekg@?$basic_istream@DU?$char_traits@D@std@@@std@@QEAAAEAV12@V?$fpos@U_Mbstatet@@@2@@Z 0000000140096c18     FileIO-72ff47.o
 0002:00035c2c       $handlerMap$0$?seekg@?$basic_istream@DU?$char_traits@D@std@@@std@@QEAAAEAV12@V?$fpos@U_Mbstatet@@@2@@Z 0000000140096c2c     FileIO-72ff47.o
 0002:00035c40       $ip2state$?seekg@?$basic_istream@DU?$char_traits@D@std@@@std@@QEAAAEAV12@V?$fpos@U_Mbstatet@@@2@@Z 0000000140096c40     FileIO-72ff47.o
 0002:00035ce4       $cppxdata$?read@?$basic_istream@DU?$char_traits@D@std@@@std@@QEAAAEAV12@PEAD_J@Z 0000000140096ce4     FileIO-72ff47.o
 0002:00035d0c       $stateUnwindMap$?read@?$basic_istream@DU?$char_traits@D@std@@@std@@QEAAAEAV12@PEAD_J@Z 0000000140096d0c     FileIO-72ff47.o
 0002:00035d34       $tryMap$?read@?$basic_istream@DU?$char_traits@D@std@@@std@@QEAAAEAV12@PEAD_J@Z 0000000140096d34     FileIO-72ff47.o
 0002:00035d48       $handlerMap$0$?read@?$basic_istream@DU?$char_traits@D@std@@@std@@QEAAAEAV12@PEAD_J@Z 0000000140096d48     FileIO-72ff47.o
 0002:00035d5c       $ip2state$?read@?$basic_istream@DU?$char_traits@D@std@@@std@@QEAAAEAV12@PEAD_J@Z 0000000140096d5c     FileIO-72ff47.o
 0002:00035db8       $cppxdata$??_D?$basic_ifstream@DU?$char_traits@D@std@@@std@@QEAAXXZ 0000000140096db8     FileIO-72ff47.o
 0002:00035de0       $stateUnwindMap$??_D?$basic_ifstream@DU?$char_traits@D@std@@@std@@QEAAXXZ 0000000140096de0     FileIO-72ff47.o
 0002:00035de8       $ip2state$??_D?$basic_ifstream@DU?$char_traits@D@std@@@std@@QEAAXXZ 0000000140096de8     FileIO-72ff47.o
 0002:00035e20       $cppxdata$??1?$basic_filebuf@DU?$char_traits@D@std@@@std@@UEAA@XZ 0000000140096e20     FileIO-72ff47.o
 0002:00035e48       $stateUnwindMap$??1?$basic_filebuf@DU?$char_traits@D@std@@@std@@UEAA@XZ 0000000140096e48     FileIO-72ff47.o
 0002:00035e50       $ip2state$??1?$basic_filebuf@DU?$char_traits@D@std@@@std@@UEAA@XZ 0000000140096e50     FileIO-72ff47.o
 0002:00035e94       $cppxdata$??_E?$basic_ofstream@DU?$char_traits@D@std@@@std@@$4PPPPPPPM@A@EAAPEAXI@Z 0000000140096e94     FileIO-72ff47.o
 0002:00035ebc       $stateUnwindMap$??_E?$basic_ofstream@DU?$char_traits@D@std@@@std@@$4PPPPPPPM@A@EAAPEAXI@Z 0000000140096ebc     FileIO-72ff47.o
 0002:00035ec4       $ip2state$??_E?$basic_ofstream@DU?$char_traits@D@std@@@std@@$4PPPPPPPM@A@EAAPEAXI@Z 0000000140096ec4     FileIO-72ff47.o
 0002:00035f68       $cppxdata$?uflow@?$basic_filebuf@DU?$char_traits@D@std@@@std@@MEAAHXZ 0000000140096f68     FileIO-72ff47.o
 0002:00035f90       $stateUnwindMap$?uflow@?$basic_filebuf@DU?$char_traits@D@std@@@std@@MEAAHXZ 0000000140096f90     FileIO-72ff47.o
 0002:00035fa0       $ip2state$?uflow@?$basic_filebuf@DU?$char_traits@D@std@@@std@@MEAAHXZ 0000000140096fa0     FileIO-72ff47.o
 0002:00036018       $cppxdata$?setbuf@?$basic_filebuf@DU?$char_traits@D@std@@@std@@MEAAPEAV?$basic_streambuf@DU?$char_traits@D@std@@@2@PEAD_J@Z 0000000140097018     FileIO-72ff47.o
 0002:00036040       $stateUnwindMap$?setbuf@?$basic_filebuf@DU?$char_traits@D@std@@@std@@MEAAPEAV?$basic_streambuf@DU?$char_traits@D@std@@@2@PEAD_J@Z 0000000140097040     FileIO-72ff47.o
 0002:00036048       $ip2state$?setbuf@?$basic_filebuf@DU?$char_traits@D@std@@@std@@MEAAPEAV?$basic_streambuf@DU?$char_traits@D@std@@@2@PEAD_J@Z 0000000140097048     FileIO-72ff47.o
 0002:00036080       $cppxdata$??1?$basic_string@DU?$char_traits@D@std@@V?$allocator@D@2@@std@@QEAA@XZ 0000000140097080     FileIO-72ff47.o
 0002:000360a8       $stateUnwindMap$??1?$basic_string@DU?$char_traits@D@std@@V?$allocator@D@2@@std@@QEAA@XZ 00000001400970a8     FileIO-72ff47.o
 0002:000360b0       $ip2state$??1?$basic_string@DU?$char_traits@D@std@@V?$allocator@D@2@@std@@QEAA@XZ 00000001400970b0     FileIO-72ff47.o
 0002:00036100       $cppxdata$??$_Reallocate_grow_by@V<lambda_1>@?0??push_back@?$basic_string@DU?$char_traits@D@std@@V?$allocator@D@2@@std@@QEAAXD@Z@D@?$basic_string@DU?$char_traits@D@std@@V?$allocator@D@2@@std@@AEAAAEAV01@_KV<lambda_1>@?0??push_back@01@QEAAXD@Z@D@Z 0000000140097100     FileIO-72ff47.o
 0002:00036128       $stateUnwindMap$??$_Reallocate_grow_by@V<lambda_1>@?0??push_back@?$basic_string@DU?$char_traits@D@std@@V?$allocator@D@2@@std@@QEAAXD@Z@D@?$basic_string@DU?$char_traits@D@std@@V?$allocator@D@2@@std@@AEAAAEAV01@_KV<lambda_1>@?0??push_back@01@QEAAXD@Z@D@Z 0000000140097128     FileIO-72ff47.o
 0002:00036130       $ip2state$??$_Reallocate_grow_by@V<lambda_1>@?0??push_back@?$basic_string@DU?$char_traits@D@std@@V?$allocator@D@2@@std@@QEAAXD@Z@D@?$basic_string@DU?$char_traits@D@std@@V?$allocator@D@2@@std@@AEAAAEAV01@_KV<lambda_1>@?0??push_back@01@QEAAXD@Z@D@Z 0000000140097130     FileIO-72ff47.o
 0002:00036148       $unwind$__dcrt_terminate_console_output 0000000140097148     libucrt:initcon.obj
 0002:00036148       $unwind$??$uninitialize_environment_internal@D@@YAXAEAPEAPEAD@Z 0000000140097148     libucrt:environment_initialization.obj
 0002:00036148       $unwind$??$uninitialize_environment_internal@_W@@YAXAEAPEAPEA_W@Z 0000000140097148     libucrt:environment_initialization.obj
 0002:00036148       $unwind$__dcrt_get_or_create_narrow_environment_nolock 0000000140097148     libucrt:environment_initialization.obj
 0002:00036148       $unwind$__dcrt_get_or_create_wide_environment_nolock 0000000140097148     libucrt:environment_initialization.obj
 0002:00036148       $unwind$_get_initial_narrow_environment 0000000140097148     libucrt:environment_initialization.obj
 0002:00036148       $unwind$__acrt_initialize_heap 0000000140097148     libucrt:heap_handle.obj
 0002:00036148       $unwind$_msize_base        0000000140097148     libucrt:msize.obj
 0002:00036148       $unwind$_set_new_mode      0000000140097148     libucrt:new_mode.obj
 0002:00036148       $unwind$?initialize_multibyte@@YAHXZ 0000000140097148     libucrt:multibyte_initializer.obj
 0002:00036148       $unwind$__acrt_uninitialize 0000000140097148     libucrt:initialization.obj
 0002:00036148       $unwind$initialize_c       0000000140097148     libucrt:initialization.obj
 0002:00036148       $unwind$uninitialize_allocated_io_buffers 0000000140097148     libucrt:initialization.obj
 0002:00036148       $unwind$uninitialize_environment 0000000140097148     libucrt:initialization.obj
 0002:00036148       $unwind$_lock_locales      0000000140097148     libucrt:locks.obj
 0002:00036148       $unwind$__acrt_initialize_ptd 0000000140097148     libucrt:per_thread_data.obj
 0002:00036148       $unwind$__acrt_uninitialize_ptd 0000000140097148     libucrt:per_thread_data.obj
 0002:00036148       $unwind$__acrt_AreFileApisANSI 0000000140097148     libucrt:winapi_thunks.obj
 0002:00036148       $unwind$__acrt_can_use_vista_locale_apis 0000000140097148     libucrt:winapi_thunks.obj
 0002:00036148       $unwind$__acrt_eagerly_load_locale_apis 0000000140097148     libucrt:winapi_thunks.obj
 0002:00036148       $unwind$__pctype_func      0000000140097148     libucrt:ctype.obj
 0002:00036148       $unwind$___lc_codepage_func 0000000140097148     libucrt:initctype.obj
 0002:00036148       $unwind$___lc_locale_name_func 0000000140097148     libucrt:initctype.obj
 0002:00036148       $unwind$__acrt_release_locale_ref 0000000140097148     libucrt:locale_refcounting.obj
 0002:00036148       $unwind$_copytlocinfo_nolock 0000000140097148     libucrt:wsetlocale.obj
 0002:00036148       $unwind$_isatty            0000000140097148     libucrt:isatty.obj
 0002:00036148       $unwind$_get_osfhandle     0000000140097148     libucrt:osfinfo.obj
 0002:00036148       $unwind$_get_fmode         0000000140097148     libucrt:setmode.obj
 0002:00036148       $unwind$_set_fmode         0000000140097148     libucrt:setmode.obj
 0002:00036148       $unwind$__acrt_initialize_multibyte 0000000140097148     libucrt:mbctype.obj
 0002:00036148       $unwind$__acrt_update_thread_multibyte_data 0000000140097148     libucrt:mbctype.obj
 0002:00036148       $unwind$__doserrno         0000000140097148     libucrt:errno.obj
 0002:00036148       $unwind$_errno             0000000140097148     libucrt:errno.obj
 0002:00036148       $unwind$_invoke_watson     0000000140097148     libucrt:invalid_parameter.obj
 0002:00036148       $unwind$?signal_failed@@YAP6AXH@ZH@Z 0000000140097148     libucrt:signal.obj
 0002:00036148       $unwind$abort              0000000140097148     libucrt:abort.obj
 0002:00036148       $unwind$__acrt_initialize_command_line 0000000140097148     libucrt:argv_data.obj
 0002:00036148       $unwind$?should_call_terminate_process@@YA_NXZ 0000000140097148     libucrt:exit.obj
 0002:00036148       $unwind$_register_thread_local_exe_atexit_callback 0000000140097148     libucrt:exit.obj
 0002:00036148       $unwind$_get_stream_buffer_pointers 0000000140097148     libucrt:_file.obj
 0002:00036148       $unwind$_fgetc_nolock      0000000140097148     libucrt:fgetc.obj
 0002:00036148       $unwind$_fileno            0000000140097148     libucrt:fileno.obj
 0002:00036148       $unwind$fsetpos            0000000140097148     libucrt:fsetpos.obj
 0002:00036148       $unwind$?validate_stream_is_ansi_if_required@?$__acrt_stdio_char_traits@D@@SA_NQEAU_iobuf@@@Z 0000000140097148     libucrt:output.obj
 0002:00036148       $unwind$rand_s             0000000140097148     libucrt:rand_s.obj
 0002:00036148       $unwind$_strnicmp          0000000140097148     libucrt:strnicmp.obj
 0002:00036148       $unwind$_wcsicmp           0000000140097148     libucrt:wcsicmp.obj
 0002:00036148       $unwind$_wcsnicmp          0000000140097148     libucrt:wcsnicmp.obj
 0002:00036148       $unwind$_wcsnicoll         0000000140097148     libucrt:wcsnicol.obj
 0002:00036148       $unwind$_get_daylight      0000000140097148     libucrt:timeset.obj
 0002:00036148       $unwind$_get_dstbias       0000000140097148     libucrt:timeset.obj
 0002:00036148       $unwind$_get_timezone      0000000140097148     libucrt:timeset.obj
 0002:00036148       $unwind$_statfp            0000000140097148     libucrt:fpctrl.obj
 0002:00036148       $unwind$fegetround         0000000140097148     libucrt:fegetround.obj
 0002:00036148       $unwind$fetestexcept       0000000140097148     libucrt:fetestexcept.obj
 0002:00036148       $unwind$_set_errno_from_matherr 0000000140097148     libucrt:fpexcept.obj
 0002:00036148       $unwind$__scrt_initialize_default_local_stdio_options 0000000140097148     libcmt:default_local_stdio_options.obj
 0002:00036148       $unwind$?post_pgo_initialization@@YAHXZ 0000000140097148     libcmt:exe_main.obj
 0002:00036148       $unwind$?pre_cpp_initialization@@YAXXZ 0000000140097148     libcmt:exe_main.obj
 0002:00036148       $unwind$mainCRTStartup     0000000140097148     libcmt:exe_main.obj
 0002:00036148       $unwind$__report_rangecheckfailure 0000000140097148     libcmt:gs_report.obj
 0002:00036148       $unwind$__GSHandlerCheck   0000000140097148     libcmt:gshandler.obj
 0002:00036148       $unwind$__scrt_acquire_startup_lock 0000000140097148     libcmt:utility.obj
 0002:00036148       $unwind$__scrt_initialize_crt 0000000140097148     libcmt:utility.obj
 0002:00036148       $unwind$atexit             0000000140097148     libcmt:utility.obj
 0002:00036148       $unwind$__scrt_is_managed_app 0000000140097148     libcmt:utility_desktop.obj
 0002:00036148       $unwind$??__Einitlocks@std@@YAXXZ 0000000140097148     libcpmt:iosptrs.obj
 0002:00036148       $unwind$?_Atexit@@YAXP6AXXZ@Z 0000000140097148     libcpmt:iosptrs.obj
 0002:00036148       $unwind$??__Fclassic_locale@std@@YAXXZ 0000000140097148     libcpmt:locale0.obj
 0002:00036148       $unwind$?_Locinfo_dtor@_Locinfo@std@@SAXPEAV12@@Z 0000000140097148     libcpmt:locale0.obj
 0002:00036148       $unwind$_Deletegloballocale 0000000140097148     libcpmt:locale0.obj
 0002:00036148       $unwind$tidy_global        0000000140097148     libcpmt:locale0.obj
 0002:00036148       $unwind$??1_Lockit@std@@QEAA@XZ 0000000140097148     libcpmt:xlock.obj
 0002:00036148       $unwind$??__Einitlocks@std@@YAXXZ 0000000140097148     libcpmt:xlock.obj
 0002:00036148       $unwind$?_Random_device@std@@YAIXZ 0000000140097148     libcpmt:xrngdev.obj
 0002:00036148       $unwind$_Query_perf_counter 0000000140097148     libcpmt:xtime.obj
 0002:00036148       $unwind$_Query_perf_frequency 0000000140097148     libcpmt:xtime.obj
 0002:00036148       $unwind$__current_exception 0000000140097148     libvcruntime:ehhelpers.obj
 0002:00036148       $unwind$__current_exception_context 0000000140097148     libvcruntime:ehhelpers.obj
 0002:00036148       $unwind$__std_terminate    0000000140097148     libvcruntime:ehhelpers.obj
 0002:00036148       $unwind$?GetCurrentState@__FrameHandler3@@SAHPEA_KPEAU_xDISPATCHER_CONTEXT@@PEBU_s_FuncInfo@@@Z 0000000140097148     libvcruntime:ehstate.obj
 0002:00036148       $xdatasym$_CallSettingFrame 0000000140097148     libvcruntime:handlers.obj
 0002:00036148       $xdatasym$_CallSettingFrameEncoded 0000000140097148     libvcruntime:handlers.obj
 0002:00036148       $xdatasym$_CallSettingFrame_LookupContinuationIndex 0000000140097148     libvcruntime:handlers.obj
 0002:00036148       $xdatasym$_CallSettingFrame_NotifyContinuationAddr 0000000140097148     libvcruntime:handlers.obj
 0002:00036148       $unwind$__vcrt_initialize  0000000140097148     libvcruntime:initialization.obj
 0002:00036148       $unwind$__vcrt_uninitialize 0000000140097148     libvcruntime:initialization.obj
 0002:00036148       $unwind$__vcrt_freefls     0000000140097148     libvcruntime:per_thread_data.obj
 0002:00036148       $unwind$__vcrt_getptd      0000000140097148     libvcruntime:per_thread_data.obj
 0002:00036148       $unwind$__vcrt_initialize_ptd 0000000140097148     libvcruntime:per_thread_data.obj
 0002:00036148       $unwind$__vcrt_uninitialize_ptd 0000000140097148     libvcruntime:per_thread_data.obj
 0002:00036148       $unwind$_purecall          0000000140097148     libvcruntime:purevirt.obj
 0002:00036148       $unwind$?FrameUnwindToEmptyState@__FrameHandler4@@SAXPEA_KPEAU_xDISPATCHER_CONTEXT@@PEAUFuncInfo4@FH4@@@Z 0000000140097148     libvcruntime:risctrnsctrl.obj
 0002:00036148       $unwind$_GetImageBase      0000000140097148     libvcruntime:risctrnsctrl.obj
 0002:00036148       $unwind$_GetThrowImageBase 0000000140097148     libvcruntime:risctrnsctrl.obj
 0002:00036148       $unwind$__uncaught_exception 0000000140097148     libvcruntime:uncaught_exception.obj
 0002:00036150       $unwind$_itow_s            0000000140097150     libucrt:xtoa.obj
 0002:00036150       $unwind$parse_bcp47_code_page 0000000140097150     libucrt:wsetlocale.obj
 0002:00036150       $unwind$_sopen_s           0000000140097150     libucrt:open.obj
 0002:00036150       $unwind$_invalid_parameter_noinfo 0000000140097150     libucrt:invalid_parameter.obj
 0002:00036150       $unwind$_invalid_parameter_noinfo_noreturn 0000000140097150     libucrt:invalid_parameter.obj
 0002:00036150       $unwind$fflush             0000000140097150     libucrt:fflush.obj
 0002:00036150       $unwind$fread              0000000140097150     libucrt:fread.obj
 0002:00036150       $unwind$?state_case_size@?$output_processor@DV?$stream_output_adapter@D@__crt_stdio_output@@V?$standard_base@DV?$stream_output_adapter@D@__crt_stdio_output@@@2@@__crt_stdio_output@@AEAA_NXZ 0000000140097150     libucrt:output.obj
 0002:00036150       $unwind$_log10_special     0000000140097150     libucrt:log_special.obj
 0002:00036178       $cppxdata$??0bad_array_new_length@std@@QEAA@AEBV01@@Z 0000000140097178     FileIO-72ff47.o
 0002:000361a0       $stateUnwindMap$??0bad_array_new_length@std@@QEAA@AEBV01@@Z 00000001400971a0     FileIO-72ff47.o
 0002:000361a8       $ip2state$??0bad_array_new_length@std@@QEAA@AEBV01@@Z 00000001400971a8     FileIO-72ff47.o
 0002:000361e0       $cppxdata$??0bad_alloc@std@@QEAA@AEBV01@@Z 00000001400971e0     FileIO-72ff47.o
 0002:00036208       $stateUnwindMap$??0bad_alloc@std@@QEAA@AEBV01@@Z 0000000140097208     FileIO-72ff47.o
 0002:00036210       $ip2state$??0bad_alloc@std@@QEAA@AEBV01@@Z 0000000140097210     FileIO-72ff47.o
 0002:00036248       $cppxdata$??0exception@std@@QEAA@AEBV01@@Z 0000000140097248     FileIO-72ff47.o
 0002:00036270       $stateUnwindMap$??0exception@std@@QEAA@AEBV01@@Z 0000000140097270     FileIO-72ff47.o
 0002:00036278       $ip2state$??0exception@std@@QEAA@AEBV01@@Z 0000000140097278     FileIO-72ff47.o
 0002:000362b4       $cppxdata$??_G_System_error@std@@UEAAPEAXI@Z 00000001400972b4     FileIO-72ff47.o
 0002:000362b4       $cppxdata$??_Gbad_alloc@std@@UEAAPEAXI@Z 00000001400972b4     FileIO-72ff47.o
 0002:000362b4       $cppxdata$??_Gbad_array_new_length@std@@UEAAPEAXI@Z 00000001400972b4     FileIO-72ff47.o
 0002:000362b4       $cppxdata$??_Gexception@std@@UEAAPEAXI@Z 00000001400972b4     FileIO-72ff47.o
 0002:000362b4       $cppxdata$??_Gfailure@ios_base@std@@UEAAPEAXI@Z 00000001400972b4     FileIO-72ff47.o
 0002:000362b4       $cppxdata$??_Gruntime_error@std@@UEAAPEAXI@Z 00000001400972b4     FileIO-72ff47.o
 0002:000362b4       $cppxdata$??_Gsystem_error@std@@UEAAPEAXI@Z 00000001400972b4     FileIO-72ff47.o
 0002:000362dc       $stateUnwindMap$??_G_System_error@std@@UEAAPEAXI@Z 00000001400972dc     FileIO-72ff47.o
 0002:000362dc       $stateUnwindMap$??_Gbad_alloc@std@@UEAAPEAXI@Z 00000001400972dc     FileIO-72ff47.o
 0002:000362dc       $stateUnwindMap$??_Gbad_array_new_length@std@@UEAAPEAXI@Z 00000001400972dc     FileIO-72ff47.o
 0002:000362dc       $stateUnwindMap$??_Gexception@std@@UEAAPEAXI@Z 00000001400972dc     FileIO-72ff47.o
 0002:000362dc       $stateUnwindMap$??_Gfailure@ios_base@std@@UEAAPEAXI@Z 00000001400972dc     FileIO-72ff47.o
 0002:000362dc       $stateUnwindMap$??_Gruntime_error@std@@UEAAPEAXI@Z 00000001400972dc     FileIO-72ff47.o
 0002:000362dc       $stateUnwindMap$??_Gsystem_error@std@@UEAAPEAXI@Z 00000001400972dc     FileIO-72ff47.o
 0002:000362e4       $ip2state$??_G_System_error@std@@UEAAPEAXI@Z 00000001400972e4     FileIO-72ff47.o
 0002:000362e4       $ip2state$??_Gbad_alloc@std@@UEAAPEAXI@Z 00000001400972e4     FileIO-72ff47.o
 0002:000362e4       $ip2state$??_Gbad_array_new_length@std@@UEAAPEAXI@Z 00000001400972e4     FileIO-72ff47.o
 0002:000362e4       $ip2state$??_Gexception@std@@UEAAPEAXI@Z 00000001400972e4     FileIO-72ff47.o
 0002:000362e4       $ip2state$??_Gfailure@ios_base@std@@UEAAPEAXI@Z 00000001400972e4     FileIO-72ff47.o
 0002:000362e4       $ip2state$??_Gruntime_error@std@@UEAAPEAXI@Z 00000001400972e4     FileIO-72ff47.o
 0002:000362e4       $ip2state$??_Gsystem_error@std@@UEAAPEAXI@Z 00000001400972e4     FileIO-72ff47.o
 0002:00036348       $cppxdata$??$use_facet@V?$codecvt@DDU_Mbstatet@@@std@@@std@@YAAEBV?$codecvt@DDU_Mbstatet@@@0@AEBVlocale@0@@Z 0000000140097348     FileIO-72ff47.o
 0002:00036370       $stateUnwindMap$??$use_facet@V?$codecvt@DDU_Mbstatet@@@std@@@std@@YAAEBV?$codecvt@DDU_Mbstatet@@@0@AEBVlocale@0@@Z 0000000140097370     FileIO-72ff47.o
 0002:00036388       $ip2state$??$use_facet@V?$codecvt@DDU_Mbstatet@@@std@@@std@@YAAEBV?$codecvt@DDU_Mbstatet@@@0@AEBVlocale@0@@Z 0000000140097388     FileIO-72ff47.o
 0002:000363d4       $cppxdata$??0_Locinfo@std@@QEAA@PEBD@Z 00000001400973d4     FileIO-72ff47.o
 0002:000363fc       $stateUnwindMap$??0_Locinfo@std@@QEAA@PEBD@Z 00000001400973fc     FileIO-72ff47.o
 0002:00036404       $ip2state$??0_Locinfo@std@@QEAA@PEBD@Z 0000000140097404     FileIO-72ff47.o
 0002:0003643c       $cppxdata$??1_Locinfo@std@@QEAA@XZ 000000014009743c     FileIO-72ff47.o
 0002:00036464       $stateUnwindMap$??1_Locinfo@std@@QEAA@XZ 0000000140097464     FileIO-72ff47.o
 0002:0003646c       $ip2state$??1_Locinfo@std@@QEAA@XZ 000000014009746c     FileIO-72ff47.o
 0002:000364a8       $cppxdata$??_G?$basic_ios@DU?$char_traits@D@std@@@std@@UEAAPEAXI@Z 00000001400974a8     FileIO-72ff47.o
 0002:000364a8       $cppxdata$??_Gios_base@std@@UEAAPEAXI@Z 00000001400974a8     FileIO-72ff47.o
 0002:000364d0       $stateUnwindMap$??_G?$basic_ios@DU?$char_traits@D@std@@@std@@UEAAPEAXI@Z 00000001400974d0     FileIO-72ff47.o
 0002:000364d0       $stateUnwindMap$??_Gios_base@std@@UEAAPEAXI@Z 00000001400974d0     FileIO-72ff47.o
 0002:000364d8       $ip2state$??_G?$basic_ios@DU?$char_traits@D@std@@@std@@UEAAPEAXI@Z 00000001400974d8     FileIO-72ff47.o
 0002:000364d8       $ip2state$??_Gios_base@std@@UEAAPEAXI@Z 00000001400974d8     FileIO-72ff47.o
 0002:0003651c       $cppxdata$??_E?$basic_ifstream@DU?$char_traits@D@std@@@std@@$4PPPPPPPM@A@EAAPEAXI@Z 000000014009751c     FileIO-72ff47.o
 0002:00036544       $stateUnwindMap$??_E?$basic_ifstream@DU?$char_traits@D@std@@@std@@$4PPPPPPPM@A@EAAPEAXI@Z 0000000140097544     FileIO-72ff47.o
 0002:0003654c       $ip2state$??_E?$basic_ifstream@DU?$char_traits@D@std@@@std@@$4PPPPPPPM@A@EAAPEAXI@Z 000000014009754c     FileIO-72ff47.o
 0002:000365b4       $cppxdata$?open@?$basic_filebuf@DU?$char_traits@D@std@@@std@@QEAAPEAV12@PEBDHH@Z 00000001400975b4     FileIO-72ff47.o
 0002:000365dc       $stateUnwindMap$?open@?$basic_filebuf@DU?$char_traits@D@std@@@std@@QEAAPEAV12@PEBDHH@Z 00000001400975dc     FileIO-72ff47.o
 0002:000365ec       $ip2state$?open@?$basic_filebuf@DU?$char_traits@D@std@@@std@@QEAAPEAV12@PEBDHH@Z 00000001400975ec     FileIO-72ff47.o
 0002:0003665c       $cppxdata$?init@?$basic_ios@DU?$char_traits@D@std@@@std@@IEAAXPEAV?$basic_streambuf@DU?$char_traits@D@std@@@2@_N@Z 000000014009765c     FileIO-72ff47.o
 0002:00036684       $stateUnwindMap$?init@?$basic_ios@DU?$char_traits@D@std@@@std@@IEAAXPEAV?$basic_streambuf@DU?$char_traits@D@std@@@2@_N@Z 0000000140097684     FileIO-72ff47.o
 0002:00036694       $ip2state$?init@?$basic_ios@DU?$char_traits@D@std@@@std@@IEAAXPEAV?$basic_streambuf@DU?$char_traits@D@std@@@2@_N@Z 0000000140097694     FileIO-72ff47.o
 0002:000366e4       $cppxdata$??_E?$basic_ostream@DU?$char_traits@D@std@@@std@@$4PPPPPPPM@A@EAAPEAXI@Z 00000001400976e4     FileIO-72ff47.o
 0002:0003670c       $stateUnwindMap$??_E?$basic_ostream@DU?$char_traits@D@std@@@std@@$4PPPPPPPM@A@EAAPEAXI@Z 000000014009770c     FileIO-72ff47.o
 0002:00036714       $ip2state$??_E?$basic_ostream@DU?$char_traits@D@std@@@std@@$4PPPPPPPM@A@EAAPEAXI@Z 0000000140097714     FileIO-72ff47.o
 0002:00036758       $cppxdata$??0failure@ios_base@std@@QEAA@AEBV012@@Z 0000000140097758     FileIO-72ff47.o
 0002:00036780       $stateUnwindMap$??0failure@ios_base@std@@QEAA@AEBV012@@Z 0000000140097780     FileIO-72ff47.o
 0002:00036788       $ip2state$??0failure@ios_base@std@@QEAA@AEBV012@@Z 0000000140097788     FileIO-72ff47.o
 0002:000367c4       $cppxdata$??0system_error@std@@QEAA@AEBV01@@Z 00000001400977c4     FileIO-72ff47.o
 0002:000367ec       $stateUnwindMap$??0system_error@std@@QEAA@AEBV01@@Z 00000001400977ec     FileIO-72ff47.o
 0002:000367f4       $ip2state$??0system_error@std@@QEAA@AEBV01@@Z 00000001400977f4     FileIO-72ff47.o
 0002:00036830       $cppxdata$??0_System_error@std@@QEAA@AEBV01@@Z 0000000140097830     FileIO-72ff47.o
 0002:00036858       $stateUnwindMap$??0_System_error@std@@QEAA@AEBV01@@Z 0000000140097858     FileIO-72ff47.o
 0002:00036860       $ip2state$??0_System_error@std@@QEAA@AEBV01@@Z 0000000140097860     FileIO-72ff47.o
 0002:00036898       $cppxdata$??0runtime_error@std@@QEAA@AEBV01@@Z 0000000140097898     FileIO-72ff47.o
 0002:000368c0       $stateUnwindMap$??0runtime_error@std@@QEAA@AEBV01@@Z 00000001400978c0     FileIO-72ff47.o
 0002:000368c8       $ip2state$??0runtime_error@std@@QEAA@AEBV01@@Z 00000001400978c8     FileIO-72ff47.o
 0002:000368fc       $cppxdata$??1exception@std@@UEAA@XZ 00000001400978fc     FileIO-72ff47.o
 0002:00036924       $stateUnwindMap$??1exception@std@@UEAA@XZ 0000000140097924     FileIO-72ff47.o
 0002:0003692c       $ip2state$??1exception@std@@UEAA@XZ 000000014009792c     FileIO-72ff47.o
 0002:0003698c       $cppxdata$??0system_error@std@@QEAA@Verror_code@1@PEBD@Z 000000014009798c     FileIO-72ff47.o
 0002:000369b4       $stateUnwindMap$??0system_error@std@@QEAA@Verror_code@1@PEBD@Z 00000001400979b4     FileIO-72ff47.o
 0002:000369c4       $ip2state$??0system_error@std@@QEAA@Verror_code@1@PEBD@Z 00000001400979c4     FileIO-72ff47.o
 0002:00036a34       $cppxdata$??0_System_error@std@@IEAA@Verror_code@1@AEBV?$basic_string@DU?$char_traits@D@std@@V?$allocator@D@2@@1@@Z 0000000140097a34     FileIO-72ff47.o
 0002:00036a5c       $stateUnwindMap$??0_System_error@std@@IEAA@Verror_code@1@AEBV?$basic_string@DU?$char_traits@D@std@@V?$allocator@D@2@@1@@Z 0000000140097a5c     FileIO-72ff47.o
 0002:00036a6c       $ip2state$??0_System_error@std@@IEAA@Verror_code@1@AEBV?$basic_string@DU?$char_traits@D@std@@V?$allocator@D@2@@1@@Z 0000000140097a6c     FileIO-72ff47.o
 0002:00036ae0       $cppxdata$?_Makestr@_System_error@std@@CA?AV?$basic_string@DU?$char_traits@D@std@@V?$allocator@D@2@@2@Verror_code@2@V32@@Z 0000000140097ae0     FileIO-72ff47.o
 0002:00036b08       $stateUnwindMap$?_Makestr@_System_error@std@@CA?AV?$basic_string@DU?$char_traits@D@std@@V?$allocator@D@2@@2@Verror_code@2@V32@@Z 0000000140097b08     FileIO-72ff47.o
 0002:00036b20       $ip2state$?_Makestr@_System_error@std@@CA?AV?$basic_string@DU?$char_traits@D@std@@V?$allocator@D@2@@2@Verror_code@2@V32@@Z 0000000140097b20     FileIO-72ff47.o
 0002:00036b88       $cppxdata$??$_Reallocate_grow_by@V<lambda_1>@?0??append@?$basic_string@DU?$char_traits@D@std@@V?$allocator@D@2@@std@@QEAAAEAV34@QEBD_K@Z@PEBD_K@?$basic_string@DU?$char_traits@D@std@@V?$allocator@D@2@@std@@AEAAAEAV01@_KV<lambda_1>@?0??append@01@QEAAAEAV01@QEBD0@Z@PEBD_K@Z 0000000140097b88     FileIO-72ff47.o
 0002:00036bb0       $stateUnwindMap$??$_Reallocate_grow_by@V<lambda_1>@?0??append@?$basic_string@DU?$char_traits@D@std@@V?$allocator@D@2@@std@@QEAAAEAV34@QEBD_K@Z@PEBD_K@?$basic_string@DU?$char_traits@D@std@@V?$allocator@D@2@@std@@AEAAAEAV01@_KV<lambda_1>@?0??append@01@QEAAAEAV01@QEBD0@Z@PEBD_K@Z 0000000140097bb0     FileIO-72ff47.o
 0002:00036bb8       $ip2state$??$_Reallocate_grow_by@V<lambda_1>@?0??append@?$basic_string@DU?$char_traits@D@std@@V?$allocator@D@2@@std@@QEAAAEAV34@QEBD_K@Z@PEBD_K@?$basic_string@DU?$char_traits@D@std@@V?$allocator@D@2@@std@@AEAAAEAV01@_KV<lambda_1>@?0??append@01@QEAAAEAV01@QEBD0@Z@PEBD_K@Z 0000000140097bb8     FileIO-72ff47.o
 0002:00036c1c       $cppxdata$??$use_facet@V?$ctype@D@std@@@std@@YAAEBV?$ctype@D@0@AEBVlocale@0@@Z 0000000140097c1c     FileIO-72ff47.o
 0002:00036c44       $stateUnwindMap$??$use_facet@V?$ctype@D@std@@@std@@YAAEBV?$ctype@D@0@AEBVlocale@0@@Z 0000000140097c44     FileIO-72ff47.o
 0002:00036c5c       $ip2state$??$use_facet@V?$ctype@D@std@@@std@@YAAEBV?$ctype@D@0@AEBVlocale@0@@Z 0000000140097c5c     FileIO-72ff47.o
 0002:00036ca4       $cppxdata$??1sentry@?$basic_ostream@DU?$char_traits@D@std@@@std@@QEAA@XZ 0000000140097ca4     FileIO-72ff47.o
 0002:00036ccc       $stateUnwindMap$??1sentry@?$basic_ostream@DU?$char_traits@D@std@@@std@@QEAA@XZ 0000000140097ccc     FileIO-72ff47.o
 0002:00036cd4       $ip2state$??1sentry@?$basic_ostream@DU?$char_traits@D@std@@@std@@QEAA@XZ 0000000140097cd4     FileIO-72ff47.o
 0002:00036d3c       $cppxdata$?flush@?$basic_ostream@DU?$char_traits@D@std@@@std@@QEAAAEAV12@XZ 0000000140097d3c     FileIO-72ff47.o
 0002:00036d64       $stateUnwindMap$?flush@?$basic_ostream@DU?$char_traits@D@std@@@std@@QEAAAEAV12@XZ 0000000140097d64     FileIO-72ff47.o
 0002:00036d8c       $tryMap$?flush@?$basic_ostream@DU?$char_traits@D@std@@@std@@QEAAAEAV12@XZ 0000000140097d8c     FileIO-72ff47.o
 0002:00036da0       $handlerMap$0$?flush@?$basic_ostream@DU?$char_traits@D@std@@@std@@QEAAAEAV12@XZ 0000000140097da0     FileIO-72ff47.o
 0002:00036db4       $ip2state$?flush@?$basic_ostream@DU?$char_traits@D@std@@@std@@QEAAAEAV12@XZ 0000000140097db4     FileIO-72ff47.o
 0002:00036e08       $cppxdata$??1_Sentry_base@?$basic_istream@DU?$char_traits@D@std@@@std@@QEAA@XZ 0000000140097e08     FileIO-72ff47.o
 0002:00036e08       $cppxdata$??1_Sentry_base@?$basic_ostream@DU?$char_traits@D@std@@@std@@QEAA@XZ 0000000140097e08     FileIO-72ff47.o
 0002:00036e30       $stateUnwindMap$??1_Sentry_base@?$basic_istream@DU?$char_traits@D@std@@@std@@QEAA@XZ 0000000140097e30     FileIO-72ff47.o
 0002:00036e30       $stateUnwindMap$??1_Sentry_base@?$basic_ostream@DU?$char_traits@D@std@@@std@@QEAA@XZ 0000000140097e30     FileIO-72ff47.o
 0002:00036e38       $ip2state$??1_Sentry_base@?$basic_istream@DU?$char_traits@D@std@@@std@@QEAA@XZ 0000000140097e38     FileIO-72ff47.o
 0002:00036e38       $ip2state$??1_Sentry_base@?$basic_ostream@DU?$char_traits@D@std@@@std@@QEAA@XZ 0000000140097e38     FileIO-72ff47.o
 0002:00036e84       $cppxdata$?_Osfx@?$basic_ostream@DU?$char_traits@D@std@@@std@@QEAAXXZ 0000000140097e84     FileIO-72ff47.o
 0002:00036eac       $stateUnwindMap$?_Osfx@?$basic_ostream@DU?$char_traits@D@std@@@std@@QEAAXXZ 0000000140097eac     FileIO-72ff47.o
 0002:00036ec4       $tryMap$?_Osfx@?$basic_ostream@DU?$char_traits@D@std@@@std@@QEAAXXZ 0000000140097ec4     FileIO-72ff47.o
 0002:00036ed8       $handlerMap$0$?_Osfx@?$basic_ostream@DU?$char_traits@D@std@@@std@@QEAAXXZ 0000000140097ed8     FileIO-72ff47.o
 0002:00036eec       $ip2state$?_Osfx@?$basic_ostream@DU?$char_traits@D@std@@@std@@QEAAXXZ 0000000140097eec     FileIO-72ff47.o
 0002:00036f34       $cppxdata$??_E?$basic_istream@DU?$char_traits@D@std@@@std@@$4PPPPPPPM@A@EAAPEAXI@Z 0000000140097f34     FileIO-72ff47.o
 0002:00036f5c       $stateUnwindMap$??_E?$basic_istream@DU?$char_traits@D@std@@@std@@$4PPPPPPPM@A@EAAPEAXI@Z 0000000140097f5c     FileIO-72ff47.o
 0002:00036f64       $ip2state$??_E?$basic_istream@DU?$char_traits@D@std@@@std@@$4PPPPPPPM@A@EAAPEAXI@Z 0000000140097f64     FileIO-72ff47.o
 0002:00036fbc       $cppxdata$?_Ipfx@?$basic_istream@DU?$char_traits@D@std@@@std@@QEAA_N_N@Z 0000000140097fbc     FileIO-72ff47.o
 0002:00036fe4       $stateUnwindMap$?_Ipfx@?$basic_istream@DU?$char_traits@D@std@@@std@@QEAA_N_N@Z 0000000140097fe4     FileIO-72ff47.o
 0002:00036ffc       $tryMap$?_Ipfx@?$basic_istream@DU?$char_traits@D@std@@@std@@QEAA_N_N@Z 0000000140097ffc     FileIO-72ff47.o
 0002:00037010       $handlerMap$0$?_Ipfx@?$basic_istream@DU?$char_traits@D@std@@@std@@QEAA_N_N@Z 0000000140098010     FileIO-72ff47.o
 0002:00037024       $ip2state$?_Ipfx@?$basic_istream@DU?$char_traits@D@std@@@std@@QEAA_N_N@Z 0000000140098024     FileIO-72ff47.o
 0002:0003725c       $cppxdata$?testCrt@Garner@@QEAAXAEBVInteger@@AEAVIntegerMath@@AEBVSPrimes@@AEBVMultInv@@AEBVCrtMath@@@Z 000000014009825c     Garner-7c4afe.o
 0002:00037284       $stateUnwindMap$?testCrt@Garner@@QEAAXAEBVInteger@@AEAVIntegerMath@@AEBVSPrimes@@AEBVMultInv@@AEBVCrtMath@@@Z 0000000140098284     Garner-7c4afe.o
 0002:0003728c       $ip2state$?testCrt@Garner@@QEAAXAEBVInteger@@AEAVIntegerMath@@AEBVSPrimes@@AEBVMultInv@@AEBVCrtMath@@@Z 000000014009828c     Garner-7c4afe.o
 0002:000372e4       $cppxdata$??0Crt3@@QEAA@XZ 00000001400982e4     Garner-7c4afe.o
 0002:0003730c       $stateUnwindMap$??0Crt3@@QEAA@XZ 000000014009830c     Garner-7c4afe.o
 0002:0003731c       $ip2state$??0Crt3@@QEAA@XZ 000000014009831c     Garner-7c4afe.o
 0002:0003735c       $cppxdata$??0Crt@@QEAA@XZ  000000014009835c     Garner-7c4afe.o
 0002:00037384       $stateUnwindMap$??0Crt@@QEAA@XZ 0000000140098384     Garner-7c4afe.o
 0002:0003738c       $ip2state$??0Crt@@QEAA@XZ  000000014009838c     Garner-7c4afe.o
 0002:000373f8       $cppxdata$?setUpConstants@GarnerCrt@@QEAAXAEBVSPrimes@@AEAVIntegerMath@@@Z 00000001400983f8     GarnerCrt-2d2605.o
 0002:00037420       $stateUnwindMap$?setUpConstants@GarnerCrt@@QEAAXAEBVSPrimes@@AEAVIntegerMath@@@Z 0000000140098420     GarnerCrt-2d2605.o
 0002:00037430       $ip2state$?setUpConstants@GarnerCrt@@QEAAXAEBVSPrimes@@AEAVIntegerMath@@@Z 0000000140098430     GarnerCrt-2d2605.o
 0002:000374ac       $cppxdata$??0GoodX@@QEAA@XZ 00000001400984ac     GoodX-ae9673.o
 0002:000374d4       $stateUnwindMap$??0GoodX@@QEAA@XZ 00000001400984d4     GoodX-ae9673.o
 0002:000374dc       $ip2state$??0GoodX@@QEAA@XZ 00000001400984dc     GoodX-ae9673.o
 0002:0003751c       $cppxdata$??0GoodX@@QEAA@AEBV0@@Z 000000014009851c     GoodX-ae9673.o
 0002:00037544       $stateUnwindMap$??0GoodX@@QEAA@AEBV0@@Z 0000000140098544     GoodX-ae9673.o
 0002:0003754c       $ip2state$??0GoodX@@QEAA@AEBV0@@Z 000000014009854c     GoodX-ae9673.o
 0002:000375b0       $cppxdata$??0MultInv@@QEAA@XZ 00000001400985b0     MultInv-2bbd1e.o
 0002:000375d8       $stateUnwindMap$??0MultInv@@QEAA@XZ 00000001400985d8     MultInv-2bbd1e.o
 0002:000375e0       $ip2state$??0MultInv@@QEAA@XZ 00000001400985e0     MultInv-2bbd1e.o
 0002:00037620       $cppxdata$??0MultInv@@QEAA@AEBV0@@Z 0000000140098620     MultInv-2bbd1e.o
 0002:00037648       $stateUnwindMap$??0MultInv@@QEAA@AEBV0@@Z 0000000140098648     MultInv-2bbd1e.o
 0002:00037650       $ip2state$??0MultInv@@QEAA@AEBV0@@Z 0000000140098650     MultInv-2bbd1e.o
 0002:00037798       $cppxdata$??0Exponents@@QEAA@XZ 0000000140098798     Exponents-d95490.o
 0002:000377c0       $stateUnwindMap$??0Exponents@@QEAA@XZ 00000001400987c0     Exponents-d95490.o
 0002:000377c8       $ip2state$??0Exponents@@QEAA@XZ 00000001400987c8     Exponents-d95490.o
 0002:00037814       $cppxdata$??0Exponents@@QEAA@AEBV0@@Z 0000000140098814     Exponents-d95490.o
 0002:0003783c       $stateUnwindMap$??0Exponents@@QEAA@AEBV0@@Z 000000014009883c     Exponents-d95490.o
 0002:00037844       $ip2state$??0Exponents@@QEAA@AEBV0@@Z 0000000140098844     Exponents-d95490.o
 0002:00037994       $cppxdata$?makeRandomOdd@Integer@@QEAA_NH@Z 0000000140098994     Integer-411c6a.o
 0002:000379bc       $stateUnwindMap$?makeRandomOdd@Integer@@QEAA_NH@Z 00000001400989bc     Integer-411c6a.o
 0002:000379cc       $ip2state$?makeRandomOdd@Integer@@QEAA_NH@Z 00000001400989cc     Integer-411c6a.o
 0002:00037a28       $cppxdata$?setFromBigEndianCharBuf@Integer@@QEAAXAEBVCharBuf@@@Z 0000000140098a28     Integer-411c6a.o
 0002:00037a50       $stateUnwindMap$?setFromBigEndianCharBuf@Integer@@QEAAXAEBVCharBuf@@@Z 0000000140098a50     Integer-411c6a.o
 0002:00037a60       $ip2state$?setFromBigEndianCharBuf@Integer@@QEAAXAEBVCharBuf@@@Z 0000000140098a60     Integer-411c6a.o
 0002:00037b5c       $cppxdata$?setFromStr@IntegerMath@@QEAAXAEAVInteger@@AEBVCharBuf@@@Z 0000000140098b5c     IntegerMath-59f10c.o
 0002:00037b84       $stateUnwindMap$?setFromStr@IntegerMath@@QEAAXAEAVInteger@@AEBVCharBuf@@@Z 0000000140098b84     IntegerMath-59f10c.o
 0002:00037b8c       $ip2state$?setFromStr@IntegerMath@@QEAAXAEAVInteger@@AEBVCharBuf@@@Z 0000000140098b8c     IntegerMath-59f10c.o
 0002:00037c28       $cppxdata$?toString10@IntegerMath@@QEAAXAEBVInteger@@AEAVCharBuf@@@Z 0000000140098c28     IntegerMath-59f10c.o
 0002:00037c50       $stateUnwindMap$?toString10@IntegerMath@@QEAAXAEBVInteger@@AEAVCharBuf@@@Z 0000000140098c50     IntegerMath-59f10c.o
 0002:00037c78       $ip2state$?toString10@IntegerMath@@QEAAXAEBVInteger@@AEAVCharBuf@@@Z 0000000140098c78     IntegerMath-59f10c.o
 0002:00037f34       $cppxdata$?parseOneExten@CertExten@@QEAA_NAEBVCharBuf@@AEAV2@@Z 0000000140098f34     CertExten-6fb235.o
 0002:00037f5c       $stateUnwindMap$?parseOneExten@CertExten@@QEAA_NAEBVCharBuf@@AEAV2@@Z 0000000140098f5c     CertExten-6fb235.o
 0002:00037fac       $ip2state$?parseOneExten@CertExten@@QEAA_NAEBVCharBuf@@AEAV2@@Z 0000000140098fac     CertExten-6fb235.o
 0002:000381b0       $cppxdata$?parseOneCert@Certificate@@QEAAIAEBVCharBuf@@AEAVTlsMain@@@Z 00000001400991b0     Certificate-0fe854.o
 0002:000381d8       $stateUnwindMap$?parseOneCert@Certificate@@QEAAIAEBVCharBuf@@AEAVTlsMain@@@Z 00000001400991d8     Certificate-0fe854.o
 0002:00038248       $ip2state$?parseOneCert@Certificate@@QEAAIAEBVCharBuf@@AEAVTlsMain@@@Z 0000000140099248     Certificate-0fe854.o
 0002:00038344       $cppxdata$?parseVersion@Certificate@@QEAAHAEBVCharBuf@@@Z 0000000140099344     Certificate-0fe854.o
 0002:0003836c       $stateUnwindMap$?parseVersion@Certificate@@QEAAHAEBVCharBuf@@@Z 000000014009936c     Certificate-0fe854.o
 0002:0003838c       $ip2state$?parseVersion@Certificate@@QEAAHAEBVCharBuf@@@Z 000000014009938c     Certificate-0fe854.o
 0002:00038464       $cppxdata$?parseSerialNum@Certificate@@QEAAHAEBVCharBuf@@HAEAVTlsMain@@@Z 0000000140099464     Certificate-0fe854.o
 0002:0003848c       $stateUnwindMap$?parseSerialNum@Certificate@@QEAAHAEBVCharBuf@@HAEAVTlsMain@@@Z 000000014009948c     Certificate-0fe854.o
 0002:000384bc       $ip2state$?parseSerialNum@Certificate@@QEAAHAEBVCharBuf@@HAEAVTlsMain@@@Z 00000001400994bc     Certificate-0fe854.o
 0002:000385b8       $cppxdata$?parseTbsSigAlgID@Certificate@@QEAAHAEBVCharBuf@@H@Z 00000001400995b8     Certificate-0fe854.o
 0002:000385e0       $stateUnwindMap$?parseTbsSigAlgID@Certificate@@QEAAHAEBVCharBuf@@H@Z 00000001400995e0     Certificate-0fe854.o
 0002:00038630       $ip2state$?parseTbsSigAlgID@Certificate@@QEAAHAEBVCharBuf@@H@Z 0000000140099630     Certificate-0fe854.o
 0002:0003879c       $cppxdata$?parseIssuer@Certificate@@QEAAHAEBVCharBuf@@H@Z 000000014009979c     Certificate-0fe854.o
 0002:000387c4       $stateUnwindMap$?parseIssuer@Certificate@@QEAAHAEBVCharBuf@@H@Z 00000001400997c4     Certificate-0fe854.o
 0002:00038834       $ip2state$?parseIssuer@Certificate@@QEAAHAEBVCharBuf@@H@Z 0000000140099834     Certificate-0fe854.o
 0002:00038978       $cppxdata$?parseValidity@Certificate@@QEAAHAEBVCharBuf@@H@Z 0000000140099978     Certificate-0fe854.o
 0002:000389a0       $stateUnwindMap$?parseValidity@Certificate@@QEAAHAEBVCharBuf@@H@Z 00000001400999a0     Certificate-0fe854.o
 0002:000389e0       $ip2state$?parseValidity@Certificate@@QEAAHAEBVCharBuf@@H@Z 00000001400999e0     Certificate-0fe854.o
 0002:00038b44       $cppxdata$?parseSubject@Certificate@@QEAAHAEBVCharBuf@@H@Z 0000000140099b44     Certificate-0fe854.o
 0002:00038b6c       $stateUnwindMap$?parseSubject@Certificate@@QEAAHAEBVCharBuf@@H@Z 0000000140099b6c     Certificate-0fe854.o
 0002:00038bdc       $ip2state$?parseSubject@Certificate@@QEAAHAEBVCharBuf@@H@Z 0000000140099bdc     Certificate-0fe854.o
 0002:00038ddc       $cppxdata$?parseSubjectPubKey@Certificate@@QEAAHAEBVCharBuf@@HAEAVTlsMain@@@Z 0000000140099ddc     Certificate-0fe854.o
 0002:00038e04       $stateUnwindMap$?parseSubjectPubKey@Certificate@@QEAAHAEBVCharBuf@@HAEAVTlsMain@@@Z 0000000140099e04     Certificate-0fe854.o
 0002:00038e84       $ip2state$?parseSubjectPubKey@Certificate@@QEAAHAEBVCharBuf@@HAEAVTlsMain@@@Z 0000000140099e84     Certificate-0fe854.o
 0002:00038f88       $cppxdata$?parseUniqueID@Certificate@@QEAAHAEBVCharBuf@@H@Z 0000000140099f88     Certificate-0fe854.o
 0002:00038fb0       $stateUnwindMap$?parseUniqueID@Certificate@@QEAAHAEBVCharBuf@@H@Z 0000000140099fb0     Certificate-0fe854.o
 0002:00038fc0       $ip2state$?parseUniqueID@Certificate@@QEAAHAEBVCharBuf@@H@Z 0000000140099fc0     Certificate-0fe854.o
 0002:000390fc       $cppxdata$?parseExtensions@Certificate@@QEAAHAEBVCharBuf@@H@Z 000000014009a0fc     Certificate-0fe854.o
 0002:00039124       $stateUnwindMap$?parseExtensions@Certificate@@QEAAHAEBVCharBuf@@H@Z 000000014009a124     Certificate-0fe854.o
 0002:0003916c       $ip2state$?parseExtensions@Certificate@@QEAAHAEBVCharBuf@@H@Z 000000014009a16c     Certificate-0fe854.o
 0002:00039384       $cppxdata$??0CertExten@@QEAA@XZ 000000014009a384     Certificate-0fe854.o
 0002:000393ac       $stateUnwindMap$??0CertExten@@QEAA@XZ 000000014009a3ac     Certificate-0fe854.o
 0002:0003942c       $ip2state$??0CertExten@@QEAA@XZ 000000014009a42c     Certificate-0fe854.o
 0002:00039540       $cppxdata$?parseCertMsg@CertMesg@@QEAAIAEBVCharBuf@@AEAVTlsMain@@@Z 000000014009a540     CertMesg-6e1947.o
 0002:00039568       $stateUnwindMap$?parseCertMsg@CertMesg@@QEAAIAEBVCharBuf@@AEAVTlsMain@@@Z 000000014009a568     CertMesg-6e1947.o
 0002:00039588       $ip2state$?parseCertMsg@CertMesg@@QEAAIAEBVCharBuf@@AEAVTlsMain@@@Z 000000014009a588     CertMesg-6e1947.o
 0002:00039618       $cppxdata$??0ClientHello@@QEAA@XZ 000000014009a618     ClientHello-415e8d.o
 0002:00039640       $stateUnwindMap$??0ClientHello@@QEAA@XZ 000000014009a640     ClientHello-415e8d.o
 0002:00039648       $ip2state$??0ClientHello@@QEAA@XZ 000000014009a648     ClientHello-415e8d.o
 0002:00039698       $cppxdata$??0ClientHello@@QEAA@AEBV0@@Z 000000014009a698     ClientHello-415e8d.o
 0002:000396c0       $stateUnwindMap$??0ClientHello@@QEAA@AEBV0@@Z 000000014009a6c0     ClientHello-415e8d.o
 0002:000396d0       $ip2state$??0ClientHello@@QEAA@AEBV0@@Z 000000014009a6d0     ClientHello-415e8d.o
 0002:000397b4       $cppxdata$?parseBuffer@ClientHello@@QEAAIAEBVCharBuf@@AEAVTlsMain@@AEAVEncryptTls@@@Z 000000014009a7b4     ClientHello-415e8d.o
 0002:000397dc       $stateUnwindMap$?parseBuffer@ClientHello@@QEAAIAEBVCharBuf@@AEAVTlsMain@@AEAVEncryptTls@@@Z 000000014009a7dc     ClientHello-415e8d.o
 0002:0003980c       $tryMap$?parseBuffer@ClientHello@@QEAAIAEBVCharBuf@@AEAVTlsMain@@AEAVEncryptTls@@@Z 000000014009a80c     ClientHello-415e8d.o
 0002:00039820       $handlerMap$0$?parseBuffer@ClientHello@@QEAAIAEBVCharBuf@@AEAVTlsMain@@AEAVEncryptTls@@@Z 000000014009a820     ClientHello-415e8d.o
 0002:00039848       $ip2state$?parseBuffer@ClientHello@@QEAAIAEBVCharBuf@@AEAVTlsMain@@AEAVEncryptTls@@@Z 000000014009a848     ClientHello-415e8d.o
 0002:000399c4       $cppxdata$?makeHelloBuf@ClientHello@@QEAAXAEAVCharBuf@@AEAVTlsMain@@AEAVEncryptTls@@@Z 000000014009a9c4     ClientHello-415e8d.o
 0002:000399ec       $stateUnwindMap$?makeHelloBuf@ClientHello@@QEAAXAEAVCharBuf@@AEAVTlsMain@@AEAVEncryptTls@@@Z 000000014009a9ec     ClientHello-415e8d.o
 0002:00039a3c       $ip2state$?makeHelloBuf@ClientHello@@QEAAXAEAVCharBuf@@AEAVTlsMain@@AEAVEncryptTls@@@Z 000000014009aa3c     ClientHello-415e8d.o
 0002:00039b1c       $cppxdata$?processData@ClientTls@@QEAAHXZ 000000014009ab1c     ClientTls-3b5e1f.o
 0002:00039b44       $stateUnwindMap$?processData@ClientTls@@QEAAHXZ 000000014009ab44     ClientTls-3b5e1f.o
 0002:00039b54       $tryMap$?processData@ClientTls@@QEAAHXZ 000000014009ab54     ClientTls-3b5e1f.o
 0002:00039b68       $handlerMap$0$?processData@ClientTls@@QEAAHXZ 000000014009ab68     ClientTls-3b5e1f.o
 0002:00039b90       $ip2state$?processData@ClientTls@@QEAAHXZ 000000014009ab90     ClientTls-3b5e1f.o
 0002:00039c08       $cppxdata$?readOneTag@DerEncode@@QEAAHAEBVCharBuf@@HAEA_NAEAV2@H@Z 000000014009ac08     DerEncode-e446e5.o
 0002:00039c30       $stateUnwindMap$?readOneTag@DerEncode@@QEAAHAEBVCharBuf@@HAEA_NAEAV2@H@Z 000000014009ac30     DerEncode-e446e5.o
 0002:00039c40       $ip2state$?readOneTag@DerEncode@@QEAAHAEBVCharBuf@@HAEA_NAEAV2@H@Z 000000014009ac40     DerEncode-e446e5.o
 0002:00039cac       $cppxdata$?showTag@DerEncode@@QEAAXIIAEAVCharBuf@@@Z 000000014009acac     DerEncode-e446e5.o
 0002:00039cd4       $stateUnwindMap$?showTag@DerEncode@@QEAAXIIAEAVCharBuf@@@Z 000000014009acd4     DerEncode-e446e5.o
 0002:00039ce4       $ip2state$?showTag@DerEncode@@QEAAXIIAEAVCharBuf@@@Z 000000014009ace4     DerEncode-e446e5.o
 0002:00039d88       $cppxdata$?readAllTags@DerEncodeLoop@@QEAAHAEBVCharBuf@@HAEAV2@H@Z 000000014009ad88     DerEncodeLoop-7183df.o
 0002:00039db0       $stateUnwindMap$?readAllTags@DerEncodeLoop@@QEAAHAEBVCharBuf@@HAEAV2@H@Z 000000014009adb0     DerEncodeLoop-7183df.o
 0002:00039dd0       $ip2state$?readAllTags@DerEncodeLoop@@QEAAHAEBVCharBuf@@HAEAV2@H@Z 000000014009add0     DerEncodeLoop-7183df.o
 0002:00039ee4       $cppxdata$?makeFromCharBuf@DerObjID@@SAXAEBVCharBuf@@AEAV2@@Z 000000014009aee4     DerObjID-3ab8de.o
 0002:00039f0c       $stateUnwindMap$?makeFromCharBuf@DerObjID@@SAXAEBVCharBuf@@AEAV2@@Z 000000014009af0c     DerObjID-3ab8de.o
 0002:00039f4c       $ip2state$?makeFromCharBuf@DerObjID@@SAXAEBVCharBuf@@AEAV2@@Z 000000014009af4c     DerObjID-3ab8de.o
 0002:00039ff4       $cppxdata$?expand@EncryptTls@@AEAAXAEAVCharBuf@@AEBV2@1@Z 000000014009aff4     EncryptTls-885411.o
 0002:0003a01c       $stateUnwindMap$?expand@EncryptTls@@AEAAXAEAVCharBuf@@AEBV2@1@Z 000000014009b01c     EncryptTls-885411.o
 0002:0003a02c       $ip2state$?expand@EncryptTls@@AEAAXAEAVCharBuf@@AEBV2@1@Z 000000014009b02c     EncryptTls-885411.o
 0002:0003a0bc       $cppxdata$?hkdfExpandLabel@EncryptTls@@AEAAXAEAVCharBuf@@AEBV2@11H@Z 000000014009b0bc     EncryptTls-885411.o
 0002:0003a0e4       $stateUnwindMap$?hkdfExpandLabel@EncryptTls@@AEAAXAEAVCharBuf@@AEBV2@11H@Z 000000014009b0e4     EncryptTls-885411.o
 0002:0003a104       $ip2state$?hkdfExpandLabel@EncryptTls@@AEAAXAEAVCharBuf@@AEBV2@11H@Z 000000014009b104     EncryptTls-885411.o
 0002:0003a178       $cppxdata$?deriveSecret@EncryptTls@@AEAAXAEAVCharBuf@@AEBV2@11@Z 000000014009b178     EncryptTls-885411.o
 0002:0003a1a0       $stateUnwindMap$?deriveSecret@EncryptTls@@AEAAXAEAVCharBuf@@AEBV2@11@Z 000000014009b1a0     EncryptTls-885411.o
 0002:0003a1b0       $ip2state$?deriveSecret@EncryptTls@@AEAAXAEAVCharBuf@@AEBV2@11@Z 000000014009b1b0     EncryptTls-885411.o
 0002:0003a584       $cppxdata$?setHandshakeKeys@EncryptTls@@QEAAXAEAVTlsMain@@AEAVInteger@@@Z 000000014009b584     EncryptTls-885411.o
 0002:0003a5ac       $stateUnwindMap$?setHandshakeKeys@EncryptTls@@QEAAXAEAVTlsMain@@AEAVInteger@@@Z 000000014009b5ac     EncryptTls-885411.o
 0002:0003a714       $tryMap$?setHandshakeKeys@EncryptTls@@QEAAXAEAVTlsMain@@AEAVInteger@@@Z 000000014009b714     EncryptTls-885411.o
 0002:0003a728       $handlerMap$0$?setHandshakeKeys@EncryptTls@@QEAAXAEAVTlsMain@@AEAVInteger@@@Z 000000014009b728     EncryptTls-885411.o
 0002:0003a750       $ip2state$?setHandshakeKeys@EncryptTls@@QEAAXAEAVTlsMain@@AEAVInteger@@@Z 000000014009b750     EncryptTls-885411.o
 0002:0003aa20       $cppxdata$?makeMsgTranscript2@EncryptTls@@AEAAXAEAVCharBuf@@AEAVTlsMain@@@Z 000000014009ba20     EncryptTls-885411.o
 0002:0003aa48       $stateUnwindMap$?makeMsgTranscript2@EncryptTls@@AEAAXAEAVCharBuf@@AEAVTlsMain@@@Z 000000014009ba48     EncryptTls-885411.o
 0002:0003aad8       $ip2state$?makeMsgTranscript2@EncryptTls@@AEAAXAEAVCharBuf@@AEAVTlsMain@@@Z 000000014009bad8     EncryptTls-885411.o
 0002:0003ad84       $cppxdata$?setAppDataKeys@EncryptTls@@QEAAXAEAVTlsMain@@@Z 000000014009bd84     EncryptTls-885411.o
 0002:0003adac       $stateUnwindMap$?setAppDataKeys@EncryptTls@@QEAAXAEAVTlsMain@@@Z 000000014009bdac     EncryptTls-885411.o
 0002:0003ae9c       $tryMap$?setAppDataKeys@EncryptTls@@QEAAXAEAVTlsMain@@@Z 000000014009be9c     EncryptTls-885411.o
 0002:0003aeb0       $handlerMap$0$?setAppDataKeys@EncryptTls@@QEAAXAEAVTlsMain@@@Z 000000014009beb0     EncryptTls-885411.o
 0002:0003aed8       $ip2state$?setAppDataKeys@EncryptTls@@QEAAXAEAVTlsMain@@@Z 000000014009bed8     EncryptTls-885411.o
 0002:0003b08c       $cppxdata$?setDiffHelmOnClient@EncryptTls@@QEAAXAEAVTlsMain@@AEAVInteger@@@Z 000000014009c08c     EncryptTls-885411.o
 0002:0003b0b4       $stateUnwindMap$?setDiffHelmOnClient@EncryptTls@@QEAAXAEAVTlsMain@@AEAVInteger@@@Z 000000014009c0b4     EncryptTls-885411.o
 0002:0003b0cc       $ip2state$?setDiffHelmOnClient@EncryptTls@@QEAAXAEAVTlsMain@@AEAVInteger@@@Z 000000014009c0cc     EncryptTls-885411.o
 0002:0003b160       $cppxdata$?setDiffHelmOnServer@EncryptTls@@QEAAXAEAVTlsMain@@AEAVInteger@@@Z 000000014009c160     EncryptTls-885411.o
 0002:0003b188       $stateUnwindMap$?setDiffHelmOnServer@EncryptTls@@QEAAXAEAVTlsMain@@AEAVInteger@@@Z 000000014009c188     EncryptTls-885411.o
 0002:0003b1a0       $ip2state$?setDiffHelmOnServer@EncryptTls@@QEAAXAEAVTlsMain@@AEAVInteger@@@Z 000000014009c1a0     EncryptTls-885411.o
 0002:0003b28c       $cppxdata$?srvWriteDecryptCharBuf@EncryptTls@@QEAAXAEBVCharBuf@@AEAV2@@Z 000000014009c28c     EncryptTls-885411.o
 0002:0003b2b4       $stateUnwindMap$?srvWriteDecryptCharBuf@EncryptTls@@QEAAXAEBVCharBuf@@AEAV2@@Z 000000014009c2b4     EncryptTls-885411.o
 0002:0003b2e4       $ip2state$?srvWriteDecryptCharBuf@EncryptTls@@QEAAXAEBVCharBuf@@AEAV2@@Z 000000014009c2e4     EncryptTls-885411.o
 0002:0003b3e0       $cppxdata$?clWriteDecryptCharBuf@EncryptTls@@QEAAXAEBVCharBuf@@AEAV2@@Z 000000014009c3e0     EncryptTls-885411.o
 0002:0003b408       $stateUnwindMap$?clWriteDecryptCharBuf@EncryptTls@@QEAAXAEBVCharBuf@@AEAV2@@Z 000000014009c408     EncryptTls-885411.o
 0002:0003b438       $ip2state$?clWriteDecryptCharBuf@EncryptTls@@QEAAXAEBVCharBuf@@AEAV2@@Z 000000014009c438     EncryptTls-885411.o
 0002:0003b544       $cppxdata$?setFromMsg@ExtenList@@QEAAIAEBVCharBuf@@HAEAVTlsMain@@_NAEAVEncryptTls@@@Z 000000014009c544     ExtenList-adabb6.o
 0002:0003b56c       $stateUnwindMap$?setFromMsg@ExtenList@@QEAAIAEBVCharBuf@@HAEAVTlsMain@@_NAEAVEncryptTls@@@Z 000000014009c56c     ExtenList-adabb6.o
 0002:0003b59c       $tryMap$?setFromMsg@ExtenList@@QEAAIAEBVCharBuf@@HAEAVTlsMain@@_NAEAVEncryptTls@@@Z 000000014009c59c     ExtenList-adabb6.o
 0002:0003b5b0       $handlerMap$0$?setFromMsg@ExtenList@@QEAAIAEBVCharBuf@@HAEAVTlsMain@@_NAEAVEncryptTls@@@Z 000000014009c5b0     ExtenList-adabb6.o
 0002:0003b5d8       $ip2state$?setFromMsg@ExtenList@@QEAAIAEBVCharBuf@@HAEAVTlsMain@@_NAEAVEncryptTls@@@Z 000000014009c5d8     ExtenList-adabb6.o
 0002:0003b6c0       $cppxdata$?makeClHelloBuf@ExtenList@@QEAA_NAEAVCharBuf@@AEAVTlsMain@@AEAVEncryptTls@@@Z 000000014009c6c0     ExtenList-adabb6.o
 0002:0003b6e8       $stateUnwindMap$?makeClHelloBuf@ExtenList@@QEAA_NAEAVCharBuf@@AEAVTlsMain@@AEAVEncryptTls@@@Z 000000014009c6e8     ExtenList-adabb6.o
 0002:0003b700       $ip2state$?makeClHelloBuf@ExtenList@@QEAA_NAEAVCharBuf@@AEAVTlsMain@@AEAVEncryptTls@@@Z 000000014009c700     ExtenList-adabb6.o
 0002:0003b774       $cppxdata$?makeSrvHelloBuf@ExtenList@@QEAA_NAEAVCharBuf@@AEAVTlsMain@@AEAVEncryptTls@@@Z 000000014009c774     ExtenList-adabb6.o
 0002:0003b79c       $stateUnwindMap$?makeSrvHelloBuf@ExtenList@@QEAA_NAEAVCharBuf@@AEAVTlsMain@@AEAVEncryptTls@@@Z 000000014009c79c     ExtenList-adabb6.o
 0002:0003b7a4       $ip2state$?makeSrvHelloBuf@ExtenList@@QEAA_NAEAVCharBuf@@AEAVTlsMain@@AEAVEncryptTls@@@Z 000000014009c7a4     ExtenList-adabb6.o
 0002:0003b80c       $cppxdata$?serverName@Extension@@QEAAIAEBVCharBuf@@AEAVTlsMain@@@Z 000000014009c80c     Extension-450c09.o
 0002:0003b834       $stateUnwindMap$?serverName@Extension@@QEAAIAEBVCharBuf@@AEAVTlsMain@@@Z 000000014009c834     Extension-450c09.o
 0002:0003b844       $ip2state$?serverName@Extension@@QEAAIAEBVCharBuf@@AEAVTlsMain@@@Z 000000014009c844     Extension-450c09.o
 0002:0003b8ec       $cppxdata$?keyShare@Extension@@QEAAIAEBVCharBuf@@AEAVTlsMain@@_NAEAVEncryptTls@@@Z 000000014009c8ec     Extension-450c09.o
 0002:0003b914       $stateUnwindMap$?keyShare@Extension@@QEAAIAEBVCharBuf@@AEAVTlsMain@@_NAEAVEncryptTls@@@Z 000000014009c914     Extension-450c09.o
 0002:0003b91c       $ip2state$?keyShare@Extension@@QEAAIAEBVCharBuf@@AEAVTlsMain@@_NAEAVEncryptTls@@@Z 000000014009c91c     Extension-450c09.o
 0002:0003b9c0       $cppxdata$??0HandshakeCl@@QEAA@XZ 000000014009c9c0     HandshakeCl-05007d.o
 0002:0003b9e8       $stateUnwindMap$??0HandshakeCl@@QEAA@XZ 000000014009c9e8     HandshakeCl-05007d.o
 0002:0003ba18       $ip2state$??0HandshakeCl@@QEAA@XZ 000000014009ca18     HandshakeCl-05007d.o
 0002:0003bad8       $cppxdata$??0HandshakeCl@@QEAA@AEBV0@@Z 000000014009cad8     HandshakeCl-05007d.o
 0002:0003bb00       $stateUnwindMap$??0HandshakeCl@@QEAA@AEBV0@@Z 000000014009cb00     HandshakeCl-05007d.o
 0002:0003bb30       $ip2state$??0HandshakeCl@@QEAA@AEBV0@@Z 000000014009cb30     HandshakeCl-05007d.o
 0002:0003bbd0       $cppxdata$?parseMessage@HandshakeCl@@AEAAIAEAVTlsMain@@AEAEAEAVEncryptTls@@@Z 000000014009cbd0     HandshakeCl-05007d.o
 0002:0003bbf8       $stateUnwindMap$?parseMessage@HandshakeCl@@AEAAIAEAVTlsMain@@AEAEAEAVEncryptTls@@@Z 000000014009cbf8     HandshakeCl-05007d.o
 0002:0003bc08       $ip2state$?parseMessage@HandshakeCl@@AEAAIAEAVTlsMain@@AEAEAEAVEncryptTls@@@Z 000000014009cc08     HandshakeCl-05007d.o
 0002:0003bc88       $cppxdata$?makeClHelloBuf@HandshakeCl@@QEAAXAEAVCharBuf@@AEAVTlsMain@@AEAVEncryptTls@@@Z 000000014009cc88     HandshakeCl-05007d.o
 0002:0003bcb0       $stateUnwindMap$?makeClHelloBuf@HandshakeCl@@QEAAXAEAVCharBuf@@AEAVTlsMain@@AEAVEncryptTls@@@Z 000000014009ccb0     HandshakeCl-05007d.o
 0002:0003bcc0       $ip2state$?makeClHelloBuf@HandshakeCl@@QEAAXAEAVCharBuf@@AEAVTlsMain@@AEAVEncryptTls@@@Z 000000014009ccc0     HandshakeCl-05007d.o
 0002:0003bd40       $cppxdata$??0HandshakeSrv@@QEAA@XZ 000000014009cd40     HandshakeSrv-3da1c0.o
 0002:0003bd68       $stateUnwindMap$??0HandshakeSrv@@QEAA@XZ 000000014009cd68     HandshakeSrv-3da1c0.o
 0002:0003bd98       $ip2state$??0HandshakeSrv@@QEAA@XZ 000000014009cd98     HandshakeSrv-3da1c0.o
 0002:0003be58       $cppxdata$??0HandshakeSrv@@QEAA@AEBV0@@Z 000000014009ce58     HandshakeSrv-3da1c0.o
 0002:0003be80       $stateUnwindMap$??0HandshakeSrv@@QEAA@AEBV0@@Z 000000014009ce80     HandshakeSrv-3da1c0.o
 0002:0003beb0       $ip2state$??0HandshakeSrv@@QEAA@AEBV0@@Z 000000014009ceb0     HandshakeSrv-3da1c0.o
 0002:0003bf68       $cppxdata$?makeSrvHelloBuf@HandshakeSrv@@QEAAXAEAVCharBuf@@AEAVTlsMain@@AEAVEncryptTls@@@Z 000000014009cf68     HandshakeSrv-3da1c0.o
 0002:0003bf90       $stateUnwindMap$?makeSrvHelloBuf@HandshakeSrv@@QEAAXAEAVCharBuf@@AEAVTlsMain@@AEAVEncryptTls@@@Z 000000014009cf90     HandshakeSrv-3da1c0.o
 0002:0003bfa0       $ip2state$?makeSrvHelloBuf@HandshakeSrv@@QEAAXAEAVCharBuf@@AEAVTlsMain@@AEAVEncryptTls@@@Z 000000014009cfa0     HandshakeSrv-3da1c0.o
 0002:0003bfe8       $cppxdata$??1NetClient@@QEAA@XZ 000000014009cfe8     NetClient-b9e198.o
 0002:0003c010       $stateUnwindMap$??1NetClient@@QEAA@XZ 000000014009d010     NetClient-b9e198.o
 0002:0003c018       $ip2state$??1NetClient@@QEAA@XZ 000000014009d018     NetClient-b9e198.o
 0002:0003c0a8       $cppxdata$??0Server@@QEAA@AEBV0@@Z 000000014009d0a8     Server-368295.o
 0002:0003c0d0       $stateUnwindMap$??0Server@@QEAA@AEBV0@@Z 000000014009d0d0     Server-368295.o
 0002:0003c0d8       $ip2state$??0Server@@QEAA@AEBV0@@Z 000000014009d0d8     Server-368295.o
 0002:0003c12c       $cppxdata$??0ServerHello@@QEAA@XZ 000000014009d12c     ServerHello-562aa7.o
 0002:0003c154       $stateUnwindMap$??0ServerHello@@QEAA@XZ 000000014009d154     ServerHello-562aa7.o
 0002:0003c15c       $ip2state$??0ServerHello@@QEAA@XZ 000000014009d15c     ServerHello-562aa7.o
 0002:0003c1ac       $cppxdata$??0ServerHello@@QEAA@AEBV0@@Z 000000014009d1ac     ServerHello-562aa7.o
 0002:0003c1d4       $stateUnwindMap$??0ServerHello@@QEAA@AEBV0@@Z 000000014009d1d4     ServerHello-562aa7.o
 0002:0003c1e4       $ip2state$??0ServerHello@@QEAA@AEBV0@@Z 000000014009d1e4     ServerHello-562aa7.o
 0002:0003c2c8       $cppxdata$?parseBuffer@ServerHello@@QEAAIAEBVCharBuf@@AEAVTlsMain@@AEAVEncryptTls@@@Z 000000014009d2c8     ServerHello-562aa7.o
 0002:0003c2f0       $stateUnwindMap$?parseBuffer@ServerHello@@QEAAIAEBVCharBuf@@AEAVTlsMain@@AEAVEncryptTls@@@Z 000000014009d2f0     ServerHello-562aa7.o
 0002:0003c320       $tryMap$?parseBuffer@ServerHello@@QEAAIAEBVCharBuf@@AEAVTlsMain@@AEAVEncryptTls@@@Z 000000014009d320     ServerHello-562aa7.o
 0002:0003c334       $handlerMap$0$?parseBuffer@ServerHello@@QEAAIAEBVCharBuf@@AEAVTlsMain@@AEAVEncryptTls@@@Z 000000014009d334     ServerHello-562aa7.o
 0002:0003c35c       $ip2state$?parseBuffer@ServerHello@@QEAAIAEBVCharBuf@@AEAVTlsMain@@AEAVEncryptTls@@@Z 000000014009d35c     ServerHello-562aa7.o
 0002:0003c484       $cppxdata$?makeHelloBuf@ServerHello@@QEAAXAEAVCharBuf@@AEAVTlsMain@@AEAVEncryptTls@@@Z 000000014009d484     ServerHello-562aa7.o
 0002:0003c4ac       $stateUnwindMap$?makeHelloBuf@ServerHello@@QEAAXAEAVCharBuf@@AEAVTlsMain@@AEAVEncryptTls@@@Z 000000014009d4ac     ServerHello-562aa7.o
 0002:0003c4ec       $ip2state$?makeHelloBuf@ServerHello@@QEAAXAEAVCharBuf@@AEAVTlsMain@@AEAVEncryptTls@@@Z 000000014009d4ec     ServerHello-562aa7.o
 0002:0003c5ac       $cppxdata$??0ServerTls@@QEAA@AEBV0@@Z 000000014009d5ac     ServerTls-d1efc3.o
 0002:0003c5d4       $stateUnwindMap$??0ServerTls@@QEAA@AEBV0@@Z 000000014009d5d4     ServerTls-d1efc3.o
 0002:0003c5dc       $ip2state$??0ServerTls@@QEAA@AEBV0@@Z 000000014009d5dc     ServerTls-d1efc3.o
 0002:0003c65c       $cppxdata$?mainLoop@ServerTls@@QEAAXXZ 000000014009d65c     ServerTls-d1efc3.o
 0002:0003c684       $stateUnwindMap$?mainLoop@ServerTls@@QEAAXXZ 000000014009d684     ServerTls-d1efc3.o
 0002:0003c69c       $ip2state$?mainLoop@ServerTls@@QEAAXXZ 000000014009d69c     ServerTls-d1efc3.o
 0002:0003c6ec       $cppxdata$??1SocketGetAddress@@QEAA@XZ 000000014009d6ec     SocketsApiWin-91ffcb.o
 0002:0003c714       $stateUnwindMap$??1SocketGetAddress@@QEAA@XZ 000000014009d714     SocketsApiWin-91ffcb.o
 0002:0003c71c       $ip2state$??1SocketGetAddress@@QEAA@XZ 000000014009d71c     SocketsApiWin-91ffcb.o
 0002:0003c770       $cppxdata$?getAddressInfo@SocketGetAddress@@QEAA_NAEBVCharBuf@@0_N1@Z 000000014009d770     SocketsApiWin-91ffcb.o
 0002:0003c798       $stateUnwindMap$?getAddressInfo@SocketGetAddress@@QEAA_NAEBVCharBuf@@0_N1@Z 000000014009d798     SocketsApiWin-91ffcb.o
 0002:0003c7a8       $ip2state$?getAddressInfo@SocketGetAddress@@QEAA_NAEBVCharBuf@@0_N1@Z 000000014009d7a8     SocketsApiWin-91ffcb.o
 0002:0003c804       $cppxdata$?getAddressBuf@SocketGetAddress@@SA_NAEAVCharBuf@@PEAUsockaddr@@@Z 000000014009d804     SocketsApiWin-91ffcb.o
 0002:0003c82c       $stateUnwindMap$?getAddressBuf@SocketGetAddress@@SA_NAEAVCharBuf@@PEAUsockaddr@@@Z 000000014009d82c     SocketsApiWin-91ffcb.o
 0002:0003c83c       $ip2state$?getAddressBuf@SocketGetAddress@@SA_NAEAVCharBuf@@PEAUsockaddr@@@Z 000000014009d83c     SocketsApiWin-91ffcb.o
 0002:0003c88c       $cppxdata$??1SocketsApi@@QEAA@XZ 000000014009d88c     SocketsApiWin-91ffcb.o
 0002:0003c8b4       $stateUnwindMap$??1SocketsApi@@QEAA@XZ 000000014009d8b4     SocketsApiWin-91ffcb.o
 0002:0003c8bc       $ip2state$??1SocketsApi@@QEAA@XZ 000000014009d8bc     SocketsApiWin-91ffcb.o
 0002:0003c958       $cppxdata$?connectClient@SocketsApi@@SA_KAEBVCharBuf@@0@Z 000000014009d958     SocketsApiWin-91ffcb.o
 0002:0003c980       $stateUnwindMap$?connectClient@SocketsApi@@SA_KAEBVCharBuf@@0@Z 000000014009d980     SocketsApiWin-91ffcb.o
 0002:0003c9a0       $ip2state$?connectClient@SocketsApi@@SA_KAEBVCharBuf@@0@Z 000000014009d9a0     SocketsApiWin-91ffcb.o
 0002:0003ca54       $cppxdata$?openServer@SocketsApi@@SA_KPEBD0_N@Z 000000014009da54     SocketsApiWin-91ffcb.o
 0002:0003ca7c       $stateUnwindMap$?openServer@SocketsApi@@SA_KPEBD0_N@Z 000000014009da7c     SocketsApiWin-91ffcb.o
 0002:0003caac       $ip2state$?openServer@SocketsApi@@SA_KPEBD0_N@Z 000000014009daac     SocketsApiWin-91ffcb.o
 0002:0003cb34       $cppxdata$?acceptConnect@SocketsApi@@SA_K_KAEAVCharBuf@@@Z 000000014009db34     SocketsApiWin-91ffcb.o
 0002:0003cb5c       $stateUnwindMap$?acceptConnect@SocketsApi@@SA_K_KAEAVCharBuf@@@Z 000000014009db5c     SocketsApiWin-91ffcb.o
 0002:0003cb6c       $ip2state$?acceptConnect@SocketsApi@@SA_K_KAEAVCharBuf@@@Z 000000014009db6c     SocketsApiWin-91ffcb.o
 0002:0003cbf4       $cppxdata$?sendCharBuf@SocketsApi@@SAH_KAEBVCharBuf@@@Z 000000014009dbf4     SocketsApiWin-91ffcb.o
 0002:0003cc1c       $stateUnwindMap$?sendCharBuf@SocketsApi@@SAH_KAEBVCharBuf@@@Z 000000014009dc1c     SocketsApiWin-91ffcb.o
 0002:0003cc34       $tryMap$?sendCharBuf@SocketsApi@@SAH_KAEBVCharBuf@@@Z 000000014009dc34     SocketsApiWin-91ffcb.o
 0002:0003cc48       $handlerMap$0$?sendCharBuf@SocketsApi@@SAH_KAEBVCharBuf@@@Z 000000014009dc48     SocketsApiWin-91ffcb.o
 0002:0003cc70       $ip2state$?sendCharBuf@SocketsApi@@SAH_KAEBVCharBuf@@@Z 000000014009dc70     SocketsApiWin-91ffcb.o
 0002:0003ccdc       $cppxdata$?receiveCharBuf@SocketsApi@@SA_N_KAEAVCharBuf@@@Z 000000014009dcdc     SocketsApiWin-91ffcb.o
 0002:0003cd04       $stateUnwindMap$?receiveCharBuf@SocketsApi@@SA_N_KAEAVCharBuf@@@Z 000000014009dd04     SocketsApiWin-91ffcb.o
 0002:0003cd14       $tryMap$?receiveCharBuf@SocketsApi@@SA_N_KAEAVCharBuf@@@Z 000000014009dd14     SocketsApiWin-91ffcb.o
 0002:0003cd28       $handlerMap$0$?receiveCharBuf@SocketsApi@@SA_N_KAEAVCharBuf@@@Z 000000014009dd28     SocketsApiWin-91ffcb.o
 0002:0003cd3c       $ip2state$?receiveCharBuf@SocketsApi@@SA_N_KAEAVCharBuf@@@Z 000000014009dd3c     SocketsApiWin-91ffcb.o
 0002:0003cd94       $cppxdata$??1SrvClient@@UEAA@XZ 000000014009dd94     SrvClient-4b1a7e.o
 0002:0003cdbc       $stateUnwindMap$??1SrvClient@@UEAA@XZ 000000014009ddbc     SrvClient-4b1a7e.o
 0002:0003cdc4       $ip2state$??1SrvClient@@UEAA@XZ 000000014009ddc4     SrvClient-4b1a7e.o
 0002:0003ce18       $cppxdata$??_GSrvClient@@UEAAPEAXI@Z 000000014009de18     SrvClient-4b1a7e.o
 0002:0003ce40       $stateUnwindMap$??_GSrvClient@@UEAAPEAXI@Z 000000014009de40     SrvClient-4b1a7e.o
 0002:0003ce48       $ip2state$??_GSrvClient@@UEAAPEAXI@Z 000000014009de48     SrvClient-4b1a7e.o
 0002:0003ce98       $cppxdata$??0SrvClTls@@IEAA@XZ 000000014009de98     SrvClTls-9ff770.o
 0002:0003cec0       $stateUnwindMap$??0SrvClTls@@IEAA@XZ 000000014009dec0     SrvClTls-9ff770.o
 0002:0003ced8       $ip2state$??0SrvClTls@@IEAA@XZ 000000014009ded8     SrvClTls-9ff770.o
 0002:0003cf3c       $cppxdata$??0SrvClTls@@QEAA@_K@Z 000000014009df3c     SrvClTls-9ff770.o
 0002:0003cf64       $stateUnwindMap$??0SrvClTls@@QEAA@_K@Z 000000014009df64     SrvClTls-9ff770.o
 0002:0003cf7c       $ip2state$??0SrvClTls@@QEAA@_K@Z 000000014009df7c     SrvClTls-9ff770.o
 0002:0003cfc4       $cppxdata$??1SrvClTls@@UEAA@XZ 000000014009dfc4     SrvClTls-9ff770.o
 0002:0003cfec       $stateUnwindMap$??1SrvClTls@@UEAA@XZ 000000014009dfec     SrvClTls-9ff770.o
 0002:0003cff4       $ip2state$??1SrvClTls@@UEAA@XZ 000000014009dff4     SrvClTls-9ff770.o
 0002:0003d07c       $cppxdata$?processData@SrvClTls@@UEAAHXZ 000000014009e07c     SrvClTls-9ff770.o
 0002:0003d0a4       $stateUnwindMap$?processData@SrvClTls@@UEAAHXZ 000000014009e0a4     SrvClTls-9ff770.o
 0002:0003d0d4       $tryMap$?processData@SrvClTls@@UEAAHXZ 000000014009e0d4     SrvClTls-9ff770.o
 0002:0003d0e8       $handlerMap$0$?processData@SrvClTls@@UEAAHXZ 000000014009e0e8     SrvClTls-9ff770.o
 0002:0003d110       $ip2state$?processData@SrvClTls@@UEAAHXZ 000000014009e110     SrvClTls-9ff770.o
 0002:0003d2b4       $cppxdata$??0TlsMain@@QEAA@XZ 000000014009e2b4     SrvClTls-9ff770.o
 0002:0003d2dc       $stateUnwindMap$??0TlsMain@@QEAA@XZ 000000014009e2dc     SrvClTls-9ff770.o
 0002:0003d3b4       $ip2state$??0TlsMain@@QEAA@XZ 000000014009e3b4     SrvClTls-9ff770.o
 0002:0003d534       $cppxdata$??0TlsMainSrv@@QEAA@XZ 000000014009e534     SrvClTls-9ff770.o
 0002:0003d55c       $stateUnwindMap$??0TlsMainSrv@@QEAA@XZ 000000014009e55c     SrvClTls-9ff770.o
 0002:0003d5ac       $ip2state$??0TlsMainSrv@@QEAA@XZ 000000014009e5ac     SrvClTls-9ff770.o
 0002:0003d638       $cppxdata$??_GSrvClTls@@UEAAPEAXI@Z 000000014009e638     SrvClTls-9ff770.o
 0002:0003d660       $stateUnwindMap$??_GSrvClTls@@UEAAPEAXI@Z 000000014009e660     SrvClTls-9ff770.o
 0002:0003d668       $ip2state$??_GSrvClTls@@UEAAPEAXI@Z 000000014009e668     SrvClTls-9ff770.o
 0002:0003d6ec       $cppxdata$??0EncryptTls@@QEAA@XZ 000000014009e6ec     SrvClTls-9ff770.o
 0002:0003d714       $stateUnwindMap$??0EncryptTls@@QEAA@XZ 000000014009e714     SrvClTls-9ff770.o
 0002:0003d74c       $ip2state$??0EncryptTls@@QEAA@XZ 000000014009e74c     SrvClTls-9ff770.o
 0002:0003d7c4       $cppxdata$?processOutgoing@TlsMainCl@@QEAAHXZ 000000014009e7c4     TlsMainCl-f005f0.o
 0002:0003d7ec       $stateUnwindMap$?processOutgoing@TlsMainCl@@QEAAHXZ 000000014009e7ec     TlsMainCl-f005f0.o
 0002:0003d7fc       $ip2state$?processOutgoing@TlsMainCl@@QEAAHXZ 000000014009e7fc     TlsMainCl-f005f0.o
 0002:0003d8a8       $cppxdata$?processIncoming@TlsMainCl@@QEAAHXZ 000000014009e8a8     TlsMainCl-f005f0.o
 0002:0003d8d0       $stateUnwindMap$?processIncoming@TlsMainCl@@QEAAHXZ 000000014009e8d0     TlsMainCl-f005f0.o
 0002:0003d8f0       $ip2state$?processIncoming@TlsMainCl@@QEAAHXZ 000000014009e8f0     TlsMainCl-f005f0.o
 0002:0003d984       $cppxdata$?processHandshake@TlsMainCl@@QEAAHAEBVCharBuf@@@Z 000000014009e984     TlsMainCl-f005f0.o
 0002:0003d9ac       $stateUnwindMap$?processHandshake@TlsMainCl@@QEAAHAEBVCharBuf@@@Z 000000014009e9ac     TlsMainCl-f005f0.o
 0002:0003d9bc       $ip2state$?processHandshake@TlsMainCl@@QEAAHAEBVCharBuf@@@Z 000000014009e9bc     TlsMainCl-f005f0.o
 0002:0003da1c       $cppxdata$?processAppData@TlsMainCl@@QEAAHAEBVCharBuf@@@Z 000000014009ea1c     TlsMainCl-f005f0.o
 0002:0003da44       $stateUnwindMap$?processAppData@TlsMainCl@@QEAAHAEBVCharBuf@@@Z 000000014009ea44     TlsMainCl-f005f0.o
 0002:0003da54       $ip2state$?processAppData@TlsMainCl@@QEAAHAEBVCharBuf@@@Z 000000014009ea54     TlsMainCl-f005f0.o
 0002:0003dad4       $cppxdata$?sendTestVecFinished@TlsMainCl@@QEAA_NXZ 000000014009ead4     TlsMainCl-f005f0.o
 0002:0003dafc       $stateUnwindMap$?sendTestVecFinished@TlsMainCl@@QEAA_NXZ 000000014009eafc     TlsMainCl-f005f0.o
 0002:0003db2c       $ip2state$?sendTestVecFinished@TlsMainCl@@QEAA_NXZ 000000014009eb2c     TlsMainCl-f005f0.o
 0002:0003dccc       $cppxdata$?startTestVecHandshake@TlsMainCl@@QEAA_NAEBVCharBuf@@0@Z 000000014009eccc     TlsMainCl-f005f0.o
 0002:0003dcf4       $stateUnwindMap$?startTestVecHandshake@TlsMainCl@@QEAA_NAEBVCharBuf@@0@Z 000000014009ecf4     TlsMainCl-f005f0.o
 0002:0003dd74       $ip2state$?startTestVecHandshake@TlsMainCl@@QEAA_NAEBVCharBuf@@0@Z 000000014009ed74     TlsMainCl-f005f0.o
 0002:0003deb0       $cppxdata$?startHandshake@TlsMainCl@@QEAA_NAEBVCharBuf@@0@Z 000000014009eeb0     TlsMainCl-f005f0.o
 0002:0003ded8       $stateUnwindMap$?startHandshake@TlsMainCl@@QEAA_NAEBVCharBuf@@0@Z 000000014009eed8     TlsMainCl-f005f0.o
 0002:0003df08       $ip2state$?startHandshake@TlsMainCl@@QEAA_NAEBVCharBuf@@0@Z 000000014009ef08     TlsMainCl-f005f0.o
 0002:0003df80       $cppxdata$?setTestVecServerCertOnly@TlsMainSrv@@QEAAXAEAVCharBuf@@@Z 000000014009ef80     TlsMainSrv-e73a4f.o
 0002:0003dfa8       $stateUnwindMap$?setTestVecServerCertOnly@TlsMainSrv@@QEAAXAEAVCharBuf@@@Z 000000014009efa8     TlsMainSrv-e73a4f.o
 0002:0003dfc0       $ip2state$?setTestVecServerCertOnly@TlsMainSrv@@QEAAXAEAVCharBuf@@@Z 000000014009efc0     TlsMainSrv-e73a4f.o
 0002:0003e134       $cppxdata$?setTestVecServerHello@TlsMainSrv@@QEAAXAEAVCharBuf@@AEAVTlsMain@@@Z 000000014009f134     TlsMainSrv-e73a4f.o
 0002:0003e15c       $stateUnwindMap$?setTestVecServerHello@TlsMainSrv@@QEAAXAEAVCharBuf@@AEAVTlsMain@@@Z 000000014009f15c     TlsMainSrv-e73a4f.o
 0002:0003e1d4       $ip2state$?setTestVecServerHello@TlsMainSrv@@QEAAXAEAVCharBuf@@AEAVTlsMain@@@Z 000000014009f1d4     TlsMainSrv-e73a4f.o
 0002:0003e2d4       $cppxdata$?processIncoming@TlsMainSrv@@QEAAHAEBVCharBuf@@AEAVTlsMain@@@Z 000000014009f2d4     TlsMainSrv-e73a4f.o
 0002:0003e2fc       $stateUnwindMap$?processIncoming@TlsMainSrv@@QEAAHAEBVCharBuf@@AEAVTlsMain@@@Z 000000014009f2fc     TlsMainSrv-e73a4f.o
 0002:0003e30c       $ip2state$?processIncoming@TlsMainSrv@@QEAAHAEBVCharBuf@@AEAVTlsMain@@@Z 000000014009f30c     TlsMainSrv-e73a4f.o
 0002:0003e3e8       $cppxdata$?processHandshake@TlsMainSrv@@QEAAHAEBVCharBuf@@AEAVTlsMain@@@Z 000000014009f3e8     TlsMainSrv-e73a4f.o
 0002:0003e410       $stateUnwindMap$?processHandshake@TlsMainSrv@@QEAAHAEBVCharBuf@@AEAVTlsMain@@@Z 000000014009f410     TlsMainSrv-e73a4f.o
 0002:0003e440       $ip2state$?processHandshake@TlsMainSrv@@QEAAHAEBVCharBuf@@AEAVTlsMain@@@Z 000000014009f440     TlsMainSrv-e73a4f.o
 0002:0003e4d8       $cppxdata$?processAppData@TlsMainSrv@@QEAAHAEBVCharBuf@@AEAVTlsMain@@@Z 000000014009f4d8     TlsMainSrv-e73a4f.o
 0002:0003e500       $stateUnwindMap$?processAppData@TlsMainSrv@@QEAAHAEBVCharBuf@@AEAVTlsMain@@@Z 000000014009f500     TlsMainSrv-e73a4f.o
 0002:0003e510       $ip2state$?processAppData@TlsMainSrv@@QEAAHAEBVCharBuf@@AEAVTlsMain@@@Z 000000014009f510     TlsMainSrv-e73a4f.o
 0002:0003e570       $cppxdata$?setTestVecServerCertOuter@TlsMainSrv@@QEAAXAEAVCharBuf@@@Z 000000014009f570     TlsMainSrv-e73a4f.o
 0002:0003e598       $stateUnwindMap$?setTestVecServerCertOuter@TlsMainSrv@@QEAAXAEAVCharBuf@@@Z 000000014009f598     TlsMainSrv-e73a4f.o
 0002:0003e5b0       $ip2state$?setTestVecServerCertOuter@TlsMainSrv@@QEAAXAEAVCharBuf@@@Z 000000014009f5b0     TlsMainSrv-e73a4f.o
 0002:0003e610       $cppxdata$?setTestVecServerEncExten@TlsMainSrv@@QEAAXAEAVCharBuf@@@Z 000000014009f610     TlsMainSrv-e73a4f.o
 0002:0003e638       $stateUnwindMap$?setTestVecServerEncExten@TlsMainSrv@@QEAAXAEAVCharBuf@@@Z 000000014009f638     TlsMainSrv-e73a4f.o
 0002:0003e650       $ip2state$?setTestVecServerEncExten@TlsMainSrv@@QEAAXAEAVCharBuf@@@Z 000000014009f650     TlsMainSrv-e73a4f.o
 0002:0003e6b0       $cppxdata$?setTestVecServerCertVerify@TlsMainSrv@@QEAAXAEAVCharBuf@@@Z 000000014009f6b0     TlsMainSrv-e73a4f.o
 0002:0003e6d8       $stateUnwindMap$?setTestVecServerCertVerify@TlsMainSrv@@QEAAXAEAVCharBuf@@@Z 000000014009f6d8     TlsMainSrv-e73a4f.o
 0002:0003e6f0       $ip2state$?setTestVecServerCertVerify@TlsMainSrv@@QEAAXAEAVCharBuf@@@Z 000000014009f6f0     TlsMainSrv-e73a4f.o
 0002:0003e750       $cppxdata$?setTestVecServerFinished@TlsMainSrv@@QEAAXAEAVCharBuf@@@Z 000000014009f750     TlsMainSrv-e73a4f.o
 0002:0003e778       $stateUnwindMap$?setTestVecServerFinished@TlsMainSrv@@QEAAXAEAVCharBuf@@@Z 000000014009f778     TlsMainSrv-e73a4f.o
 0002:0003e790       $ip2state$?setTestVecServerFinished@TlsMainSrv@@QEAAXAEAVCharBuf@@@Z 000000014009f790     TlsMainSrv-e73a4f.o
 0002:0003e7f0       $cppxdata$?setTestVecNewSessionTicket@TlsMainSrv@@QEAAXAEAVCharBuf@@@Z 000000014009f7f0     TlsMainSrv-e73a4f.o
 0002:0003e818       $stateUnwindMap$?setTestVecNewSessionTicket@TlsMainSrv@@QEAAXAEAVCharBuf@@@Z 000000014009f818     TlsMainSrv-e73a4f.o
 0002:0003e830       $ip2state$?setTestVecNewSessionTicket@TlsMainSrv@@QEAAXAEAVCharBuf@@@Z 000000014009f830     TlsMainSrv-e73a4f.o
 0002:0003e970       $cppxdata$?encryptTest@Aes@@QEAAXXZ 000000014009f970     Aes-1aca48.o
 0002:0003e998       $stateUnwindMap$?encryptTest@Aes@@QEAAXXZ 000000014009f998     Aes-1aca48.o
 0002:0003e9c8       $ip2state$?encryptTest@Aes@@QEAAXXZ 000000014009f9c8     Aes-1aca48.o
 0002:0003eab4       $cppxdata$?encryptTest@AesGalois@@QEAAXXZ 000000014009fab4     AesGalois-c9e363.o
 0002:0003eadc       $stateUnwindMap$?encryptTest@AesGalois@@QEAAXXZ 000000014009fadc     AesGalois-c9e363.o
 0002:0003eb24       $ip2state$?encryptTest@AesGalois@@QEAAXXZ 000000014009fb24     AesGalois-c9e363.o
 0002:0003ebc8       $cppxdata$?encryptCharBuf@AesGalois@@QEAAXAEBVCharBuf@@00AEAV2@@Z 000000014009fbc8     AesGalois-c9e363.o
 0002:0003ebf0       $stateUnwindMap$?encryptCharBuf@AesGalois@@QEAAXAEBVCharBuf@@00AEAV2@@Z 000000014009fbf0     AesGalois-c9e363.o
 0002:0003ec00       $ip2state$?encryptCharBuf@AesGalois@@QEAAXAEBVCharBuf@@00AEAV2@@Z 000000014009fc00     AesGalois-c9e363.o
 0002:0003ecd4       $cppxdata$?decryptCharBuf@AesGalois@@QEAAXAEBVCharBuf@@00AEAV2@@Z 000000014009fcd4     AesGalois-c9e363.o
 0002:0003ecfc       $stateUnwindMap$?decryptCharBuf@AesGalois@@QEAAXAEBVCharBuf@@00AEAV2@@Z 000000014009fcfc     AesGalois-c9e363.o
 0002:0003ed2c       $ip2state$?decryptCharBuf@AesGalois@@QEAAXAEBVCharBuf@@00AEAV2@@Z 000000014009fd2c     AesGalois-c9e363.o
 0002:0003ede0       $cppxdata$?setJ0fromIV@AesGalois@@AEAAXAEBVCharBuf@@AEAVPolynom128@@@Z 000000014009fde0     AesGalois-c9e363.o
 0002:0003ee08       $stateUnwindMap$?setJ0fromIV@AesGalois@@AEAAXAEBVCharBuf@@AEAVPolynom128@@@Z 000000014009fe08     AesGalois-c9e363.o
 0002:0003ee18       $ip2state$?setJ0fromIV@AesGalois@@AEAAXAEBVCharBuf@@AEAVPolynom128@@@Z 000000014009fe18     AesGalois-c9e363.o
 0002:0003ef10       $cppxdata$?makeAuthTag@AesGalois@@AEAAXAEBVCharBuf@@0AEBVPolynom128@@AEAV2@@Z 000000014009ff10     AesGalois-c9e363.o
 0002:0003ef38       $stateUnwindMap$?makeAuthTag@AesGalois@@AEAAXAEBVCharBuf@@0AEBVPolynom128@@AEAV2@@Z 000000014009ff38     AesGalois-c9e363.o
 0002:0003ef58       $ip2state$?makeAuthTag@AesGalois@@AEAAXAEBVCharBuf@@0AEBVPolynom128@@AEAV2@@Z 000000014009ff58     AesGalois-c9e363.o
 0002:0003f07c       $cppxdata$?test@Base64@@QEAAXXZ 00000001400a007c     Base64-b87ec7.o
 0002:0003f0a4       $stateUnwindMap$?test@Base64@@QEAAXXZ 00000001400a00a4     Base64-b87ec7.o
 0002:0003f0e4       $ip2state$?test@Base64@@QEAAXXZ 00000001400a00e4     Base64-b87ec7.o
 0002:0003f2d8       $cppxdata$?montLadder1@MCurve@@QEAA_NAEAVInteger@@AEBV2@1AEAVIntegerMath@@AEAVMod@@@Z 00000001400a02d8     MCurve-8762b8.o
 0002:0003f300       $stateUnwindMap$?montLadder1@MCurve@@QEAA_NAEAVInteger@@AEBV2@1AEAVIntegerMath@@AEAVMod@@@Z 00000001400a0300     MCurve-8762b8.o
 0002:0003f310       $tryMap$?montLadder1@MCurve@@QEAA_NAEAVInteger@@AEBV2@1AEAVIntegerMath@@AEAVMod@@@Z 00000001400a0310     MCurve-8762b8.o
 0002:0003f324       $handlerMap$0$?montLadder1@MCurve@@QEAA_NAEAVInteger@@AEBV2@1AEAVIntegerMath@@AEAVMod@@@Z 00000001400a0324     MCurve-8762b8.o
 0002:0003f34c       $ip2state$?montLadder1@MCurve@@QEAA_NAEAVInteger@@AEBV2@1AEAVIntegerMath@@AEAVMod@@@Z 00000001400a034c     MCurve-8762b8.o
 0002:0003f41c       $cppxdata$?makeRandExponentK@MCurve@@QEAAXAEAVInteger@@AEAVCharBuf@@@Z 00000001400a041c     MCurve-8762b8.o
 0002:0003f444       $stateUnwindMap$?makeRandExponentK@MCurve@@QEAAXAEAVInteger@@AEAVCharBuf@@@Z 00000001400a0444     MCurve-8762b8.o
 0002:0003f44c       $ip2state$?makeRandExponentK@MCurve@@QEAAXAEAVInteger@@AEAVCharBuf@@@Z 00000001400a044c     MCurve-8762b8.o
 0002:0003f490       $cppxdata$?makeRandom32Bytes@MCurve@@QEAAXAEAVByteArray@@@Z 00000001400a0490     MCurve-8762b8.o
 0002:0003f4b8       $stateUnwindMap$?makeRandom32Bytes@MCurve@@QEAAXAEAVByteArray@@@Z 00000001400a04b8     MCurve-8762b8.o
 0002:0003f4c8       $ip2state$?makeRandom32Bytes@MCurve@@QEAAXAEAVByteArray@@@Z 00000001400a04c8     MCurve-8762b8.o
 0002:0003f54c       $cppxdata$?makeThePrime@MCurve@@QEAAXAEAVIntegerMath@@@Z 00000001400a054c     MCurve-8762b8.o
 0002:0003f574       $stateUnwindMap$?makeThePrime@MCurve@@QEAAXAEAVIntegerMath@@@Z 00000001400a0574     MCurve-8762b8.o
 0002:0003f58c       $ip2state$?makeThePrime@MCurve@@QEAAXAEAVIntegerMath@@@Z 00000001400a058c     MCurve-8762b8.o
 0002:0003f644       $cppxdata$??0QuadRes@@QEAA@XZ 00000001400a0644     QuadRes-00d8f5.o
 0002:0003f66c       $stateUnwindMap$??0QuadRes@@QEAA@XZ 00000001400a066c     QuadRes-00d8f5.o
 0002:0003f674       $ip2state$??0QuadRes@@QEAA@XZ 00000001400a0674     QuadRes-00d8f5.o
 0002:0003f6b4       $cppxdata$??0QuadRes@@QEAA@AEBV0@@Z 00000001400a06b4     QuadRes-00d8f5.o
 0002:0003f6dc       $stateUnwindMap$??0QuadRes@@QEAA@AEBV0@@Z 00000001400a06dc     QuadRes-00d8f5.o
 0002:0003f6e4       $ip2state$??0QuadRes@@QEAA@AEBV0@@Z 00000001400a06e4     QuadRes-00d8f5.o
 0002:0003f7c4       $cppxdata$?makeKeys@Rsa@@QEAA_NAEBVInteger@@0AEAVIntegerMath@@AEAVMod@@AEAVSPrimes@@AEAVFindFacSm@@AEBVMultInv@@AEBVCrtMath@@AEAVGarnerCrt@@@Z 00000001400a07c4     Rsa-b22f78.o
 0002:0003f7ec       $stateUnwindMap$?makeKeys@Rsa@@QEAA_NAEBVInteger@@0AEAVIntegerMath@@AEAVMod@@AEAVSPrimes@@AEAVFindFacSm@@AEBVMultInv@@AEBVCrtMath@@AEAVGarnerCrt@@@Z 00000001400a07ec     Rsa-b22f78.o
 0002:0003f80c       $ip2state$?makeKeys@Rsa@@QEAA_NAEBVInteger@@0AEAVIntegerMath@@AEAVMod@@AEAVSPrimes@@AEAVFindFacSm@@AEBVMultInv@@AEBVCrtMath@@AEAVGarnerCrt@@@Z 00000001400a080c     Rsa-b22f78.o
 0002:0003f920       $cppxdata$?test@RsaTest@@QEAAXAEAVRsa@@AEAVMod@@AEAVSPrimes@@AEAVIntegerMath@@AEAVFindFacSm@@AEBVMultInv@@AEBVCrtMath@@AEAVGarnerCrt@@@Z 00000001400a0920     RsaTest-551fee.o
 0002:0003f948       $stateUnwindMap$?test@RsaTest@@QEAAXAEAVRsa@@AEAVMod@@AEAVSPrimes@@AEAVIntegerMath@@AEAVFindFacSm@@AEBVMultInv@@AEBVCrtMath@@AEAVGarnerCrt@@@Z 00000001400a0948     RsaTest-551fee.o
 0002:0003f960       $ip2state$?test@RsaTest@@QEAAXAEAVRsa@@AEAVMod@@AEAVSPrimes@@AEAVIntegerMath@@AEAVFindFacSm@@AEBVMultInv@@AEBVCrtMath@@AEAVGarnerCrt@@@Z 00000001400a0960     RsaTest-551fee.o
 0002:0003f9b4       $cppxdata$??0FindFacSm@@QEAA@XZ 00000001400a09b4     RsaTest-551fee.o
 0002:0003f9dc       $stateUnwindMap$??0FindFacSm@@QEAA@XZ 00000001400a09dc     RsaTest-551fee.o
 0002:0003f9ec       $ip2state$??0FindFacSm@@QEAA@XZ 00000001400a09ec     RsaTest-551fee.o
 0002:0003fa60       $cppxdata$?processAllBlocks@Sha256@@QEAAXAEBVCharBuf@@@Z 00000001400a0a60     Sha256-a07749.o
 0002:0003fa88       $stateUnwindMap$?processAllBlocks@Sha256@@QEAAXAEBVCharBuf@@@Z 00000001400a0a88     Sha256-a07749.o
 0002:0003fa98       $ip2state$?processAllBlocks@Sha256@@QEAAXAEBVCharBuf@@@Z 00000001400a0a98     Sha256-a07749.o
 0002:0003fb0c       $cppxdata$?showHash@Sha256@@QEAAXXZ 00000001400a0b0c     Sha256-a07749.o
 0002:0003fb34       $stateUnwindMap$?showHash@Sha256@@QEAAXXZ 00000001400a0b34     Sha256-a07749.o
 0002:0003fb44       $ip2state$?showHash@Sha256@@QEAAXXZ 00000001400a0b44     Sha256-a07749.o
 0002:0003fc30       $cppxdata$?hMac@Sha256@@QEAAXAEAVCharBuf@@AEBV2@1@Z 00000001400a0c30     Sha256-a07749.o
 0002:0003fc58       $stateUnwindMap$?hMac@Sha256@@QEAAXAEAVCharBuf@@AEBV2@1@Z 00000001400a0c58     Sha256-a07749.o
 0002:0003fc98       $ip2state$?hMac@Sha256@@QEAAXAEAVCharBuf@@AEBV2@1@Z 00000001400a0c98     Sha256-a07749.o
 0002:0003fe1c       $cppxdata$?timeCBuf@TimeApi@@QEAAXAEAVCharBuf@@@Z 00000001400a0e1c     TimeApiWin-c4ae35.o
 0002:0003fe44       $stateUnwindMap$?timeCBuf@TimeApi@@QEAAXAEAVCharBuf@@@Z 00000001400a0e44     TimeApiWin-c4ae35.o
 0002:0003fe84       $ip2state$?timeCBuf@TimeApi@@QEAAXAEAVCharBuf@@@Z 00000001400a0e84     TimeApiWin-c4ae35.o
 0002:0003fed8       $xdatasym                  00000001400a0ed8     libcmt:chkstk.obj
 0002:0003fee0       $unwind$?__c16rtomb_utf8@__crt_mbstring@@YA_KPEAD_SPEAU_Mbstatet@@AEAV__crt_cached_ptd_host@@@Z 00000001400a0ee0     libucrt:c16rtomb.obj
 0002:0003fee0       $unwind$_calloc_base       00000001400a0ee0     libucrt:calloc_base.obj
 0002:0003fee0       $unwind$_malloc_base       00000001400a0ee0     libucrt:malloc_base.obj
 0002:0003fee0       $unwind$initialize_pointers 00000001400a0ee0     libucrt:initialization.obj
 0002:0003fee0       $unwind$uninitialize_allocated_memory 00000001400a0ee0     libucrt:initialization.obj
 0002:0003fee0       $unwind$__acrt_initialize_locks 00000001400a0ee0     libucrt:locks.obj
 0002:0003fee0       $unwind$__acrt_uninitialize_locks 00000001400a0ee0     libucrt:locks.obj
 0002:0003fee0       $unwind$__acrt_getptd_head 00000001400a0ee0     libucrt:per_thread_data.obj
 0002:0003fee0       $unwind$__acrt_get_process_end_policy 00000001400a0ee0     libucrt:win_policies.obj
 0002:0003fee0       $unwind$__acrt_AppPolicyGetProcessTerminationMethodInternal 00000001400a0ee0     libucrt:winapi_thunks.obj
 0002:0003fee0       $unwind$__acrt_IsValidLocaleName 00000001400a0ee0     libucrt:winapi_thunks.obj
 0002:0003fee0       $unwind$__acrt_uninitialize_winapi_thunks 00000001400a0ee0     libucrt:winapi_thunks.obj
 0002:0003fee0       $unwind$__acrt_update_locale_info 00000001400a0ee0     libucrt:locale_update.obj
 0002:0003fee0       $unwind$__acrt_update_locale_info_explicit 00000001400a0ee0     libucrt:locale_update.obj
 0002:0003fee0       $unwind$__acrt_update_multibyte_info 00000001400a0ee0     libucrt:locale_update.obj
 0002:0003fee0       $unwind$__acrt_update_multibyte_info_explicit 00000001400a0ee0     libucrt:locale_update.obj
 0002:0003fee0       $unwind$_configthreadlocale 00000001400a0ee0     libucrt:wsetlocale.obj
 0002:0003fee0       $unwind$__acrt_errno_map_os_error 00000001400a0ee0     libucrt:errno.obj
 0002:0003fee0       $unwind$__acrt_errno_map_os_error_ptd 00000001400a0ee0     libucrt:errno.obj
 0002:0003fee0       $unwind$__acrt_allocate_buffer_for_argv 00000001400a0ee0     libucrt:argv_parsing.obj
 0002:0003fee0       $unwind$?exit_or_terminate_process@@YAXI@Z 00000001400a0ee0     libucrt:exit.obj
 0002:0003fee0       $unwind$__acrt_uninitialize_stdio 00000001400a0ee0     libucrt:_file.obj
 0002:0003fee0       $unwind$?stream_is_at_end_of_file_nolock@@YA_NV__crt_stdio_stream@@@Z 00000001400a0ee0     libucrt:_flsbuf.obj
 0002:0003fee0       $unwind$__acrt_stdio_free_buffer_nolock 00000001400a0ee0     libucrt:_freebuf.obj
 0002:0003fee0       $unwind$__acrt_should_use_temporary_buffer 00000001400a0ee0     libucrt:_sftbuf.obj
 0002:0003fee0       $unwind$_fputchar          00000001400a0ee0     libucrt:fputc.obj
 0002:0003fee0       $unwind$_fputwchar         00000001400a0ee0     libucrt:fputwc.obj
 0002:0003fee0       $unwind$?type_case_s@?$output_processor@DV?$stream_output_adapter@D@__crt_stdio_output@@V?$standard_base@DV?$stream_output_adapter@D@__crt_stdio_output@@@2@@__crt_stdio_output@@AEAA_NXZ 00000001400a0ee0     libucrt:output.obj
 0002:0003fee0       $unwind$strcpy_s           00000001400a0ee0     libucrt:strcpy_s.obj
 0002:0003fee0       $unwind$wcscat_s           00000001400a0ee0     libucrt:wcscat_s.obj
 0002:0003fee0       $unwind$wcscpy_s           00000001400a0ee0     libucrt:wcscpy_s.obj
 0002:0003fee0       $unwind$_time64            00000001400a0ee0     libucrt:time.obj
 0002:0003fee0       $unwind$_clrfp             00000001400a0ee0     libucrt:fpctrl.obj
 0002:0003fee0       $unwind$_set_statfp        00000001400a0ee0     libucrt:fpctrl.obj
 0002:0003fee0       $unwind$_clearfp           00000001400a0ee0     libucrt:ieee.obj
 0002:0003fee0       $unwind$_controlfp_s       00000001400a0ee0     libucrt:contrlfp.obj
 0002:0003fee0       $unwind$fegetenv           00000001400a0ee0     libucrt:fegetenv.obj
 0002:0003fee0       $unwind$feholdexcept       00000001400a0ee0     libucrt:feholdexcept.obj
 0002:0003fee0       $unwind$?pre_c_initialization@@YAHXZ 00000001400a0ee0     libcmt:exe_main.obj
 0002:0003fee0       $unwind$__raise_securityfailure 00000001400a0ee0     libcmt:gs_report.obj
 0002:0003fee0       $unwind$??2@YAPEAX_K@Z     00000001400a0ee0     libcmt:new_scalar.obj
 0002:0003fee0       $unwind$??_Gtype_info@@UEAAPEAXI@Z 00000001400a0ee0     libcmt:std_type_info_static.obj
 0002:0003fee0       $unwind$_Init_thread_footer 00000001400a0ee0     libcmt:thread_safe_statics.obj
 0002:0003fee0       $unwind$_Init_thread_header 00000001400a0ee0     libcmt:thread_safe_statics.obj
 0002:0003fee0       $unwind$__scrt_initialize_onexit_tables 00000001400a0ee0     libcmt:utility.obj
 0002:0003fee0       $unwind$__scrt_release_startup_lock 00000001400a0ee0     libcmt:utility.obj
 0002:0003fee0       $unwind$__scrt_uninitialize_crt 00000001400a0ee0     libcmt:utility.obj
 0002:0003fee0       $unwind$_onexit            00000001400a0ee0     libcmt:utility.obj
 0002:0003fee0       $unwind$_Getctype          00000001400a0ee0     libcpmt:_tolower.obj
 0002:0003fee0       $unwind$?_Addstd@ios_base@std@@SAXPEAV12@@Z 00000001400a0ee0     libcpmt:ios.obj
 0002:0003fee0       $unwind$?_Ios_base_dtor@ios_base@std@@CAXPEAV12@@Z 00000001400a0ee0     libcpmt:ios.obj
 0002:0003fee0       $unwind$??__F_Fac_tidy_reg@std@@YAXXZ 00000001400a0ee0     libcpmt:locale0.obj
 0002:0003fee0       $unwind$?_Facet_Register@std@@YAXPEAV_Facet_base@1@@Z 00000001400a0ee0     libcpmt:locale0.obj
 0002:0003fee0       $unwind$?_New_Locimp@_Locimp@locale@std@@CAPEAV123@_N@Z 00000001400a0ee0     libcpmt:locale0.obj
 0002:0003fee0       $unwind$?_Setgloballocale@locale@std@@CAXPEAX@Z 00000001400a0ee0     libcpmt:locale0.obj
 0002:0003fee0       $unwind$?initialize_pointers@@YAHXZ 00000001400a0ee0     libcpmt:winapisupp.obj
 0002:0003fee0       $unwind$??0_Lockit@std@@QEAA@H@Z 00000001400a0ee0     libcpmt:xlock.obj
 0002:0003fee0       $unwind$??1_Init_locks@std@@QEAA@XZ 00000001400a0ee0     libcpmt:xlock.obj
 0002:0003fee0       $unwind$??0length_error@std@@QEAA@AEBV01@@Z 00000001400a0ee0     libcpmt:xthrow.obj
 0002:0003fee0       $unwind$??0logic_error@std@@QEAA@AEBV01@@Z 00000001400a0ee0     libcpmt:xthrow.obj
 0002:0003fee0       $unwind$??0out_of_range@std@@QEAA@AEBV01@@Z 00000001400a0ee0     libcpmt:xthrow.obj
 0002:0003fee0       $unwind$_IsExceptionObjectToBeDestroyed 00000001400a0ee0     libvcruntime:ehhelpers.obj
 0002:0003fee0       $unwind$?GetUnwindTryBlock@__FrameHandler3@@SAHPEA_KPEAU_xDISPATCHER_CONTEXT@@PEBU_s_FuncInfo@@@Z 00000001400a0ee0     libvcruntime:ehstate.obj
 0002:0003fee0       $unwind$?StateFromIp@__FrameHandler3@@SAHPEBU_s_FuncInfo@@PEAU_xDISPATCHER_CONTEXT@@_K@Z 00000001400a0ee0     libvcruntime:ehstate.obj
 0002:0003fee0       $unwind$??0HandlerMap4@FH4@@QEAA@PEBUTryBlockMapEntry4@1@_KH@Z 00000001400a0ee0     libvcruntime:frame.obj
 0002:0003fee0       $unwind$??0bad_exception@std@@QEAA@AEBV01@@Z 00000001400a0ee0     libvcruntime:frame.obj
 0002:0003fee0       $unwind$?ExFilterRethrow@@YAHPEAU_EXCEPTION_POINTERS@@PEAUEHExceptionRecord@@PEAH@Z 00000001400a0ee0     libvcruntime:frame.obj
 0002:0003fee0       $unwind$__vcrt_initialize_locks 00000001400a0ee0     libvcruntime:locks.obj
 0002:0003fee0       $unwind$__vcrt_uninitialize_locks 00000001400a0ee0     libvcruntime:locks.obj
 0002:0003fee0       $unwind$?ExecutionInCatch@__FrameHandler3@@SA_NPEAU_xDISPATCHER_CONTEXT@@PEBU_s_FuncInfo@@@Z 00000001400a0ee0     libvcruntime:risctrnsctrl.obj
 0002:0003fee0       $unwind$_CreateFrameInfo   00000001400a0ee0     libvcruntime:risctrnsctrl.obj
 0002:0003fee0       $unwind$_SetImageBase      00000001400a0ee0     libvcruntime:risctrnsctrl.obj
 0002:0003fee0       $unwind$_SetThrowImageBase 00000001400a0ee0     libvcruntime:risctrnsctrl.obj
 0002:0003fee0       $unwind$__std_exception_destroy 00000001400a0ee0     libvcruntime:std_exception.obj
 0002:0003fee0       $unwind$__vcrt_FlsAlloc    00000001400a0ee0     libvcruntime:winapi_downlevel.obj
 0002:0003fee0       $unwind$__vcrt_FlsFree     00000001400a0ee0     libvcruntime:winapi_downlevel.obj
 0002:0003fee0       $unwind$__vcrt_FlsGetValue 00000001400a0ee0     libvcruntime:winapi_downlevel.obj
 0002:0003fee8       $unwind$__scrt_is_nonwritable_in_current_image 00000001400a0ee8     libcmt:utility.obj
 0002:0003ff08       $unwind$__scrt_is_nonwritable_in_current_image$filt$0 00000001400a0f08     libcmt:utility.obj
 0002:0003ff10       $unwind$?__scrt_common_main_seh@@YAHXZ 00000001400a0f10     libcmt:exe_main.obj
 0002:0003ff48       $unwind$_query_new_handler$fin$0 00000001400a0f48     libucrt:new_handler.obj
 0002:0003ff48       $unwind$?fin$0@?0???$?RV<lambda_0ae27a3a962d80f24befdcbee591983d>@@AEAV<lambda_8d0ee55de4b1038c4002e0adecdf1839>@@V<lambda_dc504788e8f1664fe9b84e20bfb512f2>@@@?$__crt_seh_guarded_call@X@@QEAAX$$QEAV<lambda_0ae27a3a962d80f24befdcbee591983d>@@AEAV<lambda_8d0ee55de4b1038c4002e0adecdf1839>@@$$QEAV<lambda_dc504788e8f1664fe9b84e20bfb512f2>@@@Z@4HA 00000001400a0f48     libucrt:per_thread_data.obj
 0002:0003ff48       $unwind$?fin$0@?0???$?RV<lambda_2d41944a1d46af3157314b8a01080d33>@@AEAV<lambda_8f455de75cd7d7f24b4096f044d8b9e6>@@V<lambda_aa500f224e6afead328df44964fe2772>@@@?$__crt_seh_guarded_call@X@@QEAAX$$QEAV<lambda_2d41944a1d46af3157314b8a01080d33>@@AEAV<lambda_8f455de75cd7d7f24b4096f044d8b9e6>@@$$QEAV<lambda_aa500f224e6afead328df44964fe2772>@@@Z@4HA 00000001400a0f48     libucrt:per_thread_data.obj
 0002:0003ff48       $unwind$?fin$0@?0???$?RV<lambda_aa87e3671a710a21b5dc78c0bdf72e11>@@AEAV<lambda_92619d2358a28f41a33ba319515a20b9>@@V<lambda_6992ecaafeb10aed2b74cb1fae11a551>@@@?$__crt_seh_guarded_call@X@@QEAAX$$QEAV<lambda_aa87e3671a710a21b5dc78c0bdf72e11>@@AEAV<lambda_92619d2358a28f41a33ba319515a20b9>@@$$QEAV<lambda_6992ecaafeb10aed2b74cb1fae11a551>@@@Z@4HA 00000001400a0f48     libucrt:per_thread_data.obj
 0002:0003ff48       $unwind$?fin$0@?0???$?RV<lambda_f2e299630e499de9f9a165e60fcd3db5>@@AEAV<lambda_2ae9d31cdba2644fcbeaf08da7c24588>@@V<lambda_40d01ff24d0e7b3814fdbdcee8eab3c7>@@@?$__crt_seh_guarded_call@X@@QEAAX$$QEAV<lambda_f2e299630e499de9f9a165e60fcd3db5>@@AEAV<lambda_2ae9d31cdba2644fcbeaf08da7c24588>@@$$QEAV<lambda_40d01ff24d0e7b3814fdbdcee8eab3c7>@@@Z@4HA 00000001400a0f48     libucrt:per_thread_data.obj
 0002:0003ff48       $unwind$?fin$0@?0???$?RV<lambda_48fc4a32460bb0512d3b13f8499328be>@@AEAV<lambda_6c3dac0a4f3f9cefca9bb494422f9b77>@@V<lambda_0a2f2c9f9a56eb2b08bfa6ff61d331c5>@@@?$__crt_seh_guarded_call@H@@QEAAH$$QEAV<lambda_48fc4a32460bb0512d3b13f8499328be>@@AEAV<lambda_6c3dac0a4f3f9cefca9bb494422f9b77>@@$$QEAV<lambda_0a2f2c9f9a56eb2b08bfa6ff61d331c5>@@@Z@4HA 00000001400a0f48     libucrt:winapi_thunks.obj
 0002:0003ff48       $unwind$__acrt_update_thread_locale_data$fin$0 00000001400a0f48     libucrt:locale_refcounting.obj
 0002:0003ff48       $unwind$?fin$0@?0???$?RV<lambda_e9ce07acdb0b138e546925ae9f1a2c9c>@@AEAV<lambda_2116bde18c9e5f34230805ea4a4660ed>@@V<lambda_5d037afbfc54bf1ca80d3d1ee4062886>@@@?$__crt_seh_guarded_call@PEAD@@QEAAPEAD$$QEAV<lambda_e9ce07acdb0b138e546925ae9f1a2c9c>@@AEAV<lambda_2116bde18c9e5f34230805ea4a4660ed>@@$$QEAV<lambda_5d037afbfc54bf1ca80d3d1ee4062886>@@@Z@4HA 00000001400a0f48     libucrt:setlocale.obj
 0002:0003ff48       $unwind$?fin$0@?0???$?RV<lambda_1d892b297fdedeee07ed8124eeb2f2fa>@@AEAV<lambda_ffc046909424fd52df0ac47e64813305>@@V<lambda_01a7098693036236037e7cdb9bca3d73>@@@?$__crt_seh_guarded_call@X@@QEAAX$$QEAV<lambda_1d892b297fdedeee07ed8124eeb2f2fa>@@AEAV<lambda_ffc046909424fd52df0ac47e64813305>@@$$QEAV<lambda_01a7098693036236037e7cdb9bca3d73>@@@Z@4HA 00000001400a0f48     libucrt:wsetlocale.obj
 0002:0003ff48       $unwind$?fin$0@?0???$?RV<lambda_410d79af7f07d98d83a3f525b3859a53>@@AEAV<lambda_3e16ef9562a7dcce91392c22ab16ea36>@@V<lambda_38119f0e861e05405d8a144b9b982f0a>@@@?$__crt_seh_guarded_call@X@@QEAAX$$QEAV<lambda_410d79af7f07d98d83a3f525b3859a53>@@AEAV<lambda_3e16ef9562a7dcce91392c22ab16ea36>@@$$QEAV<lambda_38119f0e861e05405d8a144b9b982f0a>@@@Z@4HA 00000001400a0f48     libucrt:wsetlocale.obj
 0002:0003ff48       $unwind$?fin$0@?0???$?RV<lambda_e9338f07fe435327d97d4ef86149e64d>@@AEAV<lambda_2a444430fde8c29194d880d93eed5e8f>@@AEAV<lambda_02db5278e8aef8b5e4976579d73f5304>@@@?$__crt_seh_guarded_call@X@@QEAAX$$QEAV<lambda_e9338f07fe435327d97d4ef86149e64d>@@AEAV<lambda_2a444430fde8c29194d880d93eed5e8f>@@AEAV<lambda_02db5278e8aef8b5e4976579d73f5304>@@@Z@4HA 00000001400a0f48     libucrt:wsetlocale.obj
 0002:0003ff48       $unwind$?fin$0@?0???$?RV<lambda_ad8af0d99a0adf03d037d7dffe354bb5>@@AEAV<lambda_c9ba49e555ba839a7b07aa3fbecb7617>@@V<lambda_2f1ebd5d68526518146ae959c9e734c8>@@@?$__crt_seh_guarded_call@H@@QEAAH$$QEAV<lambda_ad8af0d99a0adf03d037d7dffe354bb5>@@AEAV<lambda_c9ba49e555ba839a7b07aa3fbecb7617>@@$$QEAV<lambda_2f1ebd5d68526518146ae959c9e734c8>@@@Z@4HA 00000001400a0f48     libucrt:close.obj
 0002:0003ff48       $unwind$?fin$0@?0???$?RV<lambda_a37b2b86f63e897a80ea819b0eb08c01>@@AEAV<lambda_38ce7e780aa69e748d6df282ebc68efe>@@V<lambda_99fb1378e971ab6e7edea83e3a7a83a2>@@@?$__crt_seh_guarded_call@H@@QEAAH$$QEAV<lambda_a37b2b86f63e897a80ea819b0eb08c01>@@AEAV<lambda_38ce7e780aa69e748d6df282ebc68efe>@@$$QEAV<lambda_99fb1378e971ab6e7edea83e3a7a83a2>@@@Z@4HA 00000001400a0f48     libucrt:commit.obj
 0002:0003ff48       $unwind$__acrt_initialize_lowio$fin$0 00000001400a0f48     libucrt:ioinit.obj
 0002:0003ff48       $unwind$__acrt_lowio_ensure_fh_exists$fin$0 00000001400a0f48     libucrt:osfinfo.obj
 0002:0003ff48       $unwind$_alloc_osfhnd$fin$0 00000001400a0f48     libucrt:osfinfo.obj
 0002:0003ff48       $unwind$_read$fin$0        00000001400a0f48     libucrt:read.obj
 0002:0003ff48       $unwind$?fin$0@?0???$?RV<lambda_efdfa57d1f175319df784efa44bb7b81>@@AEAV<lambda_5f0a4c1567f8adc6734073e5d1e1b35c>@@V<lambda_2e8a7d3640ea6ccb4c2413664c2db6fd>@@@?$__crt_seh_guarded_call@X@@QEAAX$$QEAV<lambda_efdfa57d1f175319df784efa44bb7b81>@@AEAV<lambda_5f0a4c1567f8adc6734073e5d1e1b35c>@@$$QEAV<lambda_2e8a7d3640ea6ccb4c2413664c2db6fd>@@@Z@4HA 00000001400a0f48     libucrt:mbctype.obj
 0002:0003ff48       $unwind$?fin$0@?0??update_thread_multibyte_data_internal@@YAPEAU__crt_multibyte_data@@QEAU__acrt_ptd@@QEAPEAU1@@Z@4HA 00000001400a0f48     libucrt:mbctype.obj
 0002:0003ff48       $unwind$?fin$0@?0???$?RV<lambda_450d765d439847d4c735a33c368b5fc0>@@AEAV<lambda_44731a7d0e6d81c3e6aa82d741081786>@@V<lambda_601a2a7da3b7a96e9554ac7215c4b07c>@@@?$__crt_seh_guarded_call@P6AXH@Z@@QEAAP6AXH@Z$$QEAV<lambda_450d765d439847d4c735a33c368b5fc0>@@AEAV<lambda_44731a7d0e6d81c3e6aa82d741081786>@@$$QEAV<lambda_601a2a7da3b7a96e9554ac7215c4b07c>@@@Z@4HA 00000001400a0f48     libucrt:signal.obj
 0002:0003ff48       $unwind$?fin$0@?0??ctrlevent_capture@@YAHK@Z@4HA 00000001400a0f48     libucrt:signal.obj
 0002:0003ff48       $unwind$raise$fin$0        00000001400a0f48     libucrt:signal.obj
 0002:0003ff48       $unwind$signal$fin$0       00000001400a0f48     libucrt:signal.obj
 0002:0003ff48       $unwind$?filt$0@?0???R<lambda_6e4b09c48022b2350581041d5f6b0c4c>@@QEBA@XZ@4HA 00000001400a0f48     libucrt:exit.obj
 0002:0003ff48       $unwind$?fin$0@?0???$?RV<lambda_d80eeec6fff315bfe5c115232f3240e3>@@AEAV<lambda_6e4b09c48022b2350581041d5f6b0c4c>@@V<lambda_2358e3775559c9db80273638284d5e45>@@@?$__crt_seh_guarded_call@X@@QEAAX$$QEAV<lambda_d80eeec6fff315bfe5c115232f3240e3>@@AEAV<lambda_6e4b09c48022b2350581041d5f6b0c4c>@@$$QEAV<lambda_2358e3775559c9db80273638284d5e45>@@@Z@4HA 00000001400a0f48     libucrt:exit.obj
 0002:0003ff48       $unwind$?fin$0@?0???$?RV<lambda_638799b9deba96c50f710eeac98168cd>@@AEAV<lambda_22ebabd17bc4fa466a2aca6d8deb888d>@@V<lambda_a6f7d7db0129f75315ebf26d50c089f1>@@@?$__crt_seh_guarded_call@H@@QEAAH$$QEAV<lambda_638799b9deba96c50f710eeac98168cd>@@AEAV<lambda_22ebabd17bc4fa466a2aca6d8deb888d>@@$$QEAV<lambda_a6f7d7db0129f75315ebf26d50c089f1>@@@Z@4HA 00000001400a0f48     libucrt:onexit.obj
 0002:0003ff48       $unwind$?fin$0@?0???$?RV<lambda_7777bce6b2f8c936911f934f8298dc43>@@AEAV<lambda_f03950bc5685219e0bcd2087efbe011e>@@V<lambda_3883c3dff614d5e0c5f61bb1ac94921c>@@@?$__crt_seh_guarded_call@H@@QEAAH$$QEAV<lambda_7777bce6b2f8c936911f934f8298dc43>@@AEAV<lambda_f03950bc5685219e0bcd2087efbe011e>@@$$QEAV<lambda_3883c3dff614d5e0c5f61bb1ac94921c>@@@Z@4HA 00000001400a0f48     libucrt:onexit.obj
 0002:0003ff48       $unwind$_fcloseall$fin$0   00000001400a0f48     libucrt:closeall.obj
 0002:0003ff48       $unwind$?fin$0@?0???$?RV<lambda_842d9ff0dc9ef11c61343bbaebe7f885>@@AEAV<lambda_c5860995281e5c4ce005b3de8f5874ee>@@V<lambda_d90129c13df834fdcbf8d2b88dafcf2d>@@@?$__crt_seh_guarded_call@X@@QEAAX$$QEAV<lambda_842d9ff0dc9ef11c61343bbaebe7f885>@@AEAV<lambda_c5860995281e5c4ce005b3de8f5874ee>@@$$QEAV<lambda_d90129c13df834fdcbf8d2b88dafcf2d>@@@Z@4HA 00000001400a0f48     libucrt:fflush.obj
 0002:0003ff48       $unwind$?fin$0@?0???$?RV<lambda_886d6c58226a84441f68b9f2b8217b83>@@AEAV<lambda_ab61a845afdef5b7c387490eaf3616ee>@@V<lambda_f7f22ab5edc0698d5f6905b0d3f44752>@@@?$__crt_seh_guarded_call@X@@QEAAX$$QEAV<lambda_886d6c58226a84441f68b9f2b8217b83>@@AEAV<lambda_ab61a845afdef5b7c387490eaf3616ee>@@$$QEAV<lambda_f7f22ab5edc0698d5f6905b0d3f44752>@@@Z@4HA 00000001400a0f48     libucrt:fflush.obj
 0002:0003ff48       $unwind$?fin$0@?0???$?RV<lambda_c376a267cfb53b6959b3b692ec76b120>@@AEAV<lambda_9a32fed5bf61b6b509b2d3f6003082a1>@@V<lambda_572fbb9fa0ab338edf41edfd4b5fcc8d>@@@?$__crt_seh_guarded_call@H@@QEAAH$$QEAV<lambda_c376a267cfb53b6959b3b692ec76b120>@@AEAV<lambda_9a32fed5bf61b6b509b2d3f6003082a1>@@$$QEAV<lambda_572fbb9fa0ab338edf41edfd4b5fcc8d>@@@Z@4HA 00000001400a0f48     libucrt:fflush.obj
 0002:0003ff48       $unwind$fgetc$fin$0        00000001400a0f48     libucrt:fgetc.obj
 0002:0003ff48       $unwind$?fin$0@?0???$common_fsopen@D@@YAPEAU_iobuf@@QEBD0H@Z@4HA 00000001400a0f48     libucrt:fopen.obj
 0002:0003ff48       $unwind$?fin$0@?0???$?RV<lambda_a2589f19c515cac03caf6db9c38355e9>@@AEAV<lambda_26974eb511f701c600fccfa2a97a8e1b>@@V<lambda_ad9ce2f38261e34e8a422b9cc35dfe8d>@@@?$__crt_seh_guarded_call@_K@@QEAA_K$$QEAV<lambda_a2589f19c515cac03caf6db9c38355e9>@@AEAV<lambda_26974eb511f701c600fccfa2a97a8e1b>@@$$QEAV<lambda_ad9ce2f38261e34e8a422b9cc35dfe8d>@@@Z@4HA 00000001400a0f48     libucrt:fwrite.obj
 0002:0003ff48       $unwind$?fin$0@?0???$?RV<lambda_d854c62834386a3b23916ad6dae2782d>@@AEAV<lambda_303760bc4008a2b3ec4768a30b06a80c>@@V<lambda_4780a7ea4f8cbd2590aec34bd14e2bbf>@@@?$__crt_seh_guarded_call@H@@QEAAH$$QEAV<lambda_d854c62834386a3b23916ad6dae2782d>@@AEAV<lambda_303760bc4008a2b3ec4768a30b06a80c>@@$$QEAV<lambda_4780a7ea4f8cbd2590aec34bd14e2bbf>@@@Z@4HA 00000001400a0f48     libucrt:output.obj
 0002:0003ff48       $unwind$?fin$0@?0???$?RV<lambda_7ea02354adac61b93e3a5c2c4100d85b>@@AEAV<lambda_8abd18a77b33e1dd4bdebee267cfa707>@@V<lambda_eba452c8b8afd9ffb9102a507ee4e553>@@@?$__crt_seh_guarded_call@H@@QEAAH$$QEAV<lambda_7ea02354adac61b93e3a5c2c4100d85b>@@AEAV<lambda_8abd18a77b33e1dd4bdebee267cfa707>@@$$QEAV<lambda_eba452c8b8afd9ffb9102a507ee4e553>@@@Z@4HA 00000001400a0f48     libucrt:puts.obj
 0002:0003ff48       $unwind$?fin$0@?0???$?RV<lambda_9291da6fb19fed9e7668d36b7e9903ee>@@AEAV<lambda_e8d85a8178367c0d1135ba66de989cf6>@@V<lambda_2aa1c5fac2b3ecd63b0b04056e47917d>@@@?$__crt_seh_guarded_call@H@@QEAAH$$QEAV<lambda_9291da6fb19fed9e7668d36b7e9903ee>@@AEAV<lambda_e8d85a8178367c0d1135ba66de989cf6>@@$$QEAV<lambda_2aa1c5fac2b3ecd63b0b04056e47917d>@@@Z@4HA 00000001400a0f48     libucrt:setvbuf.obj
 0002:0003ff48       $unwind$?fin$0@?0??__acrt_stdio_allocate_stream@@YA?AV__crt_stdio_stream@@XZ@4HA 00000001400a0f48     libucrt:stream.obj
 0002:0003ff48       $unwind$ungetc$fin$0       00000001400a0f48     libucrt:ungetc.obj
 0002:0003ff48       $unwind$__tzset$fin$0      00000001400a0f48     libucrt:tzset.obj
 0002:0003ff48       $unwind$_isindst$fin$0     00000001400a0f48     libucrt:tzset.obj
 0002:0003ff48       $unwind$_ctrlfp$filt$0     00000001400a0f48     libucrt:fpctrl.obj
 0002:0003ff48       $unwind$common_control87$filt$0 00000001400a0f48     libucrt:ieee.obj
 0002:0003ff48       $unwind$?filt$0@?0??__scrt_common_main_seh@@YAHXZ@4HA 00000001400a0f48     libcmt:exe_main.obj
 0002:0003ff48       $unwind$_IsNonwritableInCurrentImage$filt$0 00000001400a0f48     libcmt:pesect.obj
 0002:0003ff48       $unwind$?filt$0@?0??CxxCallCatchBlock@__FrameHandler3@@SAPEAXPEAU_EXCEPTION_RECORD@@@Z@4HA 00000001400a0f48     libvcruntime:frame.obj
 0002:0003ff48       $unwind$?filt$0@?0??CxxCallCatchBlock@__FrameHandler4@@SAPEAXPEAU_EXCEPTION_RECORD@@@Z@4HA 00000001400a0f48     libvcruntime:frame.obj
 0002:0003ff48       $unwind$?filt$0@?0??FrameUnwindToState@__FrameHandler3@@SAXPEA_KPEAU_xDISPATCHER_CONTEXT@@PEBU_s_FuncInfo@@H@Z@4HA 00000001400a0f48     libvcruntime:frame.obj
 0002:0003ff48       $unwind$?fin$1@?0??FrameUnwindToState@__FrameHandler3@@SAXPEA_KPEAU_xDISPATCHER_CONTEXT@@PEBU_s_FuncInfo@@H@Z@4HA 00000001400a0f48     libvcruntime:frame.obj
 0002:0003ff50       $unwind$_raise_exc         00000001400a0f50     libucrt:fpexcept.obj
 0002:0003ff50       $unwind$?__scrt_throw_std_bad_alloc@@YAXXZ 00000001400a0f50     libcmt:throw_bad_alloc.obj
 0002:0003ff50       $unwind$?__scrt_throw_std_bad_array_new_length@@YAXXZ 00000001400a0f50     libcmt:throw_bad_alloc.obj
 0002:0003ff50       $unwind$?_Xlength_error@std@@YAXPEBD@Z 00000001400a0f50     libcpmt:xthrow.obj
 0002:0003ff50       $unwind$?_Xout_of_range@std@@YAXPEBD@Z 00000001400a0f50     libcpmt:xthrow.obj
 0002:0003ff50       $unwind$?_Xruntime_error@std@@YAXPEBD@Z 00000001400a0f50     libcpmt:xthrow.obj
 0002:0003ff58       $unwind$__isa_available_init 00000001400a0f58     libcmt:cpu_disp.obj
 0002:0003ff68       $unwind$__scrt_fastfail    00000001400a0f68     libcmt:utility_desktop.obj
 0002:0003ff78       $unwind$??$common_initialize_environment_nolock@D@@YAHXZ 00000001400a0f78     libucrt:environment_initialization.obj
 0002:0003ff78       $unwind$??$common_initialize_environment_nolock@_W@@YAHXZ 00000001400a0f78     libucrt:environment_initialization.obj
 0002:0003ff78       $unwind$islower            00000001400a0f78     libucrt:_ctype.obj
 0002:0003ff78       $unwind$isupper            00000001400a0f78     libucrt:_ctype.obj
 0002:0003ff78       $unwind$_callnewh          00000001400a0f78     libucrt:new_handler.obj
 0002:0003ff78       $unwind$_realloc_base      00000001400a0f78     libucrt:realloc_base.obj
 0002:0003ff78       $unwind$?replace_current_thread_locale_nolock@@YAXQEAU__acrt_ptd@@QEAU__crt_locale_data@@@Z 00000001400a0f78     libucrt:per_thread_data.obj
 0002:0003ff78       $unwind$__acrt_execute_uninitializers 00000001400a0f78     libucrt:shared_initialization.obj
 0002:0003ff78       $unwind$__acrt_GetUserDefaultLocaleName 00000001400a0f78     libucrt:winapi_thunks.obj
 0002:0003ff78       $unwind$__acrt_LocaleNameToLCID 00000001400a0f78     libucrt:winapi_thunks.obj
 0002:0003ff78       $unwind$__acrt_RtlGenRandom 00000001400a0f78     libucrt:winapi_thunks.obj
 0002:0003ff78       $unwind$GetLocaleNameFromLangCountry 00000001400a0f78     libucrt:get_qualified_locale.obj
 0002:0003ff78       $unwind$GetLocaleNameFromLanguage 00000001400a0f78     libucrt:get_qualified_locale.obj
 0002:0003ff78       $unwind$GetLcidFromLangCountry 00000001400a0f78     libucrt:getqloc_downlevel.obj
 0002:0003ff78       $unwind$GetLcidFromLanguage 00000001400a0f78     libucrt:getqloc_downlevel.obj
 0002:0003ff78       $unwind$?free_crt_array_internal@@YAXQEAPEBX_K@Z 00000001400a0f78     libucrt:inittime.obj
 0002:0003ff78       $unwind$_updatetlocinfoEx_nolock 00000001400a0f78     libucrt:locale_refcounting.obj
 0002:0003ff78       $unwind$__acrt_uninitialize_lowio 00000001400a0f78     libucrt:ioinit.obj
 0002:0003ff78       $unwind$?setSBCS@@YAXPEAU__crt_multibyte_data@@@Z 00000001400a0f78     libucrt:mbctype.obj
 0002:0003ff78       $unwind$_initterm_e        00000001400a0f78     libucrt:initterm.obj
 0002:0003ff78       $unwind$__acrt_stdio_allocate_buffer_nolock 00000001400a0f78     libucrt:_getbuf.obj
 0002:0003ff78       $unwind$__acrt_stdio_begin_temporary_buffering_nolock 00000001400a0f78     libucrt:_sftbuf.obj
 0002:0003ff78       $unwind$fgetpos            00000001400a0f78     libucrt:fgetpos.obj
 0002:0003ff78       $unwind$?common_fseek_binary_mode_read_only_fast_track_nolock@@YA_NV__crt_stdio_stream@@_JH@Z 00000001400a0f78     libucrt:fseek.obj
 0002:0003ff78       $unwind$_ungetc_nolock     00000001400a0f78     libucrt:ungetc.obj
 0002:0003ff78       $unwind$wcsncat_s          00000001400a0f78     libucrt:wcsncat_s.obj
 0002:0003ff78       $unwind$_RTC_Initialize    00000001400a0f78     libcmt:initsect.obj
 0002:0003ff78       $unwind$_RTC_Terminate     00000001400a0f78     libcmt:initsect.obj
 0002:0003ff78       $unwind$__scrt_unhandled_exception_filter 00000001400a0f78     libcmt:utility_desktop.obj
 0002:0003ff78       $unwind$??_G_Locimp@locale@std@@MEAAPEAXI@Z 00000001400a0f78     libcpmt:locale0.obj
 0002:0003ff78       $unwind$?_Locinfo_ctor@_Locinfo@std@@SAXPEAV12@PEBD@Z 00000001400a0f78     libcpmt:locale0.obj
 0002:0003ff78       $unwind$??0_Init_locks@std@@QEAA@XZ 00000001400a0f78     libcpmt:xlock.obj
 0002:0003ff78       $unwind$??_Glength_error@std@@UEAAPEAXI@Z 00000001400a0f78     libcpmt:xthrow.obj
 0002:0003ff78       $unwind$??_Glogic_error@std@@UEAAPEAXI@Z 00000001400a0f78     libcpmt:xthrow.obj
 0002:0003ff78       $unwind$??_Gout_of_range@std@@UEAAPEAXI@Z 00000001400a0f78     libcpmt:xthrow.obj
 0002:0003ff78       $unwind$__C_specific_handler_noexcept 00000001400a0f78     libvcruntime:chandler_noexcept.obj
 0002:0003ff78       $unwind$__FrameUnwindFilter 00000001400a0f78     libvcruntime:ehhelpers.obj
 0002:0003ff78       $unwind$?SetUnwindTryBlock@__FrameHandler3@@SAXPEA_KPEAU_xDISPATCHER_CONTEXT@@PEBU_s_FuncInfo@@H@Z 00000001400a0f78     libvcruntime:ehstate.obj
 0002:0003ff78       $unwind$??_Gbad_exception@std@@UEAAPEAXI@Z 00000001400a0f78     libvcruntime:frame.obj
 0002:0003ff78       $unwind$?ExFilterRethrowFH4@@YAHPEAU_EXCEPTION_POINTERS@@PEAUEHExceptionRecord@@HPEAH@Z 00000001400a0f78     libvcruntime:frame.obj
 0002:0003ff78       $unwind$__vcrt_getptd_noinit 00000001400a0f78     libvcruntime:per_thread_data.obj
 0002:0003ff78       $unwind$_FindAndUnlinkFrame 00000001400a0f78     libvcruntime:risctrnsctrl.obj
 0002:0003ff78       $unwind$__vcrt_FlsSetValue 00000001400a0f78     libvcruntime:winapi_downlevel.obj
 0002:0003ff84       $unwind$__security_init_cookie 00000001400a0f84     libcmt:gs_support.obj
 0002:0003ff90       $xdatasym                  00000001400a0f90     libcmt:guard_dispatch.obj
 0002:0003ff98       $xdatasym                  00000001400a0f98     libcmt:guard_xfg_dispatch.obj
 0002:0003ff9c       $unwind$?_Tidy@ios_base@std@@AEAAXXZ 00000001400a0f9c     libcpmt:ios.obj
 0002:0003ffb0       $cppxdata$?_Tidy@ios_base@std@@AEAAXXZ 00000001400a0fb0     libcpmt:ios.obj
 0002:0003ffb5       $ip2state$?_Tidy@ios_base@std@@AEAAXXZ 00000001400a0fb5     libcpmt:ios.obj
 0002:0003ffb8       $unwind$memcpy_s           00000001400a0fb8     libucrt:cfout.obj
 0002:0003ffb8       $unwind$??0_LocaleUpdate@@QEAA@QEAU__crt_locale_pointers@@@Z 00000001400a0fb8     libucrt:strtod.obj
 0002:0003ffb8       $unwind$memcpy_s           00000001400a0fb8     libucrt:strtod.obj
 0002:0003ffb8       $unwind$__acrt_getptd      00000001400a0fb8     libucrt:per_thread_data.obj
 0002:0003ffb8       $unwind$__acrt_getptd_noexit 00000001400a0fb8     libucrt:per_thread_data.obj
 0002:0003ffb8       $unwind$__acrt_getptd_noexit_explicit 00000001400a0fb8     libucrt:per_thread_data.obj
 0002:0003ffb8       $unwind$__acrt_execute_initializers 00000001400a0fb8     libucrt:shared_initialization.obj
 0002:0003ffb8       $unwind$__acrt_InitializeCriticalSectionEx 00000001400a0fb8     libucrt:winapi_thunks.obj
 0002:0003ffb8       $unwind$__acrt_locale_initialize_time 00000001400a0fb8     libucrt:inittime.obj
 0002:0003ffb8       $unwind$_close_nolock_internal 00000001400a0fb8     libucrt:close.obj
 0002:0003ffb8       $unwind$?value@?$dual_state_global@P6AXPEB_W00I_K@Z@__crt_state_management@@QEAAAEAP6AXPEB_W00I_K@ZAEAV__crt_cached_ptd_host@@@Z 00000001400a0fb8     libucrt:invalid_parameter.obj
 0002:0003ffb8       $unwind$__acrt_stdio_flush_and_write_narrow_nolock 00000001400a0fb8     libucrt:_flsbuf.obj
 0002:0003ffb8       $unwind$__acrt_stdio_flush_and_write_wide_nolock 00000001400a0fb8     libucrt:_flsbuf.obj
 0002:0003ffb8       $unwind$??$__acrt_stdio_parse_mode@D@@YA?AU__acrt_stdio_stream_mode@@QEBD@Z 00000001400a0fb8     libucrt:openfile.obj
 0002:0003ffb8       $unwind$?update_locale_slow@__crt_cached_ptd_host@@AEAAXXZ 00000001400a0fb8     libucrt:output.obj
 0002:0003ffb8       $unwind$??R<lambda_e8d85a8178367c0d1135ba66de989cf6>@@QEBA@XZ 00000001400a0fb8     libucrt:setvbuf.obj
 0002:0003ffb8       $unwind$strncpy_s          00000001400a0fb8     libucrt:strncpy_s.obj
 0002:0003ffb8       $unwind$wcsncpy_s          00000001400a0fb8     libucrt:wcsncpy_s.obj
 0002:0003ffb8       $unwind$fegetexceptflag    00000001400a0fb8     libucrt:fegetexceptflag.obj
 0002:0003ffb8       $unwind$_exception_enabled 00000001400a0fb8     libucrt:libm_error.obj
 0002:0003ffb8       $unwind$?_Fiopen@std@@YAPEAU_iobuf@@PEBDHH@Z 00000001400a0fb8     libcpmt:fiopen.obj
 0002:0003ffb8       $unwind$??4?$_Yarn@D@std@@QEAAAEAV01@PEBD@Z 00000001400a0fb8     libcpmt:locale0.obj
 0002:0003ffb8       $unwind$__vcrt_getptd_noexit 00000001400a0fb8     libvcruntime:per_thread_data.obj
 0002:0003ffb8       $unwind$?FrameUnwindToEmptyState@__FrameHandler3@@SAXPEA_KPEAU_xDISPATCHER_CONTEXT@@PEBU_s_FuncInfo@@@Z 00000001400a0fb8     libvcruntime:risctrnsctrl.obj
 0002:0003ffb8       $unwind$__vcrt_InitializeCriticalSectionEx 00000001400a0fb8     libvcruntime:winapi_downlevel.obj
 0002:0003ffc8       $unwind$iswctype           00000001400a0fc8     libucrt:iswctype.obj
 0002:0003ffc8       $unwind$?get_raw_ptd@__crt_cached_ptd_host@@QEAAPEAU__acrt_ptd@@XZ 00000001400a0fc8     libucrt:fwrite.obj
 0002:0003ffc8       $unwind$??$common_gmtime_s@_J@@YAHQEAUtm@@QEB_J@Z 00000001400a0fc8     libucrt:gmtime.obj
 0002:0003ffc8       $unwind$fesetenv           00000001400a0fc8     libucrt:fesetenv.obj
 0002:0003ffc8       $unwind$?_Locimp_dtor@_Locimp@locale@std@@CAXPEAV123@@Z 00000001400a0fc8     libcpmt:locale0.obj
 0002:0003ffd4       $unwind$??0_Locimp@locale@std@@AEAA@_N@Z 00000001400a0fd4     libcpmt:locale0.obj
 0002:0003ffe4       $unwind$?_Init@locale@std@@CAPEAV_Locimp@12@_N@Z 00000001400a0fe4     libcpmt:locale0.obj
 0002:00040000       $cppxdata$?_Init@locale@std@@CAPEAV_Locimp@12@_N@Z 00000001400a1000     libcpmt:locale0.obj
 0002:00040009       $stateUnwindMap$?_Init@locale@std@@CAPEAV_Locimp@12@_N@Z 00000001400a1009     libcpmt:locale0.obj
 0002:00040010       $ip2state$?_Init@locale@std@@CAPEAV_Locimp@12@_N@Z 00000001400a1010     libcpmt:locale0.obj
 0002:00040018       $unwind$??$common_xtox_s@K_W@@YAHKQEA_W_KI_N@Z 00000001400a1018     libucrt:xtoa.obj
 0002:00040018       $unwind$??0length_error@std@@QEAA@PEBD@Z 00000001400a1018     libcpmt:xthrow.obj
 0002:00040018       $unwind$??0out_of_range@std@@QEAA@PEBD@Z 00000001400a1018     libcpmt:xthrow.obj
 0002:00040018       $unwind$??0runtime_error@std@@QEAA@PEBD@Z 00000001400a1018     libcpmt:xthrow.obj
 0002:00040020       $unwind$_Tolower           00000001400a1020     libcpmt:_tolower.obj
 0002:00040030       $unwind$_Toupper           00000001400a1030     libcpmt:_toupper.obj
 0002:00040044       $unwind$??__Finit_atexit@@YAXXZ 00000001400a1044     libcpmt:iosptrs.obj
 0002:00040054       $cppxdata$??__Finit_atexit@@YAXXZ 00000001400a1054     libcpmt:iosptrs.obj
 0002:0004005d       $stateUnwindMap$??__Finit_atexit@@YAXXZ 00000001400a105d     libcpmt:iosptrs.obj
 0002:00040063       $ip2state$??__Finit_atexit@@YAXXZ 00000001400a1063     libcpmt:iosptrs.obj
 0002:00040068       $unwind$__crtLCMapStringA  00000001400a1068     libcpmt:StlLCMapStringA.obj
 0002:00040090       $unwind$?StateFromIp@__FrameHandler4@@SAHPEAUFuncInfo4@FH4@@PEAU_xDISPATCHER_CONTEXT@@_K@Z 00000001400a1090     libvcruntime:ehstate.obj
 0002:00040090       $unwind$?DecompFuncInfo@FH4@@YA_JPEAEAEAUFuncInfo4@1@_KH_N@Z 00000001400a1090     libvcruntime:risctrnsctrl.obj
 0002:000400a8       $unwind$__dcrt_get_wide_environment_from_os 00000001400a10a8     libucrt:get_environment_from_os.obj
 0002:000400a8       $unwind$??$common_getenv_nolock@_W@@YAPEA_WQEB_W@Z 00000001400a10a8     libucrt:getenv.obj
 0002:000400a8       $unwind$?should_round_up@@YA_NQEBD0HW4__acrt_has_trailing_digits@@W4__acrt_rounding_mode@@@Z 00000001400a10a8     libucrt:_fptostr.obj
 0002:000400a8       $unwind$_recalloc_base     00000001400a10a8     libucrt:recalloc.obj
 0002:000400a8       $unwind$__acrt_free_locale 00000001400a10a8     libucrt:locale_refcounting.obj
 0002:000400a8       $unwind$__acrt_lowio_create_handle_array 00000001400a10a8     libucrt:osfinfo.obj
 0002:000400a8       $unwind$_seh_filter_exe    00000001400a10a8     libucrt:exception_filter.obj
 0002:000400a8       $unwind$__acrt_stdio_flush_nolock 00000001400a10a8     libucrt:fflush.obj
 0002:000400a8       $unwind$??$ensure_buffer_is_big_enough@D@formatting_buffer@__crt_stdio_output@@QEAA_N_KAEAV__crt_cached_ptd_host@@@Z 00000001400a10a8     libucrt:output.obj
 0002:000400a8       $unwind$fesetexceptflag    00000001400a10a8     libucrt:fesetexceptflag.obj
 0002:000400a8       $unwind$?GetHandlerSearchState@__FrameHandler3@@SAHPEA_KPEAU_xDISPATCHER_CONTEXT@@PEBU_s_FuncInfo@@@Z 00000001400a10a8     libvcruntime:frame.obj
 0002:000400a8       $unwind$?Is_bad_exception_allowed@@YAEPEBU_s_ESTypeList@@@Z 00000001400a10a8     libvcruntime:frame.obj
 0002:000400a8       $unwind$?CatchTryBlock@__FrameHandler3@@SAPEBU_s_TryBlockMapEntry@@PEBU_s_FuncInfo@@H@Z 00000001400a10a8     libvcruntime:risctrnsctrl.obj
 0002:000400bc       $unwind$?GetEstablisherFrame@__FrameHandler3@@SAPEA_KPEA_KPEAU_xDISPATCHER_CONTEXT@@PEBU_s_FuncInfo@@0@Z 00000001400a10bc     libvcruntime:risctrnsctrl.obj
 0002:000400d4       $unwind$?UnwindNestedFrames@__FrameHandler3@@SAXPEA_KPEAUEHExceptionRecord@@PEAU_CONTEXT@@0PEAXPEBU_s_FuncInfo@@HHPEBU_s_HandlerType@@PEAU_xDISPATCHER_CONTEXT@@E@Z 00000001400a10d4     libvcruntime:risctrnsctrl.obj
 0002:000400d4       $unwind$?UnwindNestedFrames@__FrameHandler4@@SAXPEA_KPEAUEHExceptionRecord@@PEAU_CONTEXT@@0PEAXPEAUFuncInfo4@FH4@@HHPEAUHandlerType4@5@PEAU_xDISPATCHER_CONTEXT@@E@Z 00000001400a10d4     libvcruntime:risctrnsctrl.obj
 0002:000400e8       $unwind$__acrt_locale_initialize_numeric 00000001400a10e8     libucrt:initnum.obj
 0002:000400e8       $unwind$__C_specific_handler 00000001400a10e8     libvcruntime:riscchandler.obj
 0002:000400e8       $unwind$?GetRangeOfTrysToCheck@__FrameHandler3@@SA?AU?$pair@Viterator@TryBlockMap@__FrameHandler3@@V123@@std@@AEAVTryBlockMap@1@HPEAU_xDISPATCHER_CONTEXT@@PEBU_s_FuncInfo@@H@Z 00000001400a10e8     libvcruntime:risctrnsctrl.obj
 0002:00040104       $unwind$?GetRangeOfTrysToCheck@__FrameHandler4@@SA?AU?$pair@Viterator@TryBlockMap4@FH4@@V123@@std@@AEAVTryBlockMap4@FH4@@HPEAU_xDISPATCHER_CONTEXT@@PEAUFuncInfo4@5@H@Z 00000001400a1104     libvcruntime:risctrnsctrl.obj
 0002:00040120       $unwind$__CxxFrameHandler3 00000001400a1120     libvcruntime:risctrnsctrl.obj
 0002:00040134       $unwind$__CxxFrameHandler4 00000001400a1134     libvcruntime:risctrnsctrl.obj
 0002:00040148       $unwind$??$_CallSETranslator@V__FrameHandler4@@@@YAHPEAUEHExceptionRecord@@PEA_KPEAU_CONTEXT@@PEAU_xDISPATCHER_CONTEXT@@PEAUFuncInfo4@FH4@@K1H@Z 00000001400a1148     libvcruntime:risctrnsctrl.obj
 0002:00040168       $unwind$?filt$0@?0???$_CallSETranslator@V__FrameHandler3@@@@YAHPEAUEHExceptionRecord@@PEA_KPEAU_CONTEXT@@PEAU_xDISPATCHER_CONTEXT@@PEBU_s_FuncInfo@@K1H@Z@4HA 00000001400a1168     libvcruntime:risctrnsctrl.obj
 0002:00040168       $unwind$?filt$0@?0???$_CallSETranslator@V__FrameHandler4@@@@YAHPEAUEHExceptionRecord@@PEA_KPEAU_CONTEXT@@PEAU_xDISPATCHER_CONTEXT@@PEAUFuncInfo4@FH4@@K1H@Z@4HA 00000001400a1168     libvcruntime:risctrnsctrl.obj
 0002:00040174       $unwind$??$_CallSETranslator@V__FrameHandler3@@@@YAHPEAUEHExceptionRecord@@PEA_KPEAU_CONTEXT@@PEAU_xDISPATCHER_CONTEXT@@PEBU_s_FuncInfo@@K1H@Z 00000001400a1174     libvcruntime:risctrnsctrl.obj
 0002:00040194       $unwind$_CxxThrowException 00000001400a1194     libvcruntime:throw.obj
 0002:000401a4       $unwind$__DestructExceptionObject 00000001400a11a4     libvcruntime:ehhelpers.obj
 0002:000401c4       $unwind$__DestructExceptionObject$filt$0 00000001400a11c4     libvcruntime:ehhelpers.obj
 0002:000401c4       $unwind$?fin$1@?0??CxxCallCatchBlock@__FrameHandler3@@SAPEAXPEAU_EXCEPTION_RECORD@@@Z@4HA 00000001400a11c4     libvcruntime:frame.obj
 0002:000401c4       $unwind$?fin$1@?0??CxxCallCatchBlock@__FrameHandler4@@SAPEAXPEAU_EXCEPTION_RECORD@@@Z@4HA 00000001400a11c4     libvcruntime:frame.obj
 0002:000401d0       $xdatasym$memcpy_repmovs   00000001400a11d0     libvcruntime:memcpy.obj
 0002:000401d0       $xdatasym$memcpy_repmovs_Intel 00000001400a11d0     libvcruntime:memcpy_repmovs.obj
 0002:000401d0       $xdatasym$memcpy_repmovs_amd 00000001400a11d0     libvcruntime:memcpy_repmovs_amd.obj
 0002:000401e0       $xdatasym$memcmp           00000001400a11e0     libvcruntime:memcmp.obj
 0002:000401e0       $xdatasym$memcpy           00000001400a11e0     libvcruntime:memcpy.obj
 0002:000401e0       $xdatasym$memcpy_CopyDown_Intel 00000001400a11e0     libvcruntime:memcpy_CopyDown.obj
 0002:000401e0       $xdatasym$memcpy_CopyDown_amd 00000001400a11e0     libvcruntime:memcpy_CopyDown_amd.obj
 0002:000401e0       $xdatasym$memcpy_avx_ermsb_Intel 00000001400a11e0     libvcruntime:memcpy_avx_ermsb_aligned.obj
 0002:000401e0       $xdatasym$memcpy_avx_ermsb_amd 00000001400a11e0     libvcruntime:memcpy_avx_ermsb_aligned_amd.obj
 0002:000401e0       $xdatasym$memcpy_sse2_ermsb_Intel 00000001400a11e0     libvcruntime:memcpy_sse2_ermsb_aligned.obj
 0002:000401e0       $xdatasym$memcpy_sse2_ermsb_amd 00000001400a11e0     libvcruntime:memcpy_sse2_ermsb_aligned_amd.obj
 0002:000401e0       $xdatasym$memset           00000001400a11e0     libvcruntime:memset.obj
 0002:000401e0       $xdatasym$_NLG_Notify      00000001400a11e0     libvcruntime:notify.obj
 0002:000401e0       $xdatasym$__NLG_Dispatch2  00000001400a11e0     libvcruntime:notify.obj
 0002:000401e0       $xdatasym$__NLG_Return2    00000001400a11e0     libvcruntime:notify.obj
 0002:000401e4       $unwind$_free_osfhnd       00000001400a11e4     libucrt:osfinfo.obj
 0002:000401e4       $unwind$__acrt_stdio_refill_and_read_narrow_nolock 00000001400a11e4     libucrt:_filbuf.obj
 0002:000401e4       $unwind$?compute_year@@YAHAEA_JAEA_N@Z 00000001400a11e4     libucrt:gmtime.obj
 0002:000401e4       $unwind$__std_exception_copy 00000001400a11e4     libvcruntime:std_exception.obj
 0002:000401f8       $xdatasym$memset_repstos   00000001400a11f8     libvcruntime:memset.obj
 0002:00040208       $unwind$?getStartStop@UWMap4@FH4@@QEAAXHHAEAViterator@12@0@Z 00000001400a1208     libvcruntime:frame.obj
 0002:00040220       $unwind$?commit_locale_name@_expandlocale_locale_name_cache@@QEAAXQEB_W_K@Z 00000001400a1220     libucrt:wsetlocale.obj
 0002:00040220       $unwind$__acrt_copy_locale_name 00000001400a1220     libucrt:wsetlocale.obj
 0002:00040220       $unwind$?getStateFromIterators@UWMap4@FH4@@SAHAEBViterator@12@H0H0@Z 00000001400a1220     libvcruntime:frame.obj
 0002:00040230       $unwind$?FrameUnwindToState@__FrameHandler3@@SAXPEA_KPEAU_xDISPATCHER_CONTEXT@@PEBU_s_FuncInfo@@H@Z 00000001400a1230     libvcruntime:frame.obj
 0002:0004027c       $unwind$?CxxCallCatchBlock@__FrameHandler3@@SAPEAXPEAU_EXCEPTION_RECORD@@@Z 00000001400a127c     libvcruntime:frame.obj
 0002:000402b8       $unwind$?FrameUnwindToState@__FrameHandler4@@SAXPEA_KPEAU_xDISPATCHER_CONTEXT@@PEAUFuncInfo4@FH4@@H@Z 00000001400a12b8     libvcruntime:frame.obj
 0002:00040300       $unwind$?fin$0@?0???$common_getenv_s@_W@@YAHQEA_KQEA_W_KQEB_W@Z@4HA 00000001400a1300     libucrt:getenv.obj
 0002:00040300       $unwind$?fin$0@?0???$common_lseek@_J@@YA_JH_JHAEAV__crt_cached_ptd_host@@@Z@4HA 00000001400a1300     libucrt:lseek.obj
 0002:00040300       $unwind$_write_internal$fin$0 00000001400a1300     libucrt:write.obj
 0002:00040300       $unwind$?fin$0@?0??_fclose_internal@@YAHQEAU_iobuf@@AEAV__crt_cached_ptd_host@@@Z@4HA 00000001400a1300     libucrt:fclose.obj
 0002:00040300       $unwind$?fin$0@?0??_fputc_internal@@YAHHQEAU_iobuf@@AEAV__crt_cached_ptd_host@@@Z@4HA 00000001400a1300     libucrt:fputc.obj
 0002:00040300       $unwind$?fin$0@?0??_fputwc_internal@@YAG_WQEAU_iobuf@@AEAV__crt_cached_ptd_host@@@Z@4HA 00000001400a1300     libucrt:fputwc.obj
 0002:00040300       $unwind$fread_s$fin$0      00000001400a1300     libucrt:fread.obj
 0002:00040300       $unwind$?fin$0@?0??common_fseek@@YAHV__crt_stdio_stream@@_JHAEAV__crt_cached_ptd_host@@@Z@4HA 00000001400a1300     libucrt:fseek.obj
 0002:00040300       $unwind$?fin$0@?0???$common_ftell@_J@@YA_JV__crt_stdio_stream@@AEAV__crt_cached_ptd_host@@@Z@4HA 00000001400a1300     libucrt:ftell.obj
 0002:00040300       $unwind$?filt$0@?0??FrameUnwindToState@__FrameHandler4@@SAXPEA_KPEAU_xDISPATCHER_CONTEXT@@PEAUFuncInfo4@FH4@@H@Z@4HA 00000001400a1300     libvcruntime:frame.obj
 0002:00040300       $unwind$?fin$1@?0??FrameUnwindToState@__FrameHandler4@@SAXPEA_KPEAU_xDISPATCHER_CONTEXT@@PEAUFuncInfo4@FH4@@H@Z@4HA 00000001400a1300     libvcruntime:frame.obj
 0002:00040308       $unwind$?CxxCallCatchBlock@__FrameHandler4@@SAPEAXPEAU_EXCEPTION_RECORD@@@Z 00000001400a1308     libvcruntime:frame.obj
 0002:00040364       $unwind$?IsInExceptionSpec@@YAEPEAUEHExceptionRecord@@PEBU_s_ESTypeList@@@Z 00000001400a1364     libvcruntime:frame.obj
 0002:00040380       $unwind$??$__InternalCxxFrameHandlerWrapper@V__FrameHandler4@@@@YA?AW4_EXCEPTION_DISPOSITION@@PEAUEHExceptionRecord@@PEA_KPEAU_CONTEXT@@PEAU_xDISPATCHER_CONTEXT@@PEAUFuncInfo4@FH4@@H1E@Z 00000001400a1380     libvcruntime:frame.obj
 0002:000403a0       $unwind$?fin$0@?0???$common_sopen_dispatch@D@@YAHQEBDHHHQEAHH@Z@4HA 00000001400a13a0     libucrt:open.obj
 0002:000403a0       $unwind$?fin$0@?0???$__InternalCxxFrameHandlerWrapper@V__FrameHandler4@@@@YA?AW4_EXCEPTION_DISPOSITION@@PEAUEHExceptionRecord@@PEA_KPEAU_CONTEXT@@PEAU_xDISPATCHER_CONTEXT@@PEAUFuncInfo4@FH4@@H1E@Z@4HA 00000001400a13a0     libvcruntime:frame.obj
 0002:000403a8       $unwind$?initialize_stdio_handles_nolock@@YAXXZ 00000001400a13a8     libucrt:ioinit.obj
 0002:000403a8       $unwind$__acrt_lowio_set_os_handle 00000001400a13a8     libucrt:osfinfo.obj
 0002:000403a8       $unwind$__acrt_initialize_stdio 00000001400a13a8     libucrt:_file.obj
 0002:000403a8       $unwind$?common_fseek_nolock@@YAHV__crt_stdio_stream@@_JHAEAV__crt_cached_ptd_host@@@Z 00000001400a13a8     libucrt:fseek.obj
 0002:000403a8       $unwind$__GSHandlerCheck_EH 00000001400a13a8     libcmt:gshandlereh.obj
 0002:000403a8       $unwind$__GSHandlerCheck_SEH 00000001400a13a8     libcmt:gshandlerseh.obj
 0002:000403a8       $unwind$??$TypeMatchHelper@V__FrameHandler3@@@@YAHPEBU_s_HandlerType@@PEBU_s_CatchableType@@PEBU_s_ThrowInfo@@@Z 00000001400a13a8     libvcruntime:frame.obj
 0002:000403c0       $unwind$?fp_format_f_internal@@YAHQEAD_KHQEAU_strflt@@_NAEAV__crt_cached_ptd_host@@@Z 00000001400a13c0     libucrt:cvt.obj
 0002:000403c0       $unwind$??$common_xtox@K_W@@YAHKQEA_W_KI_N@Z 00000001400a13c0     libucrt:xtoa.obj
 0002:000403c0       $unwind$TranslateName      00000001400a13c0     libucrt:getqloc_downlevel.obj
 0002:000403c0       $unwind$__acrt_DownlevelLocaleNameToLCID 00000001400a13c0     libucrt:lcidtoname_downlevel.obj
 0002:000403c0       $unwind$??R<lambda_22ebabd17bc4fa466a2aca6d8deb888d>@@QEBA@XZ 00000001400a13c0     libucrt:onexit.obj
 0002:000403c0       $unwind$??R<lambda_f03950bc5685219e0bcd2087efbe011e>@@QEBA@XZ 00000001400a13c0     libucrt:onexit.obj
 0002:000403c0       $unwind$?write_string_impl@?$output_adapter_common@DV?$stream_output_adapter@D@__crt_stdio_output@@@__crt_stdio_output@@IEBAXQEBDHQEAHAEAV__crt_cached_ptd_host@@@Z 00000001400a13c0     libucrt:output.obj
 0002:000403c0       $unwind$??$TypeMatchHelper@V__FrameHandler4@@@@YAHPEAUHandlerType4@FH4@@PEBU_s_CatchableType@@PEBU_s_ThrowInfo@@@Z 00000001400a13c0     libvcruntime:frame.obj
 0002:000403d8       $unwind$??$BuildCatchObjectHelperInternal@V__FrameHandler3@@@@YAHPEAUEHExceptionRecord@@PEAXPEBU_s_HandlerType@@PEBU_s_CatchableType@@@Z 00000001400a13d8     libvcruntime:frame.obj
 0002:00040418       $unwind$??$BuildCatchObjectHelperInternal@V__FrameHandler4@@@@YAHPEAUEHExceptionRecord@@PEAXPEAUHandlerType4@FH4@@PEBU_s_CatchableType@@@Z 00000001400a1418     libvcruntime:frame.obj
 0002:00040458       $unwind$??$BuildCatchObjectInternal@V__FrameHandler3@@@@YAXPEAUEHExceptionRecord@@PEAXPEBU_s_HandlerType@@PEBU_s_CatchableType@@@Z 00000001400a1458     libvcruntime:frame.obj
 0002:00040484       $unwind$??$BuildCatchObjectInternal@V__FrameHandler4@@@@YAXPEAUEHExceptionRecord@@PEAXPEAUHandlerType4@FH4@@PEBU_s_CatchableType@@@Z 00000001400a1484     libvcruntime:frame.obj
 0002:000404b0       $unwind$?fp_format_e@@YAHQEBNQEAD_K12H_NIW4__acrt_rounding_mode@@AEAV__crt_cached_ptd_host@@@Z 00000001400a14b0     libucrt:cvt.obj
 0002:000404b0       $unwind$__acrt_CompareStringW 00000001400a14b0     libucrt:comparestringw.obj
 0002:000404b0       $unwind$??$__InternalCxxFrameHandler@V__FrameHandler3@@@@YA?AW4_EXCEPTION_DISPOSITION@@PEAUEHExceptionRecord@@PEA_KPEAU_CONTEXT@@PEAU_xDISPATCHER_CONTEXT@@PEBU_s_FuncInfo@@H1E@Z 00000001400a14b0     libvcruntime:frame.obj
 0002:000404c8       $unwind$??$__InternalCxxFrameHandler@V__FrameHandler4@@@@YA?AW4_EXCEPTION_DISPOSITION@@PEAUEHExceptionRecord@@PEA_KPEAU_CONTEXT@@PEAU_xDISPATCHER_CONTEXT@@PEAUFuncInfo4@FH4@@H1E@Z 00000001400a14c8     libvcruntime:frame.obj
 0002:000404e0       $unwind$??$FindHandler@V__FrameHandler3@@@@YAXPEAUEHExceptionRecord@@PEA_KPEAU_CONTEXT@@PEAU_xDISPATCHER_CONTEXT@@PEBU_s_FuncInfo@@EH1@Z 00000001400a14e0     libvcruntime:frame.obj
 0002:00040500       $unwind$??$FindHandler@V__FrameHandler4@@@@YAXPEAUEHExceptionRecord@@PEA_KPEAU_CONTEXT@@PEAU_xDISPATCHER_CONTEXT@@PEAUFuncInfo4@FH4@@EH1@Z 00000001400a1500     libvcruntime:frame.obj
 0002:00040520       $unwind$??$CatchIt@V__FrameHandler3@@@@YAXPEAUEHExceptionRecord@@PEA_KPEAU_CONTEXT@@PEAU_xDISPATCHER_CONTEXT@@PEBU_s_FuncInfo@@PEBU_s_HandlerType@@PEBU_s_CatchableType@@PEBU_s_TryBlockMapEntry@@H1EE@Z 00000001400a1520     libvcruntime:frame.obj
 0002:00040520       $unwind$??$CatchIt@V__FrameHandler4@@@@YAXPEAUEHExceptionRecord@@PEA_KPEAU_CONTEXT@@PEAU_xDISPATCHER_CONTEXT@@PEAUFuncInfo4@FH4@@PEAUHandlerType4@4@PEBU_s_CatchableType@@PEAUTryBlockMapEntry4@4@H1EE@Z 00000001400a1520     libvcruntime:frame.obj
 0002:00040538       $unwind$??$FindHandlerForForeignException@V__FrameHandler3@@@@YAXPEAUEHExceptionRecord@@PEA_KPEAU_CONTEXT@@PEAU_xDISPATCHER_CONTEXT@@PEBU_s_FuncInfo@@HH1@Z 00000001400a1538     libvcruntime:frame.obj
 0002:00040554       $unwind$??$FindHandlerForForeignException@V__FrameHandler4@@@@YAXPEAUEHExceptionRecord@@PEA_KPEAU_CONTEXT@@PEAU_xDISPATCHER_CONTEXT@@PEAUFuncInfo4@FH4@@HH1@Z 00000001400a1554     libvcruntime:frame.obj
 0002:00040578       $unwind$?try_get_function@@YAPEAXW4function_id@?A0x391cf84c@@QEBDQEBW4module_id@2@2@Z 00000001400a1578     libucrt:winapi_thunks.obj
 0002:00040578       $unwind$??$parse_command_line@D@@YAXPEADPEAPEAD0PEA_K2@Z 00000001400a1578     libucrt:argv_parsing.obj
 0002:00040578       $unwind$?try_get_function@@YAPEAXW4function_id@?A0x14174aea@@QEBDQEBW4module_id@2@2@Z 00000001400a1578     libvcruntime:winapi_downlevel.obj
 0002:00040598       $unwind$_wtol              00000001400a1598     libucrt:atox.obj
 0002:00040598       $unwind$mbstowcs_s         00000001400a1598     libucrt:mbstowcs.obj
 0002:00040598       $unwind$wcstol             00000001400a1598     libucrt:strtox.obj
 0002:00040598       $unwind$_wcstombs_s_l      00000001400a1598     libucrt:wcstombs.obj
 0002:00040598       $unwind$fwrite             00000001400a1598     libucrt:fwrite.obj
 0002:000405a8       $unwind$_fwrite_nolock_internal 00000001400a15a8     libucrt:fwrite.obj
 0002:000405c4       $unwind$_fwrite_internal   00000001400a15c4     libucrt:fwrite.obj
 0002:000405cc       $unwind$??$initialize_environment_by_cloning_nolock@_W@@YAHXZ 00000001400a15cc     libucrt:environment_initialization.obj
 0002:000405cc       $unwind$__acrt_fp_strflt_to_string 00000001400a15cc     libucrt:_fptostr.obj
 0002:000405cc       $unwind$__acrt_GetLocaleInfoEx 00000001400a15cc     libucrt:winapi_thunks.obj
 0002:000405cc       $unwind$__acrt_LCIDToLocaleName 00000001400a15cc     libucrt:winapi_thunks.obj
 0002:000405cc       $unwind$__acrt_DownlevelLCIDToLocaleName 00000001400a15cc     libucrt:lcidtoname_downlevel.obj
 0002:000405cc       $unwind$__lc_lctowcs       00000001400a15cc     libucrt:wsetlocale.obj
 0002:000405cc       $unwind$??$common_lseek_nolock@_J@@YA_JH_JHAEAV__crt_cached_ptd_host@@@Z 00000001400a15cc     libucrt:lseek.obj
 0002:000405cc       $unwind$_invalid_parameter_internal 00000001400a15cc     libucrt:invalid_parameter.obj
 0002:000405cc       $unwind$??R<lambda_26974eb511f701c600fccfa2a97a8e1b>@@QEBA_KXZ 00000001400a15cc     libucrt:fwrite.obj
 0002:000405cc       $unwind$_wcsdup            00000001400a15cc     libucrt:wcsdup.obj
 0002:000405e0       $unwind$??$?RV<lambda_a2589f19c515cac03caf6db9c38355e9>@@AEAV<lambda_26974eb511f701c600fccfa2a97a8e1b>@@V<lambda_ad9ce2f38261e34e8a422b9cc35dfe8d>@@@?$__crt_seh_guarded_call@_K@@QEAA_K$$QEAV<lambda_a2589f19c515cac03caf6db9c38355e9>@@AEAV<lambda_26974eb511f701c600fccfa2a97a8e1b>@@$$QEAV<lambda_ad9ce2f38261e34e8a422b9cc35dfe8d>@@@Z 00000001400a15e0     libucrt:fwrite.obj
 0002:00040604       $unwind$_chsize_nolock     00000001400a1604     libucrt:chsize.obj
 0002:00040604       $unwind$_close_nolock      00000001400a1604     libucrt:close.obj
 0002:00040604       $unwind$_lseeki64          00000001400a1604     libucrt:lseek.obj
 0002:00040604       $unwind$_lseeki64_nolock   00000001400a1604     libucrt:lseek.obj
 0002:00040604       $unwind$_write             00000001400a1604     libucrt:write.obj
 0002:00040604       $unwind$fclose             00000001400a1604     libucrt:fclose.obj
 0002:00040604       $unwind$_fflush_nolock     00000001400a1604     libucrt:fflush.obj
 0002:00040604       $unwind$fputc              00000001400a1604     libucrt:fputc.obj
 0002:00040604       $unwind$fputwc             00000001400a1604     libucrt:fputwc.obj
 0002:00040604       $unwind$_fseeki64          00000001400a1604     libucrt:fseek.obj
 0002:00040604       $unwind$fseek              00000001400a1604     libucrt:fseek.obj
 0002:00040604       $unwind$_ftelli64          00000001400a1604     libucrt:ftell.obj
 0002:00040614       $unwind$?_fclose_nolock_internal@@YAHQEAU_iobuf@@AEAV__crt_cached_ptd_host@@@Z 00000001400a1614     libucrt:fclose.obj
 0002:00040614       $unwind$??$common_ftell_nolock@_J@@YA_JV__crt_stdio_stream@@AEAV__crt_cached_ptd_host@@@Z 00000001400a1614     libucrt:ftell.obj
 0002:00040624       $unwind$?_fclose_internal@@YAHQEAU_iobuf@@AEAV__crt_cached_ptd_host@@@Z 00000001400a1624     libucrt:fclose.obj
 0002:00040648       $unwind$?_fputc_internal@@YAHHQEAU_iobuf@@AEAV__crt_cached_ptd_host@@@Z 00000001400a1648     libucrt:fputc.obj
 0002:00040680       $unwind$ungetc             00000001400a1680     libucrt:ungetc.obj
 0002:000406a4       $unwind$fgetc              00000001400a16a4     libucrt:fgetc.obj
 0002:000406d8       $unwind$__acrt_call_reportfault 00000001400a16d8     libucrt:invalid_parameter.obj
 0002:000406f8       $unwind$ProcessCodePage    00000001400a16f8     libucrt:get_qualified_locale.obj
 0002:000406f8       $unwind$ProcessCodePage    00000001400a16f8     libucrt:getqloc_downlevel.obj
 0002:000406f8       $unwind$TestDefaultLanguage 00000001400a16f8     libucrt:getqloc_downlevel.obj
 0002:000406f8       $unwind$?get_raw_ptd_noexit@__crt_cached_ptd_host@@QEAAPEAU__acrt_ptd@@XZ 00000001400a16f8     libucrt:invalid_parameter.obj
 0002:00040708       $unwind$_invalid_parameter 00000001400a1708     libucrt:invalid_parameter.obj
 0002:00040714       $unwind$fread_s            00000001400a1714     libucrt:fread.obj
 0002:00040744       $unwind$_fread_nolock_s    00000001400a1744     libucrt:fread.obj
 0002:0004075c       $unwind$?common_fseek@@YAHV__crt_stdio_stream@@_JHAEAV__crt_cached_ptd_host@@@Z 00000001400a175c     libucrt:fseek.obj
 0002:00040788       $unwind$__stdio_common_vfprintf 00000001400a1788     libucrt:output.obj
 0002:00040788       $unwind$setvbuf            00000001400a1788     libucrt:setvbuf.obj
 0002:00040798       $unwind$??$?RV<lambda_9291da6fb19fed9e7668d36b7e9903ee>@@AEAV<lambda_e8d85a8178367c0d1135ba66de989cf6>@@V<lambda_2aa1c5fac2b3ecd63b0b04056e47917d>@@@?$__crt_seh_guarded_call@H@@QEAAH$$QEAV<lambda_9291da6fb19fed9e7668d36b7e9903ee>@@AEAV<lambda_e8d85a8178367c0d1135ba66de989cf6>@@$$QEAV<lambda_2aa1c5fac2b3ecd63b0b04056e47917d>@@@Z 00000001400a1798     libucrt:setvbuf.obj
 0002:000407bc       $unwind$?common_flush_all@@YAH_N@Z 00000001400a17bc     libucrt:fflush.obj
 0002:000407c4       $unwind$??$?RV<lambda_842d9ff0dc9ef11c61343bbaebe7f885>@@AEAV<lambda_c5860995281e5c4ce005b3de8f5874ee>@@V<lambda_d90129c13df834fdcbf8d2b88dafcf2d>@@@?$__crt_seh_guarded_call@X@@QEAAX$$QEAV<lambda_842d9ff0dc9ef11c61343bbaebe7f885>@@AEAV<lambda_c5860995281e5c4ce005b3de8f5874ee>@@$$QEAV<lambda_d90129c13df834fdcbf8d2b88dafcf2d>@@@Z 00000001400a17c4     libucrt:fflush.obj
 0002:000407e8       $unwind$??$?RV<lambda_886d6c58226a84441f68b9f2b8217b83>@@AEAV<lambda_ab61a845afdef5b7c387490eaf3616ee>@@V<lambda_f7f22ab5edc0698d5f6905b0d3f44752>@@@?$__crt_seh_guarded_call@X@@QEAAX$$QEAV<lambda_886d6c58226a84441f68b9f2b8217b83>@@AEAV<lambda_ab61a845afdef5b7c387490eaf3616ee>@@$$QEAV<lambda_f7f22ab5edc0698d5f6905b0d3f44752>@@@Z 00000001400a17e8     libucrt:fflush.obj
 0002:00040810       $unwind$??$?RV<lambda_c376a267cfb53b6959b3b692ec76b120>@@AEAV<lambda_9a32fed5bf61b6b509b2d3f6003082a1>@@V<lambda_572fbb9fa0ab338edf41edfd4b5fcc8d>@@@?$__crt_seh_guarded_call@H@@QEAAH$$QEAV<lambda_c376a267cfb53b6959b3b692ec76b120>@@AEAV<lambda_9a32fed5bf61b6b509b2d3f6003082a1>@@$$QEAV<lambda_572fbb9fa0ab338edf41edfd4b5fcc8d>@@@Z 00000001400a1810     libucrt:fflush.obj
 0002:00040838       $xdatasym                  00000001400a1838     libucrt:strlen.obj
 0002:0004083c       $unwind$??$create_environment@D@@YAQEAPEADQEAD@Z 00000001400a183c     libucrt:environment_initialization.obj
 0002:0004083c       $unwind$??$copy_environment@_W@@YAPEAPEA_WQEAPEA_W@Z 00000001400a183c     libucrt:setenv.obj
 0002:0004083c       $unwind$_mbtowc_internal   00000001400a183c     libucrt:mbtowc.obj
 0002:0004083c       $unwind$??$type_case_integer@$07@?$output_processor@DV?$stream_output_adapter@D@__crt_stdio_output@@V?$standard_base@DV?$stream_output_adapter@D@__crt_stdio_output@@@2@@__crt_stdio_output@@AEAA_N_N@Z 00000001400a183c     libucrt:output.obj
 0002:0004083c       $unwind$??$type_case_integer@$09@?$output_processor@DV?$stream_output_adapter@D@__crt_stdio_output@@V?$standard_base@DV?$stream_output_adapter@D@__crt_stdio_output@@@2@@__crt_stdio_output@@AEAA_N_N@Z 00000001400a183c     libucrt:output.obj
 0002:0004083c       $unwind$??$type_case_integer@$0BA@@?$output_processor@DV?$stream_output_adapter@D@__crt_stdio_output@@V?$standard_base@DV?$stream_output_adapter@D@__crt_stdio_output@@@2@@__crt_stdio_output@@AEAA_N_N@Z 00000001400a183c     libucrt:output.obj
 0002:0004083c       $unwind$?process@?$output_processor@DV?$stream_output_adapter@D@__crt_stdio_output@@V?$standard_base@DV?$stream_output_adapter@D@__crt_stdio_output@@@2@@__crt_stdio_output@@QEAAHXZ 00000001400a183c     libucrt:output.obj
 0002:0004083c       $unwind$??R<lambda_8abd18a77b33e1dd4bdebee267cfa707>@@QEBAHXZ 00000001400a183c     libucrt:puts.obj
 0002:0004083c       $unwind$??$__acrt_convert_wcs_mbs_cp@D_WV<lambda_7c9dea7b4ca7285d2cdb541a38da6275>@@U__crt_win32_buffer_internal_dynamic_resizing@@@@YAHQEBDAEAV?$__crt_win32_buffer@_WU__crt_win32_buffer_internal_dynamic_resizing@@@@AEBV<lambda_7c9dea7b4ca7285d2cdb541a38da6275>@@I@Z 00000001400a183c     libucrt:strftime.obj
 0002:00040854       $unwind$?parse_int_from_format_string@?$output_processor@DV?$stream_output_adapter@D@__crt_stdio_output@@V?$standard_base@DV?$stream_output_adapter@D@__crt_stdio_output@@@2@@__crt_stdio_output@@AEAA_NQEAH@Z 00000001400a1854     libucrt:output.obj
 0002:00040868       $unwind$?state_case_type@?$output_processor@DV?$stream_output_adapter@D@__crt_stdio_output@@V?$standard_base@DV?$stream_output_adapter@D@__crt_stdio_output@@@2@@__crt_stdio_output@@AEAA_NXZ 00000001400a1868     libucrt:output.obj
 0002:00040888       $unwind$parse_bcp47_language 00000001400a1888     libucrt:wsetlocale.obj
 0002:00040888       $unwind$parse_bcp47_script 00000001400a1888     libucrt:wsetlocale.obj
 0002:00040888       $unwind$?type_case_c_tchar@?$output_processor@DV?$stream_output_adapter@D@__crt_stdio_output@@V?$standard_base@DV?$stream_output_adapter@D@__crt_stdio_output@@@2@@__crt_stdio_output@@AEAA_ND@Z 00000001400a1888     libucrt:output.obj
 0002:00040888       $unwind$?type_case_n@?$output_processor@DV?$stream_output_adapter@D@__crt_stdio_output@@V?$standard_base@DV?$stream_output_adapter@D@__crt_stdio_output@@@2@@__crt_stdio_output@@AEAA_NXZ 00000001400a1888     libucrt:output.obj
 0002:00040894       $unwind$?type_case_a@?$output_processor@DV?$stream_output_adapter@D@__crt_stdio_output@@V?$standard_base@DV?$stream_output_adapter@D@__crt_stdio_output@@@2@@__crt_stdio_output@@AEAA_NXZ 00000001400a1894     libucrt:output.obj
 0002:000408a8       $unwind$??R<lambda_303760bc4008a2b3ec4768a30b06a80c>@@QEBAHXZ 00000001400a18a8     libucrt:output.obj
 0002:000408cc       $unwind$??$?RV<lambda_d854c62834386a3b23916ad6dae2782d>@@AEAV<lambda_303760bc4008a2b3ec4768a30b06a80c>@@V<lambda_4780a7ea4f8cbd2590aec34bd14e2bbf>@@@?$__crt_seh_guarded_call@H@@QEAAH$$QEAV<lambda_d854c62834386a3b23916ad6dae2782d>@@AEAV<lambda_303760bc4008a2b3ec4768a30b06a80c>@@$$QEAV<lambda_4780a7ea4f8cbd2590aec34bd14e2bbf>@@@Z 00000001400a18cc     libucrt:output.obj
 0002:000408f0       $unwind$??$common_set_variable_in_environment_nolock@_W@@YAHQEA_WH@Z 00000001400a18f0     libucrt:setenv.obj
 0002:000408f0       $unwind$_wsetlocale_get_all 00000001400a18f0     libucrt:wsetlocale.obj
 0002:000408f0       $unwind$??$copy_and_add_argument_to_buffer@D@@YAHQEBD0_KAEAV?$argument_list@D@?A0x5f5c8891@@@Z 00000001400a18f0     libucrt:argv_wildcards.obj
 0002:000408f0       $unwind$??$parse_integer@KV?$c_string_character_source@D@__crt_strtox@@$0A@@__crt_strtox@@YAKAEAV__crt_cached_ptd_host@@V?$c_string_character_source@D@0@H_N@Z 00000001400a18f0     libucrt:output.obj
 0002:0004090c       $unwind$??$type_case_integer_parse_into_buffer@I$09@?$output_processor@DV?$stream_output_adapter@D@__crt_stdio_output@@V?$standard_base@DV?$stream_output_adapter@D@__crt_stdio_output@@@2@@__crt_stdio_output@@AEAAXI_N@Z 00000001400a190c     libucrt:output.obj
 0002:0004090c       $unwind$??$type_case_integer_parse_into_buffer@_K$09@?$output_processor@DV?$stream_output_adapter@D@__crt_stdio_output@@V?$standard_base@DV?$stream_output_adapter@D@__crt_stdio_output@@@2@@__crt_stdio_output@@AEAAX_K_N@Z 00000001400a190c     libucrt:output.obj
 0002:0004090c       $unwind$strrchr            00000001400a190c     libvcruntime:strrchr.obj
 0002:00040914       $unwind$puts               00000001400a1914     libucrt:puts.obj
 0002:00040924       $unwind$??$?RV<lambda_7ea02354adac61b93e3a5c2c4100d85b>@@AEAV<lambda_8abd18a77b33e1dd4bdebee267cfa707>@@V<lambda_eba452c8b8afd9ffb9102a507ee4e553>@@@?$__crt_seh_guarded_call@H@@QEAAH$$QEAV<lambda_7ea02354adac61b93e3a5c2c4100d85b>@@AEAV<lambda_8abd18a77b33e1dd4bdebee267cfa707>@@$$QEAV<lambda_eba452c8b8afd9ffb9102a507ee4e553>@@@Z 00000001400a1924     libucrt:puts.obj
 0002:00040948       $unwind$_fputwc_nolock_internal 00000001400a1948     libucrt:fputwc.obj
 0002:00040964       $unwind$?_fputwc_internal@@YAG_WQEAU_iobuf@@AEAV__crt_cached_ptd_host@@@Z 00000001400a1964     libucrt:fputwc.obj
 0002:0004098c       $unwind$_dclass            00000001400a198c     libucrt:nan.obj
 0002:0004098c       $unwind$round              00000001400a198c     libucrt:round.obj
 0002:00040994       $unwind$lround             00000001400a1994     libucrt:lround.obj
 0002:000409a0       $unwind$__acrt_uninitialize_locale 00000001400a19a0     libucrt:wsetlocale.obj
 0002:000409a0       $unwind$__acrt_get_sigabrt_handler 00000001400a19a0     libucrt:signal.obj
 0002:000409a8       $unwind$signal             00000001400a19a8     libucrt:signal.obj
 0002:000409d4       $unwind$raise              00000001400a19d4     libucrt:signal.obj
 0002:00040a14       $unwind$?ctrlevent_capture@@YAHK@Z 00000001400a1a14     libucrt:signal.obj
 0002:00040a38       $unwind$??$?RV<lambda_450d765d439847d4c735a33c368b5fc0>@@AEAV<lambda_44731a7d0e6d81c3e6aa82d741081786>@@V<lambda_601a2a7da3b7a96e9554ac7215c4b07c>@@@?$__crt_seh_guarded_call@P6AXH@Z@@QEAAP6AXH@Z$$QEAV<lambda_450d765d439847d4c735a33c368b5fc0>@@AEAV<lambda_44731a7d0e6d81c3e6aa82d741081786>@@$$QEAV<lambda_601a2a7da3b7a96e9554ac7215c4b07c>@@@Z 00000001400a1a38     libucrt:signal.obj
 0002:00040a5c       $unwind$??$common_localtime_s@_J@@YAHQEAUtm@@QEB_J@Z 00000001400a1a5c     libucrt:localtime.obj
 0002:00040a68       $unwind$_query_new_handler 00000001400a1a68     libucrt:new_handler.obj
 0002:00040a88       $unwind$?try_cor_exit_process@@YAXI@Z 00000001400a1a88     libucrt:exit.obj
 0002:00040a98       $ip2state$?try_cor_exit_process@@YAXI@Z 00000001400a1a98     libucrt:exit.obj
 0002:00040aa0       $unwind$?common_exit@@YAXHW4_crt_exit_cleanup_mode@@W4_crt_exit_return_mode@@@Z 00000001400a1aa0     libucrt:exit.obj
 0002:00040ab4       $stateUnwindMap$__dcrt_uninitialize_environments_nolock 00000001400a1ab4     libucrt:environment_initialization.obj
 0002:00040ab4       $stateUnwindMap$?common_exit@@YAXHW4_crt_exit_cleanup_mode@@W4_crt_exit_return_mode@@@Z 00000001400a1ab4     libucrt:exit.obj
 0002:00040ab4       $stateUnwindMap$_execute_onexit_table 00000001400a1ab4     libucrt:onexit.obj
 0002:00040ac0       $ip2state$?common_exit@@YAXHW4_crt_exit_cleanup_mode@@W4_crt_exit_return_mode@@@Z 00000001400a1ac0     libucrt:exit.obj
 0002:00040ac8       $unwind$??R<lambda_6e4b09c48022b2350581041d5f6b0c4c>@@QEBA@XZ 00000001400a1ac8     libucrt:exit.obj
 0002:00040ae8       $unwind$??$?RV<lambda_d80eeec6fff315bfe5c115232f3240e3>@@AEAV<lambda_6e4b09c48022b2350581041d5f6b0c4c>@@V<lambda_2358e3775559c9db80273638284d5e45>@@@?$__crt_seh_guarded_call@X@@QEAAX$$QEAV<lambda_d80eeec6fff315bfe5c115232f3240e3>@@AEAV<lambda_6e4b09c48022b2350581041d5f6b0c4c>@@$$QEAV<lambda_2358e3775559c9db80273638284d5e45>@@@Z 00000001400a1ae8     libucrt:exit.obj
 0002:00040b0c       $unwind$_configure_narrow_argv 00000001400a1b0c     libucrt:argv_parsing.obj
 0002:00040b20       $unwind$__dcrt_uninitialize_environments_nolock 00000001400a1b20     libucrt:environment_initialization.obj
 0002:00040b30       $unwind$??$free_environment@D@@YAXQEAPEAD@Z 00000001400a1b30     libucrt:environment_initialization.obj
 0002:00040b30       $unwind$??$free_environment@_W@@YAXQEAPEA_W@Z 00000001400a1b30     libucrt:environment_initialization.obj
 0002:00040b30       $unwind$_initterm          00000001400a1b30     libucrt:initterm.obj
 0002:00040b3c       $unwind$??$create_environment@_W@@YAQEAPEA_WQEA_W@Z 00000001400a1b3c     libucrt:environment_initialization.obj
 0002:00040b3c       $unwind$__lc_wcstolc       00000001400a1b3c     libucrt:wsetlocale.obj
 0002:00040b54       $unwind$??$initialize_environment_by_cloning_nolock@D@@YAHXZ 00000001400a1b54     libucrt:environment_initialization.obj
 0002:00040b68       $unwind$_register_onexit_function 00000001400a1b68     libucrt:onexit.obj
 0002:00040b70       $unwind$_execute_onexit_table 00000001400a1b70     libucrt:onexit.obj
 0002:00040b80       $ip2state$_execute_onexit_table 00000001400a1b80     libucrt:onexit.obj
 0002:00040b88       $unwind$??$?RV<lambda_638799b9deba96c50f710eeac98168cd>@@AEAV<lambda_22ebabd17bc4fa466a2aca6d8deb888d>@@V<lambda_a6f7d7db0129f75315ebf26d50c089f1>@@@?$__crt_seh_guarded_call@H@@QEAAH$$QEAV<lambda_638799b9deba96c50f710eeac98168cd>@@AEAV<lambda_22ebabd17bc4fa466a2aca6d8deb888d>@@$$QEAV<lambda_a6f7d7db0129f75315ebf26d50c089f1>@@@Z 00000001400a1b88     libucrt:onexit.obj
 0002:00040bac       $unwind$??$?RV<lambda_7777bce6b2f8c936911f934f8298dc43>@@AEAV<lambda_f03950bc5685219e0bcd2087efbe011e>@@V<lambda_3883c3dff614d5e0c5f61bb1ac94921c>@@@?$__crt_seh_guarded_call@H@@QEAAH$$QEAV<lambda_7777bce6b2f8c936911f934f8298dc43>@@AEAV<lambda_f03950bc5685219e0bcd2087efbe011e>@@$$QEAV<lambda_3883c3dff614d5e0c5f61bb1ac94921c>@@@Z 00000001400a1bac     libucrt:onexit.obj
 0002:00040bd0       $unwind$_setmode_nolock    00000001400a1bd0     libucrt:setmode.obj
 0002:00040be0       $unwind$_wsetlocale        00000001400a1be0     libucrt:wsetlocale.obj
 0002:00040be8       $unwind$_expandlocale      00000001400a1be8     libucrt:wsetlocale.obj
 0002:00040c08       $unwind$_wcscats           00000001400a1c08     libucrt:wsetlocale.obj
 0002:00040c18       $unwind$_wsetlocale_set_cat 00000001400a1c18     libucrt:wsetlocale.obj
 0002:00040c3c       $unwind$_wsetlocale_nolock 00000001400a1c3c     libucrt:wsetlocale.obj
 0002:00040c60       $unwind$??R<lambda_2a444430fde8c29194d880d93eed5e8f>@@QEBA@XZ 00000001400a1c60     libucrt:wsetlocale.obj
 0002:00040c6c       $unwind$string_is_alpha    00000001400a1c6c     libucrt:wsetlocale.obj
 0002:00040c80       $unwind$parse_bcp47_region 00000001400a1c80     libucrt:wsetlocale.obj
 0002:00040c80       $unwind$?decode_options@@YA?AUfile_options@?A0xa9d50aae@@HHH@Z 00000001400a1c80     libucrt:open.obj
 0002:00040c94       $unwind$parse_bcp47        00000001400a1c94     libucrt:wsetlocale.obj
 0002:00040cb8       $unwind$??$?RV<lambda_410d79af7f07d98d83a3f525b3859a53>@@AEAV<lambda_3e16ef9562a7dcce91392c22ab16ea36>@@V<lambda_38119f0e861e05405d8a144b9b982f0a>@@@?$__crt_seh_guarded_call@X@@QEAAX$$QEAV<lambda_410d79af7f07d98d83a3f525b3859a53>@@AEAV<lambda_3e16ef9562a7dcce91392c22ab16ea36>@@$$QEAV<lambda_38119f0e861e05405d8a144b9b982f0a>@@@Z 00000001400a1cb8     libucrt:wsetlocale.obj
 0002:00040ce0       $unwind$??$?RV<lambda_1d892b297fdedeee07ed8124eeb2f2fa>@@AEAV<lambda_ffc046909424fd52df0ac47e64813305>@@V<lambda_01a7098693036236037e7cdb9bca3d73>@@@?$__crt_seh_guarded_call@X@@QEAAX$$QEAV<lambda_1d892b297fdedeee07ed8124eeb2f2fa>@@AEAV<lambda_ffc046909424fd52df0ac47e64813305>@@$$QEAV<lambda_01a7098693036236037e7cdb9bca3d73>@@@Z 00000001400a1ce0     libucrt:wsetlocale.obj
 0002:00040d04       $unwind$??$?RV<lambda_e9338f07fe435327d97d4ef86149e64d>@@AEAV<lambda_2a444430fde8c29194d880d93eed5e8f>@@AEAV<lambda_02db5278e8aef8b5e4976579d73f5304>@@@?$__crt_seh_guarded_call@X@@QEAAX$$QEAV<lambda_e9338f07fe435327d97d4ef86149e64d>@@AEAV<lambda_2a444430fde8c29194d880d93eed5e8f>@@AEAV<lambda_02db5278e8aef8b5e4976579d73f5304>@@@Z 00000001400a1d04     libucrt:wsetlocale.obj
 0002:00040d24       $unwind$terminate          00000001400a1d24     libucrt:terminate.obj
 0002:00040d44       $unwind$setlocale          00000001400a1d44     libucrt:setlocale.obj
 0002:00040d4c       $unwind$??R<lambda_2116bde18c9e5f34230805ea4a4660ed>@@QEBAPEADXZ 00000001400a1d4c     libucrt:setlocale.obj
 0002:00040d64       $unwind$??$?RV<lambda_e9ce07acdb0b138e546925ae9f1a2c9c>@@AEAV<lambda_2116bde18c9e5f34230805ea4a4660ed>@@V<lambda_5d037afbfc54bf1ca80d3d1ee4062886>@@@?$__crt_seh_guarded_call@PEAD@@QEAAPEAD$$QEAV<lambda_e9ce07acdb0b138e546925ae9f1a2c9c>@@AEAV<lambda_2116bde18c9e5f34230805ea4a4660ed>@@$$QEAV<lambda_5d037afbfc54bf1ca80d3d1ee4062886>@@@Z 00000001400a1d64     libucrt:setlocale.obj
 0002:00040d88       $unwind$??$common_fsopen@D@@YAPEAU_iobuf@@QEBD0H@Z 00000001400a1d88     libucrt:fopen.obj
 0002:00040db0       $unwind$__acrt_locale_initialize_ctype 00000001400a1db0     libucrt:initctype.obj
 0002:00040dd8       $unwind$?divide@__crt_strtox@@YA_KAEAUbig_integer@1@AEBU21@@Z 00000001400a1dd8     libucrt:strtod.obj
 0002:00040df0       $chain$0$?divide@__crt_strtox@@YA_KAEAUbig_integer@1@AEBU21@@Z 00000001400a1df0     libucrt:strtod.obj
 0002:00040e04       $chain$1$?divide@__crt_strtox@@YA_KAEAUbig_integer@1@AEBU21@@Z 00000001400a1e04     libucrt:strtod.obj
 0002:00040e14       $unwind$__dcrt_write_console 00000001400a1e14     libucrt:initcon.obj
 0002:00040e14       $unwind$??$__acrt_convert_wcs_mbs_cp@_WDV<lambda_f788ae46380686e8b737efdd8c720d07>@@U__crt_win32_buffer_no_resizing@@@@YAHQEB_WAEAV?$__crt_win32_buffer@DU__crt_win32_buffer_no_resizing@@@@AEBV<lambda_f788ae46380686e8b737efdd8c720d07>@@I@Z 00000001400a1e14     libucrt:strftime.obj
 0002:00040e28       $unwind$??$parse_integer@KV?$c_string_character_source@_W@__crt_strtox@@$00@__crt_strtox@@YAKAEAV__crt_cached_ptd_host@@V?$c_string_character_source@_W@0@H_N@Z 00000001400a1e28     libucrt:atox.obj
 0002:00040e48       $xdatasym                  00000001400a1e48     libucrt:strncmp.obj
 0002:00040e4c       $unwind$_write_nolock      00000001400a1e4c     libucrt:write.obj
 0002:00040e64       $unwind$_write_internal    00000001400a1e64     libucrt:write.obj
 0002:00040e90       $unwind$?write_double_translated_ansi_nolock@@YA?AUwrite_result@?A0x17268360@@HQEBDIAEAV__crt_cached_ptd_host@@@Z 00000001400a1e90     libucrt:write.obj
 0002:00040eb8       $ip2state$?write_double_translated_ansi_nolock@@YA?AUwrite_result@?A0x17268360@@HQEBDIAEAV__crt_cached_ptd_host@@@Z 00000001400a1eb8     libucrt:write.obj
 0002:00040ec0       $unwind$?write_text_ansi_nolock@@YA?AUwrite_result@?A0x17268360@@HQEBDI@Z 00000001400a1ec0     libucrt:write.obj
 0002:00040ec0       $unwind$?write_text_utf16le_nolock@@YA?AUwrite_result@?A0x17268360@@HQEBDI@Z 00000001400a1ec0     libucrt:write.obj
 0002:00040ee0       $unwind$?write_text_utf8_nolock@@YA?AUwrite_result@?A0x17268360@@HQEBDI@Z 00000001400a1ee0     libucrt:write.obj
 0002:00040f04       $unwind$??$write_buffer_nolock@D@@YA_NDV__crt_stdio_stream@@AEAV__crt_cached_ptd_host@@@Z 00000001400a1f04     libucrt:_flsbuf.obj
 0002:00040f18       $unwind$??$write_buffer_nolock@_W@@YA_N_WV__crt_stdio_stream@@AEAV__crt_cached_ptd_host@@@Z 00000001400a1f18     libucrt:_flsbuf.obj
 0002:00040f2c       $unwind$__acrt_stdio_end_temporary_buffering_nolock 00000001400a1f2c     libucrt:_sftbuf.obj
 0002:00040f34       $unwind$_free_base         00000001400a1f34     libucrt:free_base.obj
 0002:00040f34       $unwind$?destroy_fls@@YAXPEAX@Z 00000001400a1f34     libucrt:per_thread_data.obj
 0002:00040f34       $unwind$__acrt_locale_free_numeric 00000001400a1f34     libucrt:initnum.obj
 0002:00040f34       $unwind$__acrt_locale_free_lc_time_if_unreferenced 00000001400a1f34     libucrt:locale_refcounting.obj
 0002:00040f3c       $unwind$?construct_ptd_array@@YAXQEAU__acrt_ptd@@@Z 00000001400a1f3c     libucrt:per_thread_data.obj
 0002:00040f44       $unwind$?destroy_ptd_array@@YAXQEAU__acrt_ptd@@@Z 00000001400a1f44     libucrt:per_thread_data.obj
 0002:00040f4c       $unwind$??$?RV<lambda_0ae27a3a962d80f24befdcbee591983d>@@AEAV<lambda_8d0ee55de4b1038c4002e0adecdf1839>@@V<lambda_dc504788e8f1664fe9b84e20bfb512f2>@@@?$__crt_seh_guarded_call@X@@QEAAX$$QEAV<lambda_0ae27a3a962d80f24befdcbee591983d>@@AEAV<lambda_8d0ee55de4b1038c4002e0adecdf1839>@@$$QEAV<lambda_dc504788e8f1664fe9b84e20bfb512f2>@@@Z 00000001400a1f4c     libucrt:per_thread_data.obj
 0002:00040f70       $unwind$??$?RV<lambda_aa87e3671a710a21b5dc78c0bdf72e11>@@AEAV<lambda_92619d2358a28f41a33ba319515a20b9>@@V<lambda_6992ecaafeb10aed2b74cb1fae11a551>@@@?$__crt_seh_guarded_call@X@@QEAAX$$QEAV<lambda_aa87e3671a710a21b5dc78c0bdf72e11>@@AEAV<lambda_92619d2358a28f41a33ba319515a20b9>@@$$QEAV<lambda_6992ecaafeb10aed2b74cb1fae11a551>@@@Z 00000001400a1f70     libucrt:per_thread_data.obj
 0002:00040f94       $unwind$??$?RV<lambda_f2e299630e499de9f9a165e60fcd3db5>@@AEAV<lambda_2ae9d31cdba2644fcbeaf08da7c24588>@@V<lambda_40d01ff24d0e7b3814fdbdcee8eab3c7>@@@?$__crt_seh_guarded_call@X@@QEAAX$$QEAV<lambda_f2e299630e499de9f9a165e60fcd3db5>@@AEAV<lambda_2ae9d31cdba2644fcbeaf08da7c24588>@@$$QEAV<lambda_40d01ff24d0e7b3814fdbdcee8eab3c7>@@@Z 00000001400a1f94     libucrt:per_thread_data.obj
 0002:00040fb8       $unwind$??$?RV<lambda_2d41944a1d46af3157314b8a01080d33>@@AEAV<lambda_8f455de75cd7d7f24b4096f044d8b9e6>@@V<lambda_aa500f224e6afead328df44964fe2772>@@@?$__crt_seh_guarded_call@X@@QEAAX$$QEAV<lambda_2d41944a1d46af3157314b8a01080d33>@@AEAV<lambda_8f455de75cd7d7f24b4096f044d8b9e6>@@$$QEAV<lambda_aa500f224e6afead328df44964fe2772>@@@Z 00000001400a1fb8     libucrt:per_thread_data.obj
 0002:00040fdc       $unwind$_close_internal    00000001400a1fdc     libucrt:close.obj
 0002:00040fe4       $unwind$??$?RV<lambda_ad8af0d99a0adf03d037d7dffe354bb5>@@AEAV<lambda_c9ba49e555ba839a7b07aa3fbecb7617>@@V<lambda_2f1ebd5d68526518146ae959c9e734c8>@@@?$__crt_seh_guarded_call@H@@QEAAH$$QEAV<lambda_ad8af0d99a0adf03d037d7dffe354bb5>@@AEAV<lambda_c9ba49e555ba839a7b07aa3fbecb7617>@@$$QEAV<lambda_2f1ebd5d68526518146ae959c9e734c8>@@@Z 00000001400a1fe4     libucrt:close.obj
 0002:00041008       $unwind$?__acrt_stdio_allocate_stream@@YA?AV__crt_stdio_stream@@XZ 00000001400a2008     libucrt:stream.obj
 0002:00041028       $unwind$?find_or_allocate_unused_stream_nolock@@YA?AV__crt_stdio_stream@@XZ 00000001400a2028     libucrt:stream.obj
 0002:0004103c       $unwind$__acrt_initialize_winapi_thunks 00000001400a203c     libucrt:winapi_thunks.obj
 0002:00041044       $unwind$?fp_format_f@@YAHQEBNQEAD_K12HW4__acrt_rounding_mode@@AEAV__crt_cached_ptd_host@@@Z 00000001400a2044     libucrt:cvt.obj
 0002:00041044       $unwind$__acrt_CompareStringEx 00000001400a2044     libucrt:winapi_thunks.obj
 0002:00041044       $unwind$__acrt_LCMapStringEx 00000001400a2044     libucrt:winapi_thunks.obj
 0002:00041044       $unwind$__acrt_LCMapStringW 00000001400a2044     libucrt:lcmapstringw.obj
 0002:00041044       $unwind$_wcsnicoll_l       00000001400a2044     libucrt:wcsnicol.obj
 0002:00041058       $unwind$__acrt_EnumSystemLocalesEx 00000001400a2058     libucrt:winapi_thunks.obj
 0002:00041068       $unwind$??$?RV<lambda_48fc4a32460bb0512d3b13f8499328be>@@AEAV<lambda_6c3dac0a4f3f9cefca9bb494422f9b77>@@V<lambda_0a2f2c9f9a56eb2b08bfa6ff61d331c5>@@@?$__crt_seh_guarded_call@H@@QEAAH$$QEAV<lambda_48fc4a32460bb0512d3b13f8499328be>@@AEAV<lambda_6c3dac0a4f3f9cefca9bb494422f9b77>@@$$QEAV<lambda_0a2f2c9f9a56eb2b08bfa6ff61d331c5>@@@Z 00000001400a2068     libucrt:winapi_thunks.obj
 0002:0004108c       $unwind$_fcloseall         00000001400a208c     libucrt:closeall.obj
 0002:000410b0       $unwind$__acrt_initialize_lowio 00000001400a20b0     libucrt:ioinit.obj
 0002:000410d0       $unwind$?initialize_inherited_file_handles_nolock@@YAXXZ 00000001400a20d0     libucrt:ioinit.obj
 0002:000410ec       $unwind$_read              00000001400a20ec     libucrt:read.obj
 0002:0004111c       $unwind$_read_nolock       00000001400a211c     libucrt:read.obj
 0002:00041134       $unwind$?translate_ansi_or_utf8_nolock@@YAHHQEAD_KQEA_W1@Z 00000001400a2134     libucrt:read.obj
 0002:0004114c       $unwind$??$translate_text_mode_nolock@_W@@YAHHQEA_W_K@Z 00000001400a214c     libucrt:read.obj
 0002:00041164       $unwind$??$common_lseek@_J@@YA_JH_JHAEAV__crt_cached_ptd_host@@@Z 00000001400a2164     libucrt:lseek.obj
 0002:00041190       $unwind$?common_ftell_translated_utf8_nolock@@YA_JV__crt_stdio_stream@@_JAEAV__crt_cached_ptd_host@@@Z 00000001400a2190     libucrt:ftell.obj
 0002:000411b4       $unwind$?common_ftell_read_mode_nolock@@YA_JV__crt_stdio_stream@@_J1AEAV__crt_cached_ptd_host@@@Z 00000001400a21b4     libucrt:ftell.obj
 0002:000411cc       $unwind$??$common_ftell@_J@@YA_JV__crt_stdio_stream@@AEAV__crt_cached_ptd_host@@@Z 00000001400a21cc     libucrt:ftell.obj
 0002:000411f0       $unwind$_commit            00000001400a21f0     libucrt:commit.obj
 0002:000411f8       $unwind$??$?RV<lambda_a37b2b86f63e897a80ea819b0eb08c01>@@AEAV<lambda_38ce7e780aa69e748d6df282ebc68efe>@@V<lambda_99fb1378e971ab6e7edea83e3a7a83a2>@@@?$__crt_seh_guarded_call@H@@QEAAH$$QEAV<lambda_a37b2b86f63e897a80ea819b0eb08c01>@@AEAV<lambda_38ce7e780aa69e748d6df282ebc68efe>@@$$QEAV<lambda_99fb1378e971ab6e7edea83e3a7a83a2>@@@Z 00000001400a21f8     libucrt:commit.obj
 0002:0004121c       $unwind$__acrt_fp_format   00000001400a221c     libucrt:cvt.obj
 0002:0004122c       $unwind$?fp_format_e_internal@@YAHQEAD_KH_NIQEAU_strflt@@2AEAV__crt_cached_ptd_host@@@Z 00000001400a222c     libucrt:cvt.obj
 0002:00041248       $unwind$?should_round_up@@YA_NQEBN_KFW4__acrt_rounding_mode@@@Z 00000001400a2248     libucrt:cvt.obj
 0002:00041248       $unwind$TranslateName      00000001400a2248     libucrt:get_qualified_locale.obj
 0002:00041248       $unwind$_chsize_nolock_internal 00000001400a2248     libucrt:chsize.obj
 0002:00041264       $unwind$?fp_format_a@@YAHQEBNPEAD_KQEAD2H_NIW4__acrt_rounding_mode@@AEAV__crt_cached_ptd_host@@@Z 00000001400a2264     libucrt:cvt.obj
 0002:00041280       $unwind$?fp_format_g@@YAHQEBNQEAD_K12H_NIW4__acrt_rounding_mode@@AEAV__crt_cached_ptd_host@@@Z 00000001400a2280     libucrt:cvt.obj
 0002:00041298       $unwind$_wctomb_internal   00000001400a2298     libucrt:wctomb.obj
 0002:000412ac       $unwind$_fperrraise        00000001400a22ac     libucrt:_test.obj
 0002:000412b8       $unwind$_isindst           00000001400a22b8     libucrt:tzset.obj
 0002:000412d8       $unwind$__tzset            00000001400a22d8     libucrt:tzset.obj
 0002:000412f8       $unwind$?x_ismbbtype_l@@YAHPEAU__crt_locale_pointers@@IHH@Z 00000001400a22f8     libucrt:ismbbyte.obj
 0002:000412f8       $unwind$_strnicmp_l        00000001400a22f8     libucrt:strnicmp.obj
 0002:000412f8       $unwind$?tzset_os_copy_to_tzname@@YAXQEB_WQEA_WQEADI@Z 00000001400a22f8     libucrt:tzset.obj
 0002:00041308       $unwind$?tzset_from_system_nolock@@YAXXZ 00000001400a2308     libucrt:tzset.obj
 0002:00041318       $unwind$__acrt_CompareStringA 00000001400a2318     libucrt:comparestringa.obj
 0002:00041318       $unwind$?tzset_env_copy_to_tzname@@YAXQEB_WQEA_WQEAD_K@Z 00000001400a2318     libucrt:tzset.obj
 0002:00041328       $unwind$?tzset_from_environment_nolock@@YAXPEA_W@Z 00000001400a2328     libucrt:tzset.obj
 0002:0004133c       $unwind$?tzset_nolock@@YAXXZ 00000001400a233c     libucrt:tzset.obj
 0002:00041358       $unwind$?cvtdate@@YAXW4transition_type@?A0x7639d0b4@@W4date_type@2@HHHHHHHHH@Z 00000001400a2358     libucrt:tzset.obj
 0002:0004136c       $unwind$?_isindst_nolock@@YAHQEAUtm@@@Z 00000001400a236c     libucrt:tzset.obj
 0002:00041388       $unwind$??$common_expand_argv_wildcards@D@@YAHQEAPEADQEAPEAPEAD@Z 00000001400a2388     libucrt:argv_wildcards.obj
 0002:000413a0       $unwind$__dcrt_get_narrow_environment_from_os 00000001400a23a0     libucrt:get_environment_from_os.obj
 0002:000413a0       $unwind$??$__acrt_convert_wcs_mbs_cp@_WDV<lambda_d8593a27d1aa8c02be35c86a17d324c4>@@U__crt_win32_buffer_internal_dynamic_resizing@@@@YAHQEB_WAEAV?$__crt_win32_buffer@DU__crt_win32_buffer_internal_dynamic_resizing@@@@AEBV<lambda_d8593a27d1aa8c02be35c86a17d324c4>@@I@Z 00000001400a23a0     libucrt:argv_wildcards.obj
 0002:000413b8       $unwind$??$expand_argument_wildcards@D@@YAHQEAD0AEAV?$argument_list@D@?A0x5f5c8891@@@Z 00000001400a23b8     libucrt:argv_wildcards.obj
 0002:000413d8       $unwind$__acrt_GetModuleFileNameA 00000001400a23d8     libucrt:getmodulefilenamea.obj
 0002:000413f4       $unwind$_setmbcp_nolock    00000001400a23f4     libucrt:mbctype.obj
 0002:00041414       $unwind$__dcrt_lowio_ensure_console_output_initialized 00000001400a2414     libucrt:initcon.obj
 0002:00041414       $unwind$?__mbrtowc_utf8@__crt_mbstring@@YA_KPEA_WPEBD_KPEAU_Mbstatet@@AEAV__crt_cached_ptd_host@@@Z 00000001400a2414     libucrt:mbrtowc.obj
 0002:00041414       $unwind$?getSystemCP@@YAHH@Z 00000001400a2414     libucrt:mbctype.obj
 0002:0004141c       $unwind$?update_thread_multibyte_data_internal@@YAPEAU__crt_multibyte_data@@QEAU__acrt_ptd@@QEAPEAU1@@Z 00000001400a241c     libucrt:mbctype.obj
 0002:00041444       $unwind$?setmbcp_internal@@YAHH_NQEAU__acrt_ptd@@QEAPEAU__crt_multibyte_data@@@Z 00000001400a2444     libucrt:mbctype.obj
 0002:0004145c       $unwind$?setSBUpLow@@YAXPEAU__crt_multibyte_data@@@Z 00000001400a245c     libucrt:mbctype.obj
 0002:00041478       $unwind$??$?RV<lambda_efdfa57d1f175319df784efa44bb7b81>@@AEAV<lambda_5f0a4c1567f8adc6734073e5d1e1b35c>@@V<lambda_2e8a7d3640ea6ccb4c2413664c2db6fd>@@@?$__crt_seh_guarded_call@X@@QEAAX$$QEAV<lambda_efdfa57d1f175319df784efa44bb7b81>@@AEAV<lambda_5f0a4c1567f8adc6734073e5d1e1b35c>@@$$QEAV<lambda_2e8a7d3640ea6ccb4c2413664c2db6fd>@@@Z 00000001400a2478     libucrt:mbctype.obj
 0002:0004149c       $unwind$__acrt_WideCharToMultiByte 00000001400a249c     libucrt:widechartomultibyte.obj
 0002:000414a8       $unwind$??$common_set_variable_in_environment_nolock@D@@YAHQEADH@Z 00000001400a24a8     libucrt:setenv.obj
 0002:000414c0       $unwind$??$copy_environment@D@@YAPEAPEADQEAPEAD@Z 00000001400a24c0     libucrt:setenv.obj
 0002:000414d4       $unwind$_alloc_osfhnd      00000001400a24d4     libucrt:osfinfo.obj
 0002:00041504       $unwind$__acrt_lowio_destroy_handle_array 00000001400a2504     libucrt:osfinfo.obj
 0002:00041514       $unwind$__acrt_lowio_ensure_fh_exists 00000001400a2514     libucrt:osfinfo.obj
 0002:00041540       $unwind$__acrt_locale_initialize_monetary 00000001400a2540     libucrt:initmon.obj
 0002:00041540       $unwind$?initialize_lc_time@@YA_NQEAU__crt_lc_time_data@@QEAU__crt_locale_data@@@Z 00000001400a2540     libucrt:inittime.obj
 0002:0004155c       $unwind$__acrt_locale_free_monetary 00000001400a255c     libucrt:initmon.obj
 0002:00041564       $unwind$__acrt_locale_free_time 00000001400a2564     libucrt:inittime.obj
 0002:00041574       $unwind$__acrt_GetStringTypeA 00000001400a2574     libucrt:getstringtypea.obj
 0002:0004159c       $unwind$__acrt_update_thread_locale_data 00000001400a259c     libucrt:locale_refcounting.obj
 0002:000415c0       $unwind$__acrt_get_qualified_locale 00000001400a25c0     libucrt:get_qualified_locale.obj
 0002:000415dc       $unwind$LangCountryEnumProcEx 00000001400a25dc     libucrt:get_qualified_locale.obj
 0002:000415fc       $unwind$LanguageEnumProcEx 00000001400a25fc     libucrt:get_qualified_locale.obj
 0002:00041618       $unwind$GetLocaleNameFromDefault 00000001400a2618     libucrt:get_qualified_locale.obj
 0002:00041630       $unwind$TestDefaultCountry 00000001400a2630     libucrt:get_qualified_locale.obj
 0002:00041644       $unwind$__acrt_get_qualified_locale_downlevel 00000001400a2644     libucrt:getqloc_downlevel.obj
 0002:00041660       $unwind$LangCountryEnumProc 00000001400a2660     libucrt:getqloc_downlevel.obj
 0002:00041680       $unwind$LanguageEnumProc   00000001400a2680     libucrt:getqloc_downlevel.obj
 0002:0004169c       $unwind$CountryEnumProc    00000001400a269c     libucrt:getqloc_downlevel.obj
 0002:000416bc       $unwind$?_mbstowcs_l_helper@@YA_KPEA_WPEBD_KAEAV__crt_cached_ptd_host@@@Z 00000001400a26bc     libucrt:mbstowcs.obj
 0002:000416d8       $ip2state$?_mbstowcs_l_helper@@YA_KPEA_WPEBD_KAEAV__crt_cached_ptd_host@@@Z 00000001400a26d8     libucrt:mbstowcs.obj
 0002:000416e0       $unwind$?_mbstowcs_internal@@YAHPEA_KPEA_W_KPEBD2AEAV__crt_cached_ptd_host@@@Z 00000001400a26e0     libucrt:mbstowcs.obj
 0002:000416e0       $unwind$?_wcstombs_internal@@YAHPEA_KPEAD_KPEB_W2AEAV__crt_cached_ptd_host@@@Z 00000001400a26e0     libucrt:wcstombs.obj
 0002:000416f8       $unwind$?_wcstombs_l_helper@@YA_KPEADPEB_W_KAEAV__crt_cached_ptd_host@@@Z 00000001400a26f8     libucrt:wcstombs.obj
 0002:00041718       $unwind$_openfile          00000001400a2718     libucrt:openfile.obj
 0002:0004172c       $unwind$_isctype_l         00000001400a272c     libucrt:isctype.obj
 0002:00041748       $unwind$__acrt_GetLocaleInfoA 00000001400a2748     libucrt:getlocaleinfoa.obj
 0002:00041768       $unwind$?InternalGetLocaleInfoA@@YAHQEAU__crt_locale_pointers@@QEB_WKQEADH@Z 00000001400a2768     libucrt:getlocaleinfoa.obj
 0002:00041790       $unwind$__acrt_LCMapStringA 00000001400a2790     libucrt:lcmapstringa.obj
 0002:000417a0       $unwind$?__acrt_LCMapStringA_stat@@YAHPEAU__crt_locale_pointers@@PEB_WKPEBDHPEADHHH@Z 00000001400a27a0     libucrt:lcmapstringa.obj
 0002:000417c8       $unwind$_raise_exc_ex      00000001400a27c8     libucrt:fpexcept.obj
 0002:000417dc       $unwind$_ctrlfp            00000001400a27dc     libucrt:fpctrl.obj
 0002:00041804       $unwind$_wcsicmp_l         00000001400a2804     libucrt:wcsicmp.obj
 0002:0004181c       $unwind$?__mbsrtowcs_utf8@__crt_mbstring@@YA_KPEA_WPEAPEBD_KPEAU_Mbstatet@@AEAV__crt_cached_ptd_host@@@Z 00000001400a281c     libucrt:mbrtowc.obj
 0002:00041834       $unwind$_putwch_nolock     00000001400a2834     libucrt:putwch.obj
 0002:0004183c       $unwind$__acrt_fltout      00000001400a283c     libucrt:cfout.obj
 0002:0004185c       $unwind$__acrt_fenv_get_control 00000001400a285c     libucrt:_fenvutils.obj
 0002:00041864       $unwind$__acrt_fenv_set_control 00000001400a2864     libucrt:_fenvutils.obj
 0002:00041874       $unwind$??$common_getenv_s@_W@@YAHQEA_KQEA_W_KQEB_W@Z 00000001400a2874     libucrt:getenv.obj
 0002:000418b4       $unwind$qsort              00000001400a28b4     libucrt:qsort.obj
 0002:000418cc       $chain$4$qsort             00000001400a28cc     libucrt:qsort.obj
 0002:000418f0       $chain$5$qsort             00000001400a28f0     libucrt:qsort.obj
 0002:00041900       $unwind$strpbrk            00000001400a2900     libucrt:strpbrk.obj
 0002:00041910       $unwind$fallbackMethod     00000001400a2910     libucrt:strpbrk.obj
 0002:00041920       $unwind$_mbsdec_l          00000001400a2920     libucrt:mbsdec.obj
 0002:0004192c       $unwind$_strnicoll_l       00000001400a292c     libucrt:strnicol.obj
 0002:00041940       $unwind$__acrt_SetEnvironmentVariableA 00000001400a2940     libucrt:setenvironmentvariablea.obj
 0002:0004195c       $unwind$_wcsnicmp_l        00000001400a295c     libucrt:wcsnicmp.obj
 0002:00041978       $unwind$?__wcsrtombs_utf8@__crt_mbstring@@YA_KPEADPEAPEB_W_KPEAU_Mbstatet@@AEAV__crt_cached_ptd_host@@@Z 00000001400a2978     libucrt:wcrtomb.obj
 0002:00041998       $unwind$_sopen_nolock      00000001400a2998     libucrt:open.obj
 0002:000419b4       $unwind$_wsopen_nolock     00000001400a29b4     libucrt:open.obj
 0002:000419d4       $unwind$??$common_sopen_dispatch@D@@YAHQEBDHHHQEAHH@Z 00000001400a29d4     libucrt:open.obj
 0002:000419f8       $unwind$?truncate_ctrl_z_if_present@@YAHH@Z 00000001400a29f8     libucrt:open.obj
 0002:00041a08       $unwind$?configure_text_mode@@YAHHUfile_options@?A0xa9d50aae@@HAEAW4__crt_lowio_text_mode@@@Z 00000001400a2a08     libucrt:open.obj
 0002:00041a20       $xdatasym                  00000001400a2a20     libucrt:fpsr.obj
 0002:00041a28       $unwind$_towlower_l        00000001400a2a28     libucrt:towlower.obj
 0002:00041a30       $unwind$?__mbrtoc32_utf8@__crt_mbstring@@YA_KPEA_UPEBD_KPEAU_Mbstatet@@AEAV__crt_cached_ptd_host@@@Z 00000001400a2a30     libucrt:mbrtoc32.obj
 0002:00041a50       $xdatasym                  00000001400a2a50     libucrt:log10.obj
 0002:00041a5c       $unwind$?InternalCompareStringA@@YAHPEAU__crt_locale_pointers@@PEB_WKPEBDH2HH@Z 00000001400a2a5c     libucrt:comparestringa.obj
 0002:00041a80       $unwind$common_control87   00000001400a2a80     libucrt:ieee.obj
 0002:00041aac       $unwind$_call_matherr      00000001400a2aac     libucrt:libm_error.obj
 0002:00041ab4       $unwind$_handle_error      00000001400a2ab4     libucrt:libm_error.obj
 0002:00041ad4       $unwind$__acrt_initialize_fma3 00000001400a2ad4     libucrt:fma3_available.obj
 0002:00041adc       $unwind$_log_special_common 00000001400a2adc     libucrt:log_special.obj
 0002:00041ae8       $unwind$__GSHandlerCheckCommon 00000001400a2ae8     libcmt:gshandler.obj
 0002:00041af0       $xdatasym                  00000001400a2af0     libcmt:amdsecgs.obj
 0002:00041af4       $unwind$_IsNonwritableInCurrentImage 00000001400a2af4     libcmt:pesect.obj
 0002:00041b18       $unwind$__report_securityfailure 00000001400a2b18     libcmt:gs_report.obj
 0002:00041b20       $unwind$__report_gsfailure 00000001400a2b20     libcmt:gs_report.obj
 0002:00041b28       $unwind$capture_current_context 00000001400a2b28     libcmt:gs_report.obj
 0002:00041b34       $unwind$capture_previous_context 00000001400a2b34     libcmt:gs_report.obj
 0002:00041b40       $unwind$_local_unwind      00000001400a2b40     libvcruntime:jmpuwind.obj
 0002:000420ea       .idata$6                   00000001400a30ea     Ws2_32:WS2_32.dll
 0002:000423c0       .idata$6                   00000001400a33c0     kernel32:KERNEL32.dll
 0003:000005f0       BigReceiveBuf              00000001400a45f0     SocketsApiWin-91ffcb.o
 0003:001006cc       ?init@std@@3JA             00000001401a46cc     libcpmt:xlock.obj
 0003:001006d0       ?valid@?1???$_Xfiopen@D@?A0x6dc13635@@YAPEAU_iobuf@@PEBDHH@Z@4QBHB 00000001401a46d0     libcpmt:fiopen.obj
 0003:00100720       ?atcount_cdecl@@3_KA       00000001401a4720     libcpmt:iosptrs.obj
 0003:00100730       ?__vcrt_flsindex@@3KA      00000001401a4730     libvcruntime:per_thread_data.obj
 0003:00100850       _ctype_loc_style           00000001401a4850     libucrt:wsetlocale.obj
 0003:00100868       ?errno_no_memory@@3HA      00000001401a4868     libucrt:errno.obj
 0003:0010086c       ?doserrno_no_memory@@3KA   00000001401a486c     libucrt:errno.obj
 0003:00100920       ?__acrt_flsindex@@3KA      00000001401a4920     libucrt:per_thread_data.obj
 0003:00100bf0       ?tzstd_program@@3PADA      00000001401a4bf0     libucrt:timeset.obj
 0003:00100c30       ?tzdst_program@@3PADA      00000001401a4c30     libucrt:timeset.obj
 0003:00100c70       ?w_tzstd_program@@3PA_WA   00000001401a4c70     libucrt:timeset.obj
 0003:00100cf0       ?w_tzdst_program@@3PA_WA   00000001401a4cf0     libucrt:timeset.obj
 0003:00100d70       ?tzname_states@@3PAY01PEADA 00000001401a4d70     libucrt:timeset.obj
 0003:00100d80       ?w_tzname_states@@3PAY01PEA_WA 00000001401a4d80     libucrt:timeset.obj
 0003:00100d90       ?dststart@@3Utransitiondate@?A0x7639d0b4@@A 00000001401a4d90     libucrt:tzset.obj
 0003:00100da0       ?dstend@@3Utransitiondate@?A0x7639d0b4@@A 00000001401a4da0     libucrt:tzset.obj
 0003:00100fe0       _mbctypes                  00000001401a4fe0     libucrt:mbctype.obj
 0003:001010f0       _mbcasemaps                00000001401a50f0     libucrt:mbctype.obj
 0003:001011f0       ?__rgctypeflag@@3PADA      00000001401a51f0     libucrt:mbctype.obj
 0003:00101200       ?__rgcode_page_info@@3PAUcode_page_info@@A 00000001401a5200     libucrt:mbctype.obj
 0003:001012f4       ?dazSupported@?1??_ctrlfp@@9@9 00000001401a52f4     libucrt:fpctrl.obj
 0003:00101300       ?__dcrt_lowio_console_output_handle@@3PEAXEA 00000001401a5300     libucrt:initcon.obj
 0003:00101310       ?dazSupported@?1??common_control87@@9@9 00000001401a5310     libucrt:ieee.obj
 0003:00101440       gotSigCtrlC                00000001401a5440     Signals-d659c2.o
 0003:00101448       ?g_tss_cv@@3U_RTL_CONDITION_VARIABLE@@A 00000001401a5448     libcmt:thread_safe_statics.obj
 0003:00101450       ?g_tss_srw@@3U_RTL_SRWLOCK@@A 00000001401a5450     libcmt:thread_safe_statics.obj
 0003:00101468       ?is_initialized_as_dll@@3_NA 00000001401a5468     libcmt:utility.obj
 0003:00101469       ?module_local_atexit_table_initialized@@3_NA 00000001401a5469     libcmt:utility.obj
 0003:00101470       ?module_local_atexit_table@@3U_onexit_table_t@@A 00000001401a5470     libcmt:utility.obj
 0003:00101488       ?module_local_at_quick_exit_table@@3U_onexit_table_t@@A 00000001401a5488     libcmt:utility.obj
 0003:001014e0       ?stdstr@std@@3PAPEAVios_base@1@A 00000001401a54e0     libcpmt:ios.obj
 0003:00101530       ?stdopens@std@@3PADA       00000001401a5530     libcpmt:ios.obj
 0003:00101570       ?classic_locale@std@@3Vlocale@1@A 00000001401a5570     libcpmt:locale0.obj
 0003:00101588       ?_Fac_head@std@@3PEAU_Fac_node@1@EA 00000001401a5588     libcpmt:locale0.obj
 0003:00101590       ?_Fac_tidy_reg@std@@3U_Fac_tidy_reg_t@1@B 00000001401a5590     libcpmt:locale0.obj
 0003:00101598       global_locale              00000001401a5598     libcpmt:locale0.obj
 0003:001015a0       ?registered@?1??_Setgloballocale@locale@std@@CAXPEAX@Z@4_NA 00000001401a55a0     libcpmt:locale0.obj
 0003:001015b0       ?initlocks@std@@3V_Init_locks@1@A 00000001401a55b0     libcpmt:xlock.obj
 0003:001015c0       ?mtx@std@@3PAU_RTL_CRITICAL_SECTION@@A 00000001401a55c0     libcpmt:xlock.obj
 0003:00101700       ?freq_cached@?1??_Query_perf_frequency@@9@4U?$atomic@_J@std@@A 00000001401a5700     libcpmt:xtime.obj
 0003:00101760       ?initlocks@std@@3V_Init_locks@1@A 00000001401a5760     libcpmt:iosptrs.obj
 0003:00101761       ?init_atexit@@3U_Init_atexit@@A 00000001401a5761     libcpmt:iosptrs.obj
 0003:00101770       ?atfuns_cdecl@@3PAP6AXXZA  00000001401a5770     libcpmt:iosptrs.obj
 0003:001017c0       ?__KERNEL32Function_GetCurrentPackageId@?A0x995b63b9@@3P6AJPEAIPEAE@ZEA 00000001401a57c0     libcpmt:winapisupp.obj
 0003:001017c8       ?__KERNEL32Function_GetSystemTimePreciseAsFileTime@?A0x995b63b9@@3P6AXPEAU_FILETIME@@@ZEA 00000001401a57c8     libcpmt:winapisupp.obj
 0003:001017d0       ?__KERNEL32Function_GetTempPath2W@?A0x995b63b9@@3P6AKKPEA_W@ZEA 00000001401a57d0     libcpmt:winapisupp.obj
 0003:001018d0       ?__vcrt_startup_thread_ptd@@3U__vcrt_ptd@@A 00000001401a58d0     libvcruntime:per_thread_data.obj
 0003:00101958       __vcrt_lock_table          00000001401a5958     libvcruntime:locks.obj
 0003:00101980       __vcrt_locks_initialized   00000001401a5980     libvcruntime:locks.obj
 0003:001019c8       ?heap@@3V_HeapManager@@A   00000001401a59c8     libvcruntime:undname.obj
 0003:001019f0       ?module_handles@@3PAPEAUHINSTANCE__@@A 00000001401a59f0     libvcruntime:winapi_downlevel.obj
 0003:00101a08       ?function_pointers@@3PAPEAXA 00000001401a5a08     libvcruntime:winapi_downlevel.obj
 0003:00101a48       ?__acrt_invalid_parameter_handler@@3V?$dual_state_global@P6AXPEB_W00I_K@Z@__crt_state_management@@A 00000001401a5a48     libucrt:invalid_parameter.obj
 0003:00101a50       ?console_ctrl_handler_installed@@3_NA 00000001401a5a50     libucrt:signal.obj
 0003:00101a58       ?ctrlc_action@@3V?$dual_state_global@P6AXH@Z@__crt_state_management@@A 00000001401a5a58     libucrt:signal.obj
 0003:00101a60       ?ctrlbreak_action@@3V?$dual_state_global@P6AXH@Z@__crt_state_management@@A 00000001401a5a60     libucrt:signal.obj
 0003:00101a68       ?abort_action@@3V?$dual_state_global@P6AXH@Z@__crt_state_management@@A 00000001401a5a68     libucrt:signal.obj
 0003:00101a70       ?term_action@@3V?$dual_state_global@P6AXH@Z@__crt_state_management@@A 00000001401a5a70     libucrt:signal.obj
 0003:00101a78       ?__acrt_new_handler@@3V?$dual_state_global@P6AH_K@Z@__crt_state_management@@A 00000001401a5a78     libucrt:new_handler.obj
 0003:00101a80       ?c_termination_complete@@3JA 00000001401a5a80     libucrt:exit.obj
 0003:00101a88       ?thread_local_exit_callback_func@@3P6AXPEAXK0@ZEA 00000001401a5a88     libucrt:exit.obj
 0003:00101a90       ?c_exit_complete@?1???R<lambda_6e4b09c48022b2350581041d5f6b0c4c>@@QEBA@XZ@4_NA 00000001401a5a90     libucrt:exit.obj
 0003:00101aa0       ?program_name@?1???$common_configure_argv@D@@YAHW4_crt_argv_mode@@@Z@4PADA 00000001401a5aa0     libucrt:argv_parsing.obj
 0003:00101bf8       ?__acrt_app_type@@3W4_crt_app_type@@A 00000001401a5bf8     libucrt:report_runtime_error.obj
 0003:00101c00       ?user_matherr@@3V?$dual_state_global@P6AHPEAU_exception@@@Z@__crt_state_management@@A 00000001401a5c00     libucrt:matherr.obj
 0003:00101c3c       ?__acrt_global_new_mode@@3V?$dual_state_global@J@__crt_state_management@@A 00000001401a5c3c     libucrt:new_mode.obj
 0003:00101c50       ?__acrt_lock_table@@3PAU_RTL_CRITICAL_SECTION@@A 00000001401a5c50     libucrt:locks.obj
 0003:00101e80       ?__acrt_locks_initialized@@3IA 00000001401a5e80     libucrt:locks.obj
 0003:00101eb0       ?module_handles@@3PAPEAUHINSTANCE__@@A 00000001401a5eb0     libucrt:winapi_thunks.obj
 0003:00101f60       ?encoded_function_pointers@@3PAPEAXA 00000001401a5f60     libucrt:winapi_thunks.obj
 0003:00102058       ?static_enum_proc@?1??enum_system_locales_ex_nolock@@YAHQ6AHPEA_WK_J@Z@Z@4P6AH0K1@ZEA 00000001401a6058     libucrt:winapi_thunks.obj
 0003:00102468       ?internal_state@?1??_mbtowc_internal@@9@4U_Mbstatet@@A 00000001401a6468     libucrt:mbtowc.obj
 0003:00102470       ?enable_percent_n@@3_KA    00000001401a6470     libucrt:printf_count_output.obj
 0003:00102488       ?_tzname@@3V?$dual_state_global@PEAPEAD@__crt_state_management@@A 00000001401a6488     libucrt:timeset.obj
 0003:00102490       ?w_tzname@@3V?$dual_state_global@PEAPEA_W@__crt_state_management@@A 00000001401a6490     libucrt:timeset.obj
 0003:00102498       ?last_wide_tz@@3PEA_WEA    00000001401a6498     libucrt:tzset.obj
 0003:001024a0       ?tz_api_used@@3HA          00000001401a64a0     libucrt:tzset.obj
 0003:001024a4       ?tzset_init_state@@3V?$dual_state_global@J@__crt_state_management@@A 00000001401a64a4     libucrt:tzset.obj
 0003:001024b0       ?tz_info@@3U_TIME_ZONE_INFORMATION@@A 00000001401a64b0     libucrt:tzset.obj
 0003:00102578       ?fSystemSet@@3HA           00000001401a6578     libucrt:mbctype.obj
 0003:0010257c       ?initialized@?1??__acrt_initialize_multibyte@@9@4_NA 00000001401a657c     libucrt:mbctype.obj
 0003:00102590       ?internal_pst@?1??__mbrtoc32_utf8@__crt_mbstring@@YA_KPEA_UPEBD_KPEAU_Mbstatet@@AEAV__crt_cached_ptd_host@@@Z@4U3@A 00000001401a6590     libucrt:mbrtoc32.obj
 0003:00102598       ?internal_pst@?1??__c16rtomb_utf8@__crt_mbstring@@YA_KPEAD_SPEAU_Mbstatet@@AEAV__crt_cached_ptd_host@@@Z@4U3@A 00000001401a6598     libucrt:c16rtomb.obj
 0003:001025b0       GS_ExceptionRecord         00000001401a65b0     libcmt:gs_report.obj
 0003:00102650       GS_ContextRecord           00000001401a6650     libcmt:gs_report.obj
 0005:00000000       MoveSmall                  00000001401ad000     libvcruntime:memcpy_avx_ermsb_aligned.obj
 0005:00000040       MoveSmallYmm               00000001401ad040     libvcruntime:memcpy_avx_ermsb_aligned.obj
 0005:00000064       MoveSmallYmmNT             00000001401ad064     libvcruntime:memcpy_avx_ermsb_aligned.obj
 0005:00000090       MoveSmall                  00000001401ad090     libvcruntime:memcpy_avx_ermsb_aligned_amd.obj
 0005:000000d0       MoveSmallYmm               00000001401ad0d0     libvcruntime:memcpy_avx_ermsb_aligned_amd.obj
 0005:000000f4       MoveSmallYmmNT             00000001401ad0f4     libvcruntime:memcpy_avx_ermsb_aligned_amd.obj
 0005:00000120       MoveSmall                  00000001401ad120     libvcruntime:memcpy_sse2_ermsb_aligned.obj
 0005:00000160       MoveSmallXmm               00000001401ad160     libvcruntime:memcpy_sse2_ermsb_aligned.obj
 0005:00000190       MoveSmall                  00000001401ad190     libvcruntime:memcpy_sse2_ermsb_aligned_amd.obj
 0005:000001d0       MoveSmallXmm               00000001401ad1d0     libvcruntime:memcpy_sse2_ermsb_aligned_amd.obj
